
sbi-qemu:     file format elf64-littleriscv


Disassembly of section .text:

0000000080000000 <_start>:
    80000000:	f1402673          	csrr	a2,mhartid
    80000004:	000002b7          	lui	t0,0x0
    80000008:	00728293          	addi	t0,t0,7 # 7 <_max_hart_id>
    8000000c:	02c2e763          	bltu	t0,a2,8000003a <_start_abort>

0000000080000010 <.Lpcrel_hi0>:
    80000010:	00200117          	auipc	sp,0x200
    80000014:	ff010113          	addi	sp,sp,-16 # 80200000 <_sstack>
    80000018:	000102b7          	lui	t0,0x10
    8000001c:	00028293          	mv	t0,t0
    80000020:	c619                	beqz	a2,8000002e <.Lpcrel_hi0+0x1e>
    80000022:	8332                	mv	t1,a2
    80000024:	8396                	mv	t2,t0
    80000026:	929e                	add	t0,t0,t2
    80000028:	137d                	addi	t1,t1,-1
    8000002a:	fe031ee3          	bnez	t1,80000026 <.Lpcrel_hi0+0x16>
    8000002e:	40510133          	sub	sp,sp,t0
    80000032:	34001073          	csrw	mscratch,zero
    80000036:	43c0106f          	j	80001472 <main>

000000008000003a <_start_abort>:
    8000003a:	10500073          	wfi
    8000003e:	bff5                	j	8000003a <_start_abort>
	...

0000000080000042 <_ZN7rustsbi3ipi9probe_ipi17he4f8a293fd277fddE>:
    80000042:	7175                	addi	sp,sp,-144
    80000044:	e506                	sd	ra,136(sp)

0000000080000046 <.LBB0_10>:
    80000046:	00018517          	auipc	a0,0x18
    8000004a:	97650513          	addi	a0,a0,-1674 # 800179bc <_ZN7rustsbi3ipi3IPI17h5e8348c574fb75baE>
    8000004e:	00010097          	auipc	ra,0x10
    80000052:	908080e7          	jalr	-1784(ra) # 8000f956 <_ZN61_$LT$rustsbi..ipi..IPI$u20$as$u20$core..ops..deref..Deref$GT$5deref17hd64a99fb194dfca1E>
    80000056:	f82a                	sd	a0,48(sp)
    80000058:	a009                	j	8000005a <.LBB0_10+0x14>
    8000005a:	7542                	ld	a0,48(sp)
    8000005c:	f8aa                	sd	a0,112(sp)
    8000005e:	75c2                	ld	a1,48(sp)
    80000060:	fcae                	sd	a1,120(sp)
    80000062:	4585                	li	a1,1
    80000064:	4601                	li	a2,0
    80000066:	76c2                	ld	a3,48(sp)
    80000068:	f42a                	sd	a0,40(sp)
    8000006a:	8536                	mv	a0,a3
    8000006c:	00005097          	auipc	ra,0x5
    80000070:	6b4080e7          	jalr	1716(ra) # 80005720 <_ZN4core4sync6atomic11AtomicUsize9fetch_add17h70cf77e743f96783E>
    80000074:	85aa                	mv	a1,a0
    80000076:	e12a                	sd	a0,128(sp)
    80000078:	f02e                	sd	a1,32(sp)
    8000007a:	a009                	j	8000007c <.LBB0_10+0x36>
    8000007c:	7522                	ld	a0,40(sp)
    8000007e:	0521                	addi	a0,a0,8
    80000080:	4589                	li	a1,2
    80000082:	00005097          	auipc	ra,0x5
    80000086:	638080e7          	jalr	1592(ra) # 800056ba <_ZN4core4sync6atomic11AtomicUsize4load17h1002ab1939a259b7E>
    8000008a:	7582                	ld	a1,32(sp)
    8000008c:	00b50863          	beq	a0,a1,8000009c <.LBB0_10+0x56>
    80000090:	a009                	j	80000092 <.LBB0_10+0x4c>
    80000092:	00005097          	auipc	ra,0x5
    80000096:	6c6080e7          	jalr	1734(ra) # 80005758 <_ZN4core4sync6atomic14spin_loop_hint17hbd95f59684067b9eE>
    8000009a:	b7cd                	j	8000007c <.LBB0_10+0x36>
    8000009c:	7522                	ld	a0,40(sp)
    8000009e:	00850593          	addi	a1,a0,8
    800000a2:	0541                	addi	a0,a0,16
    800000a4:	ec2e                	sd	a1,24(sp)
    800000a6:	0000f097          	auipc	ra,0xf
    800000aa:	6a8080e7          	jalr	1704(ra) # 8000f74e <_ZN4core4cell19UnsafeCell$LT$T$GT$3get17hfcc4d7ce9c81b45aE>
    800000ae:	65e2                	ld	a1,24(sp)
    800000b0:	ecae                	sd	a1,88(sp)
    800000b2:	7602                	ld	a2,32(sp)
    800000b4:	f0b2                	sd	a2,96(sp)
    800000b6:	f4aa                	sd	a0,104(sp)
    800000b8:	e0ae                	sd	a1,64(sp)
    800000ba:	e4b2                	sd	a2,72(sp)
    800000bc:	e8aa                	sd	a0,80(sp)
    800000be:	a009                	j	800000c0 <.LBB0_10+0x7a>
    800000c0:	0088                	addi	a0,sp,64
    800000c2:	0000f097          	auipc	ra,0xf
    800000c6:	1b4080e7          	jalr	436(ra) # 8000f276 <_ZN76_$LT$spin..mutex..MutexGuard$LT$T$GT$$u20$as$u20$core..ops..deref..Deref$GT$5deref17hfa3beda3c1fcfab7E>
    800000ca:	e82a                	sd	a0,16(sp)
    800000cc:	a009                	j	800000ce <.LBB0_10+0x88>
    800000ce:	6542                	ld	a0,16(sp)
    800000d0:	0000f097          	auipc	ra,0xf
    800000d4:	454080e7          	jalr	1108(ra) # 8000f524 <_ZN4core6option15Option$LT$T$GT$6as_ref17hd0eb78e7514fed86E>
    800000d8:	fc2a                	sd	a0,56(sp)
    800000da:	a009                	j	800000dc <.LBB0_10+0x96>
    800000dc:	1828                	addi	a0,sp,56
    800000de:	00003097          	auipc	ra,0x3
    800000e2:	394080e7          	jalr	916(ra) # 80003472 <_ZN4core6option15Option$LT$T$GT$7is_some17h2aaf1ab838205365E>
    800000e6:	e42a                	sd	a0,8(sp)
    800000e8:	a009                	j	800000ea <.LBB0_10+0xa4>
    800000ea:	0088                	addi	a0,sp,64
    800000ec:	00011097          	auipc	ra,0x11
    800000f0:	58e080e7          	jalr	1422(ra) # 8001167a <_ZN4core3ptr13drop_in_place17ha4c71be0724f4df0E>
    800000f4:	a009                	j	800000f6 <.LBB0_10+0xb0>
    800000f6:	6522                	ld	a0,8(sp)
    800000f8:	60aa                	ld	ra,136(sp)
    800000fa:	6149                	addi	sp,sp,144
    800000fc:	8082                	ret

00000000800000fe <_ZN5riscv8register5mtval4read17h3ed43d1bd572a56fE>:
    800000fe:	1141                	addi	sp,sp,-16
    80000100:	e406                	sd	ra,8(sp)
    80000102:	00000097          	auipc	ra,0x0
    80000106:	014080e7          	jalr	20(ra) # 80000116 <_ZN5riscv8register5mtval5_read17hb20f3e2200709337E>
    8000010a:	e02a                	sd	a0,0(sp)
    8000010c:	a009                	j	8000010e <_ZN5riscv8register5mtval4read17h3ed43d1bd572a56fE+0x10>
    8000010e:	6502                	ld	a0,0(sp)
    80000110:	60a2                	ld	ra,8(sp)
    80000112:	0141                	addi	sp,sp,16
    80000114:	8082                	ret

0000000080000116 <_ZN5riscv8register5mtval5_read17hb20f3e2200709337E>:
    80000116:	1141                	addi	sp,sp,-16
    80000118:	34302573          	csrr	a0,mtval
    8000011c:	e42a                	sd	a0,8(sp)
    8000011e:	0141                	addi	sp,sp,16
    80000120:	8082                	ret

0000000080000122 <_ZN5riscv8register3mip10set_stimer17h5c60ba76c0efa414E>:
    80000122:	1141                	addi	sp,sp,-16
    80000124:	e406                	sd	ra,8(sp)
    80000126:	02000513          	li	a0,32
    8000012a:	00000097          	auipc	ra,0x0
    8000012e:	02c080e7          	jalr	44(ra) # 80000156 <_ZN5riscv8register3mip4_set17he59ff9381345a6b6E>
    80000132:	a009                	j	80000134 <_ZN5riscv8register3mip10set_stimer17h5c60ba76c0efa414E+0x12>
    80000134:	60a2                	ld	ra,8(sp)
    80000136:	0141                	addi	sp,sp,16
    80000138:	8082                	ret

000000008000013a <_ZN5riscv8register3mip3Mip5msoft17h3285e65344d45e42E>:
    8000013a:	1101                	addi	sp,sp,-32
    8000013c:	ec06                	sd	ra,24(sp)
    8000013e:	e82a                	sd	a0,16(sp)
    80000140:	458d                	li	a1,3
    80000142:	00005097          	auipc	ra,0x5
    80000146:	8ec080e7          	jalr	-1812(ra) # 80004a2e <_ZN45_$LT$usize$u20$as$u20$bit_field..BitField$GT$7get_bit17hdb4cc3b5adfe250fE>
    8000014a:	e42a                	sd	a0,8(sp)
    8000014c:	a009                	j	8000014e <_ZN5riscv8register3mip3Mip5msoft17h3285e65344d45e42E+0x14>
    8000014e:	6522                	ld	a0,8(sp)
    80000150:	60e2                	ld	ra,24(sp)
    80000152:	6105                	addi	sp,sp,32
    80000154:	8082                	ret

0000000080000156 <_ZN5riscv8register3mip4_set17he59ff9381345a6b6E>:
    80000156:	1141                	addi	sp,sp,-16
    80000158:	e42a                	sd	a0,8(sp)
    8000015a:	34452073          	csrs	mip,a0
    8000015e:	0141                	addi	sp,sp,16
    80000160:	8082                	ret

0000000080000162 <_ZN5riscv8register3mip4read17h4a8807f030724092E>:
    80000162:	1101                	addi	sp,sp,-32
    80000164:	ec06                	sd	ra,24(sp)
    80000166:	00000097          	auipc	ra,0x0
    8000016a:	016080e7          	jalr	22(ra) # 8000017c <_ZN5riscv8register3mip5_read17h368f246c828cb37eE>
    8000016e:	e42a                	sd	a0,8(sp)
    80000170:	a009                	j	80000172 <_ZN5riscv8register3mip4read17h4a8807f030724092E+0x10>
    80000172:	6522                	ld	a0,8(sp)
    80000174:	e82a                	sd	a0,16(sp)
    80000176:	60e2                	ld	ra,24(sp)
    80000178:	6105                	addi	sp,sp,32
    8000017a:	8082                	ret

000000008000017c <_ZN5riscv8register3mip5_read17h368f246c828cb37eE>:
    8000017c:	1141                	addi	sp,sp,-16
    8000017e:	34402573          	csrr	a0,mip
    80000182:	e42a                	sd	a0,8(sp)
    80000184:	0141                	addi	sp,sp,16
    80000186:	8082                	ret

0000000080000188 <_ZN5riscv8register3mip9set_ssoft17ha3755f42f6306752E>:
    80000188:	1141                	addi	sp,sp,-16
    8000018a:	e406                	sd	ra,8(sp)
    8000018c:	4509                	li	a0,2
    8000018e:	00000097          	auipc	ra,0x0
    80000192:	fc8080e7          	jalr	-56(ra) # 80000156 <_ZN5riscv8register3mip4_set17he59ff9381345a6b6E>
    80000196:	a009                	j	80000198 <_ZN5riscv8register3mip9set_ssoft17ha3755f42f6306752E+0x10>
    80000198:	60a2                	ld	ra,8(sp)
    8000019a:	0141                	addi	sp,sp,16
    8000019c:	8082                	ret

000000008000019e <_ZN5riscv8register5mtvec5write17h32bc8733131e6c4cE>:
    8000019e:	7179                	addi	sp,sp,-48
    800001a0:	f406                	sd	ra,40(sp)
    800001a2:	862e                	mv	a2,a1
    800001a4:	e82a                	sd	a0,16(sp)
    800001a6:	00b10fa3          	sb	a1,31(sp)
    800001aa:	95aa                	add	a1,a1,a0
    800001ac:	e42e                	sd	a1,8(sp)
    800001ae:	00a5ed63          	bltu	a1,a0,800001c8 <.LBB0_4>
    800001b2:	a009                	j	800001b4 <_ZN5riscv8register5mtvec5write17h32bc8733131e6c4cE+0x16>
    800001b4:	6522                	ld	a0,8(sp)
    800001b6:	f02a                	sd	a0,32(sp)
    800001b8:	00000097          	auipc	ra,0x0
    800001bc:	02c080e7          	jalr	44(ra) # 800001e4 <_ZN5riscv8register5mtvec6_write17h862cdfb361ce9f69E>
    800001c0:	a009                	j	800001c2 <_ZN5riscv8register5mtvec5write17h32bc8733131e6c4cE+0x24>
    800001c2:	70a2                	ld	ra,40(sp)
    800001c4:	6145                	addi	sp,sp,48
    800001c6:	8082                	ret

00000000800001c8 <.LBB0_4>:
    800001c8:	00015517          	auipc	a0,0x15
    800001cc:	d0850513          	addi	a0,a0,-760 # 80014ed0 <str.0>

00000000800001d0 <.LBB0_5>:
    800001d0:	00015617          	auipc	a2,0x15
    800001d4:	ce860613          	addi	a2,a2,-792 # 80014eb8 <.L__unnamed_1>
    800001d8:	45f1                	li	a1,28
    800001da:	00013097          	auipc	ra,0x13
    800001de:	9ce080e7          	jalr	-1586(ra) # 80012ba8 <_ZN4core9panicking5panic17h99ef985303ba2443E>
	...

00000000800001e4 <_ZN5riscv8register5mtvec6_write17h862cdfb361ce9f69E>:
    800001e4:	1141                	addi	sp,sp,-16
    800001e6:	e42a                	sd	a0,8(sp)
    800001e8:	30551073          	csrw	mtvec,a0
    800001ec:	0141                	addi	sp,sp,16
    800001ee:	8082                	ret

00000000800001f0 <_ZN45_$LT$usize$u20$as$u20$bit_field..BitField$GT$8set_bits17h80d2e79dbf270e01E>:
    800001f0:	7155                	addi	sp,sp,-208
    800001f2:	e586                	sd	ra,200(sp)
    800001f4:	e92e                	sd	a1,144(sp)
    800001f6:	ed32                	sd	a2,152(sp)
    800001f8:	f12a                	sd	a0,160(sp)
    800001fa:	f536                	sd	a3,168(sp)
    800001fc:	090c                	addi	a1,sp,144
    800001fe:	04000613          	li	a2,64
    80000202:	e52a                	sd	a0,136(sp)
    80000204:	852e                	mv	a0,a1
    80000206:	85b2                	mv	a1,a2
    80000208:	e136                	sd	a3,128(sp)
    8000020a:	00000097          	auipc	ra,0x0
    8000020e:	368080e7          	jalr	872(ra) # 80000572 <_ZN9bit_field16to_regular_range17h194c6c51366b7bafE>
    80000212:	862a                	mv	a2,a0
    80000214:	86ae                	mv	a3,a1
    80000216:	f92a                	sd	a0,176(sp)
    80000218:	fd2e                	sd	a1,184(sp)
    8000021a:	fcb2                	sd	a2,120(sp)
    8000021c:	f8b6                	sd	a3,112(sp)
    8000021e:	a009                	j	80000220 <_ZN45_$LT$usize$u20$as$u20$bit_field..BitField$GT$8set_bits17h80d2e79dbf270e01E+0x30>
    80000220:	03f00513          	li	a0,63
    80000224:	75e6                	ld	a1,120(sp)
    80000226:	00b56963          	bltu	a0,a1,80000238 <.LBB0_37>
    8000022a:	a009                	j	8000022c <_ZN45_$LT$usize$u20$as$u20$bit_field..BitField$GT$8set_bits17h80d2e79dbf270e01E+0x3c>
    8000022c:	04000513          	li	a0,64
    80000230:	75c6                	ld	a1,112(sp)
    80000232:	02b56763          	bltu	a0,a1,80000260 <.LBB0_39>
    80000236:	a005                	j	80000256 <.LBB0_38+0x16>

0000000080000238 <.LBB0_37>:
    80000238:	00015517          	auipc	a0,0x15
    8000023c:	cb450513          	addi	a0,a0,-844 # 80014eec <.L__unnamed_1>

0000000080000240 <.LBB0_38>:
    80000240:	00015617          	auipc	a2,0x15
    80000244:	d4860613          	addi	a2,a2,-696 # 80014f88 <.L__unnamed_2>
    80000248:	03000593          	li	a1,48
    8000024c:	00013097          	auipc	ra,0x13
    80000250:	95c080e7          	jalr	-1700(ra) # 80012ba8 <_ZN4core9panicking5panic17h99ef985303ba2443E>
    80000254:	0000                	unimp
    80000256:	7566                	ld	a0,120(sp)
    80000258:	75c6                	ld	a1,112(sp)
    8000025a:	02b57a63          	bgeu	a0,a1,8000028e <.LBB0_41>
    8000025e:	a005                	j	8000027e <.LBB0_40+0x16>

0000000080000260 <.LBB0_39>:
    80000260:	00015517          	auipc	a0,0x15
    80000264:	d4050513          	addi	a0,a0,-704 # 80014fa0 <.L__unnamed_3>

0000000080000268 <.LBB0_40>:
    80000268:	00015617          	auipc	a2,0x15
    8000026c:	d2060613          	addi	a2,a2,-736 # 80014f88 <.L__unnamed_2>
    80000270:	02f00593          	li	a1,47
    80000274:	00013097          	auipc	ra,0x13
    80000278:	934080e7          	jalr	-1740(ra) # 80012ba8 <_ZN4core9panicking5panic17h99ef985303ba2443E>
    8000027c:	0000                	unimp
    8000027e:	7546                	ld	a0,112(sp)
    80000280:	75e6                	ld	a1,120(sp)
    80000282:	40b50633          	sub	a2,a0,a1
    80000286:	f4b2                	sd	a2,104(sp)
    80000288:	16c56263          	bltu	a0,a2,800003ec <.LBB0_45>
    8000028c:	a005                	j	800002ac <.LBB0_42+0x16>

000000008000028e <.LBB0_41>:
    8000028e:	00015517          	auipc	a0,0x15
    80000292:	d4150513          	addi	a0,a0,-703 # 80014fcf <.L__unnamed_4>

0000000080000296 <.LBB0_42>:
    80000296:	00015617          	auipc	a2,0x15
    8000029a:	cf260613          	addi	a2,a2,-782 # 80014f88 <.L__unnamed_2>
    8000029e:	02900593          	li	a1,41
    800002a2:	00013097          	auipc	ra,0x13
    800002a6:	906080e7          	jalr	-1786(ra) # 80012ba8 <_ZN4core9panicking5panic17h99ef985303ba2443E>
    800002aa:	0000                	unimp
    800002ac:	04000513          	li	a0,64
    800002b0:	75a6                	ld	a1,104(sp)
    800002b2:	40b50633          	sub	a2,a0,a1
    800002b6:	f0b2                	sd	a2,96(sp)
    800002b8:	14c56963          	bltu	a0,a2,8000040a <.LBB0_47>
    800002bc:	a009                	j	800002be <.LBB0_42+0x28>
    800002be:	7506                	ld	a0,96(sp)
    800002c0:	fc057593          	andi	a1,a0,-64
    800002c4:	660a                	ld	a2,128(sp)
    800002c6:	00a616b3          	sll	a3,a2,a0
    800002ca:	4701                	li	a4,0
    800002cc:	ecb6                	sd	a3,88(sp)
    800002ce:	14e59d63          	bne	a1,a4,80000428 <.LBB0_49>
    800002d2:	a009                	j	800002d4 <.LBB0_42+0x3e>
    800002d4:	7546                	ld	a0,112(sp)
    800002d6:	75e6                	ld	a1,120(sp)
    800002d8:	40b50633          	sub	a2,a0,a1
    800002dc:	e8b2                	sd	a2,80(sp)
    800002de:	16c56463          	bltu	a0,a2,80000446 <.LBB0_51>
    800002e2:	a009                	j	800002e4 <.LBB0_42+0x4e>
    800002e4:	04000513          	li	a0,64
    800002e8:	65c6                	ld	a1,80(sp)
    800002ea:	40b50633          	sub	a2,a0,a1
    800002ee:	e4b2                	sd	a2,72(sp)
    800002f0:	16c56a63          	bltu	a0,a2,80000464 <.LBB0_53>
    800002f4:	a009                	j	800002f6 <.LBB0_42+0x60>
    800002f6:	6526                	ld	a0,72(sp)
    800002f8:	fc057593          	andi	a1,a0,-64
    800002fc:	6666                	ld	a2,88(sp)
    800002fe:	00a656b3          	srl	a3,a2,a0
    80000302:	4701                	li	a4,0
    80000304:	e0b6                	sd	a3,64(sp)
    80000306:	16e59e63          	bne	a1,a4,80000482 <.LBB0_55>
    8000030a:	a009                	j	8000030c <.LBB0_42+0x76>
    8000030c:	6506                	ld	a0,64(sp)
    8000030e:	658a                	ld	a1,128(sp)
    80000310:	00b51c63          	bne	a0,a1,80000328 <.LBB0_43>
    80000314:	a009                	j	80000316 <.LBB0_42+0x80>
    80000316:	04000513          	li	a0,64
    8000031a:	75c6                	ld	a1,112(sp)
    8000031c:	40b50633          	sub	a2,a0,a1
    80000320:	fc32                	sd	a2,56(sp)
    80000322:	16c56f63          	bltu	a0,a2,800004a0 <.LBB0_57>
    80000326:	a005                	j	80000346 <.LBB0_44+0x16>

0000000080000328 <.LBB0_43>:
    80000328:	00015517          	auipc	a0,0x15
    8000032c:	d5c50513          	addi	a0,a0,-676 # 80015084 <.L__unnamed_5>

0000000080000330 <.LBB0_44>:
    80000330:	00015617          	auipc	a2,0x15
    80000334:	c5860613          	addi	a2,a2,-936 # 80014f88 <.L__unnamed_2>
    80000338:	02100593          	li	a1,33
    8000033c:	00013097          	auipc	ra,0x13
    80000340:	86c080e7          	jalr	-1940(ra) # 80012ba8 <_ZN4core9panicking5panic17h99ef985303ba2443E>
    80000344:	0000                	unimp
    80000346:	7562                	ld	a0,56(sp)
    80000348:	fc057593          	andi	a1,a0,-64
    8000034c:	567d                	li	a2,-1
    8000034e:	00a61633          	sll	a2,a2,a0
    80000352:	4681                	li	a3,0
    80000354:	f832                	sd	a2,48(sp)
    80000356:	16d59463          	bne	a1,a3,800004be <.LBB0_59>
    8000035a:	a009                	j	8000035c <.LBB0_44+0x2c>
    8000035c:	04000513          	li	a0,64
    80000360:	75c6                	ld	a1,112(sp)
    80000362:	40b50633          	sub	a2,a0,a1
    80000366:	f432                	sd	a2,40(sp)
    80000368:	16c56a63          	bltu	a0,a2,800004dc <.LBB0_61>
    8000036c:	a009                	j	8000036e <.LBB0_44+0x3e>
    8000036e:	7522                	ld	a0,40(sp)
    80000370:	fc057593          	andi	a1,a0,-64
    80000374:	7642                	ld	a2,48(sp)
    80000376:	00a656b3          	srl	a3,a2,a0
    8000037a:	4701                	li	a4,0
    8000037c:	f036                	sd	a3,32(sp)
    8000037e:	16e59e63          	bne	a1,a4,800004fa <.LBB0_63>
    80000382:	a009                	j	80000384 <.LBB0_44+0x54>
    80000384:	7566                	ld	a0,120(sp)
    80000386:	fc057593          	andi	a1,a0,-64
    8000038a:	7602                	ld	a2,32(sp)
    8000038c:	00a656b3          	srl	a3,a2,a0
    80000390:	4701                	li	a4,0
    80000392:	ec36                	sd	a3,24(sp)
    80000394:	18e59263          	bne	a1,a4,80000518 <.LBB0_65>
    80000398:	a009                	j	8000039a <.LBB0_44+0x6a>
    8000039a:	7566                	ld	a0,120(sp)
    8000039c:	fc057593          	andi	a1,a0,-64
    800003a0:	6662                	ld	a2,24(sp)
    800003a2:	00a616b3          	sll	a3,a2,a0
    800003a6:	4701                	li	a4,0
    800003a8:	e836                	sd	a3,16(sp)
    800003aa:	18e59663          	bne	a1,a4,80000536 <.LBB0_67>
    800003ae:	a009                	j	800003b0 <.LBB0_44+0x80>
    800003b0:	6542                	ld	a0,16(sp)
    800003b2:	fff54593          	not	a1,a0
    800003b6:	e1ae                	sd	a1,192(sp)
    800003b8:	662a                	ld	a2,136(sp)
    800003ba:	6214                	ld	a3,0(a2)
    800003bc:	8df5                	and	a1,a1,a3
    800003be:	76e6                	ld	a3,120(sp)
    800003c0:	fc06f713          	andi	a4,a3,-64
    800003c4:	678a                	ld	a5,128(sp)
    800003c6:	00d79833          	sll	a6,a5,a3
    800003ca:	4881                	li	a7,0
    800003cc:	e42e                	sd	a1,8(sp)
    800003ce:	e042                	sd	a6,0(sp)
    800003d0:	19171263          	bne	a4,a7,80000554 <.LBB0_69>
    800003d4:	a009                	j	800003d6 <.LBB0_44+0xa6>
    800003d6:	6522                	ld	a0,8(sp)
    800003d8:	6582                	ld	a1,0(sp)
    800003da:	00b56633          	or	a2,a0,a1
    800003de:	66aa                	ld	a3,136(sp)
    800003e0:	e290                	sd	a2,0(a3)
    800003e2:	a009                	j	800003e4 <.LBB0_44+0xb4>
    800003e4:	652a                	ld	a0,136(sp)
    800003e6:	60ae                	ld	ra,200(sp)
    800003e8:	6169                	addi	sp,sp,208
    800003ea:	8082                	ret

00000000800003ec <.LBB0_45>:
    800003ec:	00015517          	auipc	a0,0x15
    800003f0:	c1450513          	addi	a0,a0,-1004 # 80015000 <str.0>

00000000800003f4 <.LBB0_46>:
    800003f4:	00015617          	auipc	a2,0x15
    800003f8:	b9460613          	addi	a2,a2,-1132 # 80014f88 <.L__unnamed_2>
    800003fc:	02100593          	li	a1,33
    80000400:	00012097          	auipc	ra,0x12
    80000404:	7a8080e7          	jalr	1960(ra) # 80012ba8 <_ZN4core9panicking5panic17h99ef985303ba2443E>
	...

000000008000040a <.LBB0_47>:
    8000040a:	00015517          	auipc	a0,0x15
    8000040e:	bf650513          	addi	a0,a0,-1034 # 80015000 <str.0>

0000000080000412 <.LBB0_48>:
    80000412:	00015617          	auipc	a2,0x15
    80000416:	b7660613          	addi	a2,a2,-1162 # 80014f88 <.L__unnamed_2>
    8000041a:	02100593          	li	a1,33
    8000041e:	00012097          	auipc	ra,0x12
    80000422:	78a080e7          	jalr	1930(ra) # 80012ba8 <_ZN4core9panicking5panic17h99ef985303ba2443E>
	...

0000000080000428 <.LBB0_49>:
    80000428:	00015517          	auipc	a0,0x15
    8000042c:	c0850513          	addi	a0,a0,-1016 # 80015030 <str.1>

0000000080000430 <.LBB0_50>:
    80000430:	00015617          	auipc	a2,0x15
    80000434:	b5860613          	addi	a2,a2,-1192 # 80014f88 <.L__unnamed_2>
    80000438:	02300593          	li	a1,35
    8000043c:	00012097          	auipc	ra,0x12
    80000440:	76c080e7          	jalr	1900(ra) # 80012ba8 <_ZN4core9panicking5panic17h99ef985303ba2443E>
	...

0000000080000446 <.LBB0_51>:
    80000446:	00015517          	auipc	a0,0x15
    8000044a:	bba50513          	addi	a0,a0,-1094 # 80015000 <str.0>

000000008000044e <.LBB0_52>:
    8000044e:	00015617          	auipc	a2,0x15
    80000452:	b3a60613          	addi	a2,a2,-1222 # 80014f88 <.L__unnamed_2>
    80000456:	02100593          	li	a1,33
    8000045a:	00012097          	auipc	ra,0x12
    8000045e:	74e080e7          	jalr	1870(ra) # 80012ba8 <_ZN4core9panicking5panic17h99ef985303ba2443E>
	...

0000000080000464 <.LBB0_53>:
    80000464:	00015517          	auipc	a0,0x15
    80000468:	b9c50513          	addi	a0,a0,-1124 # 80015000 <str.0>

000000008000046c <.LBB0_54>:
    8000046c:	00015617          	auipc	a2,0x15
    80000470:	b1c60613          	addi	a2,a2,-1252 # 80014f88 <.L__unnamed_2>
    80000474:	02100593          	li	a1,33
    80000478:	00012097          	auipc	ra,0x12
    8000047c:	730080e7          	jalr	1840(ra) # 80012ba8 <_ZN4core9panicking5panic17h99ef985303ba2443E>
	...

0000000080000482 <.LBB0_55>:
    80000482:	00015517          	auipc	a0,0x15
    80000486:	bde50513          	addi	a0,a0,-1058 # 80015060 <str.2>

000000008000048a <.LBB0_56>:
    8000048a:	00015617          	auipc	a2,0x15
    8000048e:	afe60613          	addi	a2,a2,-1282 # 80014f88 <.L__unnamed_2>
    80000492:	02400593          	li	a1,36
    80000496:	00012097          	auipc	ra,0x12
    8000049a:	712080e7          	jalr	1810(ra) # 80012ba8 <_ZN4core9panicking5panic17h99ef985303ba2443E>
	...

00000000800004a0 <.LBB0_57>:
    800004a0:	00015517          	auipc	a0,0x15
    800004a4:	b6050513          	addi	a0,a0,-1184 # 80015000 <str.0>

00000000800004a8 <.LBB0_58>:
    800004a8:	00015617          	auipc	a2,0x15
    800004ac:	ae060613          	addi	a2,a2,-1312 # 80014f88 <.L__unnamed_2>
    800004b0:	02100593          	li	a1,33
    800004b4:	00012097          	auipc	ra,0x12
    800004b8:	6f4080e7          	jalr	1780(ra) # 80012ba8 <_ZN4core9panicking5panic17h99ef985303ba2443E>
	...

00000000800004be <.LBB0_59>:
    800004be:	00015517          	auipc	a0,0x15
    800004c2:	b7250513          	addi	a0,a0,-1166 # 80015030 <str.1>

00000000800004c6 <.LBB0_60>:
    800004c6:	00015617          	auipc	a2,0x15
    800004ca:	ac260613          	addi	a2,a2,-1342 # 80014f88 <.L__unnamed_2>
    800004ce:	02300593          	li	a1,35
    800004d2:	00012097          	auipc	ra,0x12
    800004d6:	6d6080e7          	jalr	1750(ra) # 80012ba8 <_ZN4core9panicking5panic17h99ef985303ba2443E>
	...

00000000800004dc <.LBB0_61>:
    800004dc:	00015517          	auipc	a0,0x15
    800004e0:	b2450513          	addi	a0,a0,-1244 # 80015000 <str.0>

00000000800004e4 <.LBB0_62>:
    800004e4:	00015617          	auipc	a2,0x15
    800004e8:	aa460613          	addi	a2,a2,-1372 # 80014f88 <.L__unnamed_2>
    800004ec:	02100593          	li	a1,33
    800004f0:	00012097          	auipc	ra,0x12
    800004f4:	6b8080e7          	jalr	1720(ra) # 80012ba8 <_ZN4core9panicking5panic17h99ef985303ba2443E>
	...

00000000800004fa <.LBB0_63>:
    800004fa:	00015517          	auipc	a0,0x15
    800004fe:	b6650513          	addi	a0,a0,-1178 # 80015060 <str.2>

0000000080000502 <.LBB0_64>:
    80000502:	00015617          	auipc	a2,0x15
    80000506:	a8660613          	addi	a2,a2,-1402 # 80014f88 <.L__unnamed_2>
    8000050a:	02400593          	li	a1,36
    8000050e:	00012097          	auipc	ra,0x12
    80000512:	69a080e7          	jalr	1690(ra) # 80012ba8 <_ZN4core9panicking5panic17h99ef985303ba2443E>
	...

0000000080000518 <.LBB0_65>:
    80000518:	00015517          	auipc	a0,0x15
    8000051c:	b4850513          	addi	a0,a0,-1208 # 80015060 <str.2>

0000000080000520 <.LBB0_66>:
    80000520:	00015617          	auipc	a2,0x15
    80000524:	a6860613          	addi	a2,a2,-1432 # 80014f88 <.L__unnamed_2>
    80000528:	02400593          	li	a1,36
    8000052c:	00012097          	auipc	ra,0x12
    80000530:	67c080e7          	jalr	1660(ra) # 80012ba8 <_ZN4core9panicking5panic17h99ef985303ba2443E>
	...

0000000080000536 <.LBB0_67>:
    80000536:	00015517          	auipc	a0,0x15
    8000053a:	afa50513          	addi	a0,a0,-1286 # 80015030 <str.1>

000000008000053e <.LBB0_68>:
    8000053e:	00015617          	auipc	a2,0x15
    80000542:	a4a60613          	addi	a2,a2,-1462 # 80014f88 <.L__unnamed_2>
    80000546:	02300593          	li	a1,35
    8000054a:	00012097          	auipc	ra,0x12
    8000054e:	65e080e7          	jalr	1630(ra) # 80012ba8 <_ZN4core9panicking5panic17h99ef985303ba2443E>
	...

0000000080000554 <.LBB0_69>:
    80000554:	00015517          	auipc	a0,0x15
    80000558:	adc50513          	addi	a0,a0,-1316 # 80015030 <str.1>

000000008000055c <.LBB0_70>:
    8000055c:	00015617          	auipc	a2,0x15
    80000560:	a2c60613          	addi	a2,a2,-1492 # 80014f88 <.L__unnamed_2>
    80000564:	02300593          	li	a1,35
    80000568:	00012097          	auipc	ra,0x12
    8000056c:	640080e7          	jalr	1600(ra) # 80012ba8 <_ZN4core9panicking5panic17h99ef985303ba2443E>
	...

0000000080000572 <_ZN9bit_field16to_regular_range17h194c6c51366b7bafE>:
    80000572:	7171                	addi	sp,sp,-176
    80000574:	f506                	sd	ra,168(sp)
    80000576:	fcaa                	sd	a0,120(sp)
    80000578:	e12e                	sd	a1,128(sp)
    8000057a:	f82a                	sd	a0,48(sp)
    8000057c:	f42e                	sd	a1,40(sp)
    8000057e:	00003097          	auipc	ra,0x3
    80000582:	244080e7          	jalr	580(ra) # 800037c2 <_ZN91_$LT$core..ops..range..Range$LT$T$GT$$u20$as$u20$core..ops..range..RangeBounds$LT$T$GT$$GT$11start_bound17hb92ffd1119acca75E>
    80000586:	e8aa                	sd	a0,80(sp)
    80000588:	ecae                	sd	a1,88(sp)
    8000058a:	a009                	j	8000058c <_ZN9bit_field16to_regular_range17h194c6c51366b7bafE+0x1a>
    8000058c:	6546                	ld	a0,80(sp)
    8000058e:	4581                	li	a1,0
    80000590:	f02a                	sd	a0,32(sp)
    80000592:	02b50863          	beq	a0,a1,800005c2 <_ZN9bit_field16to_regular_range17h194c6c51366b7bafE+0x50>
    80000596:	a009                	j	80000598 <_ZN9bit_field16to_regular_range17h194c6c51366b7bafE+0x26>
    80000598:	4505                	li	a0,1
    8000059a:	7582                	ld	a1,32(sp)
    8000059c:	00a58763          	beq	a1,a0,800005aa <_ZN9bit_field16to_regular_range17h194c6c51366b7bafE+0x38>
    800005a0:	a009                	j	800005a2 <_ZN9bit_field16to_regular_range17h194c6c51366b7bafE+0x30>
    800005a2:	4501                	li	a0,0
    800005a4:	e4aa                	sd	a0,72(sp)
    800005a6:	a01d                	j	800005cc <_ZN9bit_field16to_regular_range17h194c6c51366b7bafE+0x5a>
    800005a8:	0000                	unimp
    800005aa:	6566                	ld	a0,88(sp)
    800005ac:	6108                	ld	a0,0(a0)
    800005ae:	e52a                	sd	a0,136(sp)
    800005b0:	00150593          	addi	a1,a0,1
    800005b4:	ec2e                	sd	a1,24(sp)
    800005b6:	06a5ea63          	bltu	a1,a0,8000062a <.LBB1_21>
    800005ba:	a009                	j	800005bc <_ZN9bit_field16to_regular_range17h194c6c51366b7bafE+0x4a>
    800005bc:	6562                	ld	a0,24(sp)
    800005be:	e4aa                	sd	a0,72(sp)
    800005c0:	a031                	j	800005cc <_ZN9bit_field16to_regular_range17h194c6c51366b7bafE+0x5a>
    800005c2:	6566                	ld	a0,88(sp)
    800005c4:	6108                	ld	a0,0(a0)
    800005c6:	e92a                	sd	a0,144(sp)
    800005c8:	e4aa                	sd	a0,72(sp)
    800005ca:	a009                	j	800005cc <_ZN9bit_field16to_regular_range17h194c6c51366b7bafE+0x5a>
    800005cc:	7542                	ld	a0,48(sp)
    800005ce:	00003097          	auipc	ra,0x3
    800005d2:	208080e7          	jalr	520(ra) # 800037d6 <_ZN91_$LT$core..ops..range..Range$LT$T$GT$$u20$as$u20$core..ops..range..RangeBounds$LT$T$GT$$GT$9end_bound17h4536089aded8e66fE>
    800005d6:	f4aa                	sd	a0,104(sp)
    800005d8:	f8ae                	sd	a1,112(sp)
    800005da:	a009                	j	800005dc <_ZN9bit_field16to_regular_range17h194c6c51366b7bafE+0x6a>
    800005dc:	7526                	ld	a0,104(sp)
    800005de:	4581                	li	a1,0
    800005e0:	e82a                	sd	a0,16(sp)
    800005e2:	02b50163          	beq	a0,a1,80000604 <_ZN9bit_field16to_regular_range17h194c6c51366b7bafE+0x92>
    800005e6:	a009                	j	800005e8 <_ZN9bit_field16to_regular_range17h194c6c51366b7bafE+0x76>
    800005e8:	4505                	li	a0,1
    800005ea:	65c2                	ld	a1,16(sp)
    800005ec:	00a58763          	beq	a1,a0,800005fa <_ZN9bit_field16to_regular_range17h194c6c51366b7bafE+0x88>
    800005f0:	a009                	j	800005f2 <_ZN9bit_field16to_regular_range17h194c6c51366b7bafE+0x80>
    800005f2:	7522                	ld	a0,40(sp)
    800005f4:	f0aa                	sd	a0,96(sp)
    800005f6:	a01d                	j	8000061c <_ZN9bit_field16to_regular_range17h194c6c51366b7bafE+0xaa>
    800005f8:	0000                	unimp
    800005fa:	7546                	ld	a0,112(sp)
    800005fc:	6108                	ld	a0,0(a0)
    800005fe:	ed2a                	sd	a0,152(sp)
    80000600:	f0aa                	sd	a0,96(sp)
    80000602:	a829                	j	8000061c <_ZN9bit_field16to_regular_range17h194c6c51366b7bafE+0xaa>
    80000604:	7546                	ld	a0,112(sp)
    80000606:	6108                	ld	a0,0(a0)
    80000608:	f12a                	sd	a0,160(sp)
    8000060a:	00150593          	addi	a1,a0,1
    8000060e:	e42e                	sd	a1,8(sp)
    80000610:	02a5eb63          	bltu	a1,a0,80000646 <.LBB1_23>
    80000614:	a009                	j	80000616 <_ZN9bit_field16to_regular_range17h194c6c51366b7bafE+0xa4>
    80000616:	6522                	ld	a0,8(sp)
    80000618:	f0aa                	sd	a0,96(sp)
    8000061a:	a009                	j	8000061c <_ZN9bit_field16to_regular_range17h194c6c51366b7bafE+0xaa>
    8000061c:	6526                	ld	a0,72(sp)
    8000061e:	7586                	ld	a1,96(sp)
    80000620:	fc2a                	sd	a0,56(sp)
    80000622:	e0ae                	sd	a1,64(sp)
    80000624:	70aa                	ld	ra,168(sp)
    80000626:	614d                	addi	sp,sp,176
    80000628:	8082                	ret

000000008000062a <.LBB1_21>:
    8000062a:	00015517          	auipc	a0,0x15
    8000062e:	a9650513          	addi	a0,a0,-1386 # 800150c0 <str.3>

0000000080000632 <.LBB1_22>:
    80000632:	00015617          	auipc	a2,0x15
    80000636:	a7660613          	addi	a2,a2,-1418 # 800150a8 <.L__unnamed_6>
    8000063a:	45f1                	li	a1,28
    8000063c:	00012097          	auipc	ra,0x12
    80000640:	56c080e7          	jalr	1388(ra) # 80012ba8 <_ZN4core9panicking5panic17h99ef985303ba2443E>
	...

0000000080000646 <.LBB1_23>:
    80000646:	00015517          	auipc	a0,0x15
    8000064a:	a7a50513          	addi	a0,a0,-1414 # 800150c0 <str.3>

000000008000064e <.LBB1_24>:
    8000064e:	00015617          	auipc	a2,0x15
    80000652:	a9260613          	addi	a2,a2,-1390 # 800150e0 <.L__unnamed_7>
    80000656:	45f1                	li	a1,28
    80000658:	00012097          	auipc	ra,0x12
    8000065c:	550080e7          	jalr	1360(ra) # 80012ba8 <_ZN4core9panicking5panic17h99ef985303ba2443E>
	...

0000000080000662 <_ZN5alloc5alloc12alloc_zeroed17h3bb41c73544c3966E>:
    80000662:	7179                	addi	sp,sp,-48
    80000664:	f406                	sd	ra,40(sp)
    80000666:	ec2a                	sd	a0,24(sp)
    80000668:	f02e                	sd	a1,32(sp)
    8000066a:	0828                	addi	a0,sp,24
    8000066c:	00005097          	auipc	ra,0x5
    80000670:	d7a080e7          	jalr	-646(ra) # 800053e6 <_ZN4core5alloc6layout6Layout4size17h52610e501190f4ebE>
    80000674:	e82a                	sd	a0,16(sp)
    80000676:	a009                	j	80000678 <_ZN5alloc5alloc12alloc_zeroed17h3bb41c73544c3966E+0x16>
    80000678:	0828                	addi	a0,sp,24
    8000067a:	00005097          	auipc	ra,0x5
    8000067e:	d76080e7          	jalr	-650(ra) # 800053f0 <_ZN4core5alloc6layout6Layout5align17h976a967bd9010f77E>
    80000682:	e42a                	sd	a0,8(sp)
    80000684:	a009                	j	80000686 <_ZN5alloc5alloc12alloc_zeroed17h3bb41c73544c3966E+0x24>
    80000686:	6542                	ld	a0,16(sp)
    80000688:	65a2                	ld	a1,8(sp)
    8000068a:	00005097          	auipc	ra,0x5
    8000068e:	232080e7          	jalr	562(ra) # 800058bc <__rust_alloc_zeroed>
    80000692:	e02a                	sd	a0,0(sp)
    80000694:	a009                	j	80000696 <_ZN5alloc5alloc12alloc_zeroed17h3bb41c73544c3966E+0x34>
    80000696:	6502                	ld	a0,0(sp)
    80000698:	70a2                	ld	ra,40(sp)
    8000069a:	6145                	addi	sp,sp,48
    8000069c:	8082                	ret

000000008000069e <_ZN5alloc5alloc15exchange_malloc17hf701cd44aa49ffd7E>:
    8000069e:	7159                	addi	sp,sp,-112
    800006a0:	f486                	sd	ra,104(sp)
    800006a2:	fc2a                	sd	a0,56(sp)
    800006a4:	e0ae                	sd	a1,64(sp)
    800006a6:	00005097          	auipc	ra,0x5
    800006aa:	d1a080e7          	jalr	-742(ra) # 800053c0 <_ZN4core5alloc6layout6Layout25from_size_align_unchecked17h3b9a37ad7bf2e3afE>
    800006ae:	862a                	mv	a2,a0
    800006b0:	86ae                	mv	a3,a1
    800006b2:	e4aa                	sd	a0,72(sp)
    800006b4:	e8ae                	sd	a1,80(sp)
    800006b6:	ec32                	sd	a2,24(sp)
    800006b8:	e836                	sd	a3,16(sp)
    800006ba:	a009                	j	800006bc <_ZN5alloc5alloc15exchange_malloc17hf701cd44aa49ffd7E+0x1e>
    800006bc:	1808                	addi	a0,sp,48
    800006be:	4581                	li	a1,0
    800006c0:	6662                	ld	a2,24(sp)
    800006c2:	e42e                	sd	a1,8(sp)
    800006c4:	85b2                	mv	a1,a2
    800006c6:	6642                	ld	a2,16(sp)
    800006c8:	66a2                	ld	a3,8(sp)
    800006ca:	00000097          	auipc	ra,0x0
    800006ce:	084080e7          	jalr	132(ra) # 8000074e <_ZN62_$LT$alloc..alloc..Global$u20$as$u20$core..alloc..AllocRef$GT$5alloc17hf336d1c0a6aff3e9E>
    800006d2:	f02a                	sd	a0,32(sp)
    800006d4:	f42e                	sd	a1,40(sp)
    800006d6:	a009                	j	800006d8 <_ZN5alloc5alloc15exchange_malloc17hf701cd44aa49ffd7E+0x3a>
    800006d8:	7502                	ld	a0,32(sp)
    800006da:	00153593          	seqz	a1,a0
    800006de:	4601                	li	a2,0
    800006e0:	00c51b63          	bne	a0,a2,800006f6 <_ZN5alloc5alloc15exchange_malloc17hf701cd44aa49ffd7E+0x58>
    800006e4:	a009                	j	800006e6 <_ZN5alloc5alloc15exchange_malloc17hf701cd44aa49ffd7E+0x48>
    800006e6:	6562                	ld	a0,24(sp)
    800006e8:	65c2                	ld	a1,16(sp)
    800006ea:	00012097          	auipc	ra,0x12
    800006ee:	06c080e7          	jalr	108(ra) # 80012756 <_ZN5alloc5alloc18handle_alloc_error17h8489810a59d7570fE>
    800006f2:	0000                	unimp
    800006f4:	0000                	unimp
    800006f6:	7502                	ld	a0,32(sp)
    800006f8:	75a2                	ld	a1,40(sp)
    800006fa:	ecaa                	sd	a0,88(sp)
    800006fc:	f0ae                	sd	a1,96(sp)
    800006fe:	00012097          	auipc	ra,0x12
    80000702:	0b6080e7          	jalr	182(ra) # 800127b4 <_ZN4core3ptr8non_null16NonNull$LT$T$GT$6as_ptr17h14b5e29ee7f35af8E>
    80000706:	e02a                	sd	a0,0(sp)
    80000708:	a009                	j	8000070a <_ZN5alloc5alloc15exchange_malloc17hf701cd44aa49ffd7E+0x6c>
    8000070a:	6502                	ld	a0,0(sp)
    8000070c:	70a6                	ld	ra,104(sp)
    8000070e:	6165                	addi	sp,sp,112
    80000710:	8082                	ret

0000000080000712 <_ZN5alloc5alloc5alloc17h2c5a71bebcf84c02E>:
    80000712:	7179                	addi	sp,sp,-48
    80000714:	f406                	sd	ra,40(sp)
    80000716:	ec2a                	sd	a0,24(sp)
    80000718:	f02e                	sd	a1,32(sp)
    8000071a:	0828                	addi	a0,sp,24
    8000071c:	00005097          	auipc	ra,0x5
    80000720:	cca080e7          	jalr	-822(ra) # 800053e6 <_ZN4core5alloc6layout6Layout4size17h52610e501190f4ebE>
    80000724:	e82a                	sd	a0,16(sp)
    80000726:	a009                	j	80000728 <_ZN5alloc5alloc5alloc17h2c5a71bebcf84c02E+0x16>
    80000728:	0828                	addi	a0,sp,24
    8000072a:	00005097          	auipc	ra,0x5
    8000072e:	cc6080e7          	jalr	-826(ra) # 800053f0 <_ZN4core5alloc6layout6Layout5align17h976a967bd9010f77E>
    80000732:	e42a                	sd	a0,8(sp)
    80000734:	a009                	j	80000736 <_ZN5alloc5alloc5alloc17h2c5a71bebcf84c02E+0x24>
    80000736:	6542                	ld	a0,16(sp)
    80000738:	65a2                	ld	a1,8(sp)
    8000073a:	00005097          	auipc	ra,0x5
    8000073e:	16a080e7          	jalr	362(ra) # 800058a4 <__rust_alloc>
    80000742:	e02a                	sd	a0,0(sp)
    80000744:	a009                	j	80000746 <_ZN5alloc5alloc5alloc17h2c5a71bebcf84c02E+0x34>
    80000746:	6502                	ld	a0,0(sp)
    80000748:	70a2                	ld	ra,40(sp)
    8000074a:	6145                	addi	sp,sp,48
    8000074c:	8082                	ret

000000008000074e <_ZN62_$LT$alloc..alloc..Global$u20$as$u20$core..alloc..AllocRef$GT$5alloc17hf336d1c0a6aff3e9E>:
    8000074e:	7171                	addi	sp,sp,-176
    80000750:	f506                	sd	ra,168(sp)
    80000752:	8736                	mv	a4,a3
    80000754:	f42e                	sd	a1,40(sp)
    80000756:	f832                	sd	a2,48(sp)
    80000758:	02d10fa3          	sb	a3,63(sp)
    8000075c:	e12a                	sd	a0,128(sp)
    8000075e:	1028                	addi	a0,sp,40
    80000760:	f03a                	sd	a4,32(sp)
    80000762:	00005097          	auipc	ra,0x5
    80000766:	c84080e7          	jalr	-892(ra) # 800053e6 <_ZN4core5alloc6layout6Layout4size17h52610e501190f4ebE>
    8000076a:	85aa                	mv	a1,a0
    8000076c:	e92a                	sd	a0,144(sp)
    8000076e:	ec2e                	sd	a1,24(sp)
    80000770:	a009                	j	80000772 <_ZN62_$LT$alloc..alloc..Global$u20$as$u20$core..alloc..AllocRef$GT$5alloc17hf336d1c0a6aff3e9E+0x24>
    80000772:	4501                	li	a0,0
    80000774:	65e2                	ld	a1,24(sp)
    80000776:	00a58b63          	beq	a1,a0,8000078c <_ZN62_$LT$alloc..alloc..Global$u20$as$u20$core..alloc..AllocRef$GT$5alloc17hf336d1c0a6aff3e9E+0x3e>
    8000077a:	a009                	j	8000077c <_ZN62_$LT$alloc..alloc..Global$u20$as$u20$core..alloc..AllocRef$GT$5alloc17hf336d1c0a6aff3e9E+0x2e>
    8000077c:	03f14503          	lbu	a0,63(sp)
    80000780:	8905                	andi	a0,a0,1
    80000782:	4581                	li	a1,0
    80000784:	02b50b63          	beq	a0,a1,800007ba <_ZN62_$LT$alloc..alloc..Global$u20$as$u20$core..alloc..AllocRef$GT$5alloc17hf336d1c0a6aff3e9E+0x6c>
    80000788:	a009                	j	8000078a <_ZN62_$LT$alloc..alloc..Global$u20$as$u20$core..alloc..AllocRef$GT$5alloc17hf336d1c0a6aff3e9E+0x3c>
    8000078a:	a839                	j	800007a8 <_ZN62_$LT$alloc..alloc..Global$u20$as$u20$core..alloc..AllocRef$GT$5alloc17hf336d1c0a6aff3e9E+0x5a>
    8000078c:	1028                	addi	a0,sp,40
    8000078e:	00005097          	auipc	ra,0x5
    80000792:	c7e080e7          	jalr	-898(ra) # 8000540c <_ZN4core5alloc6layout6Layout8dangling17h824ecf2b5d1e5ee3E>
    80000796:	e82a                	sd	a0,16(sp)
    80000798:	a009                	j	8000079a <_ZN62_$LT$alloc..alloc..Global$u20$as$u20$core..alloc..AllocRef$GT$5alloc17hf336d1c0a6aff3e9E+0x4c>
    8000079a:	6542                	ld	a0,16(sp)
    8000079c:	e8aa                	sd	a0,80(sp)
    8000079e:	4581                	li	a1,0
    800007a0:	ecae                	sd	a1,88(sp)
    800007a2:	e0aa                	sd	a0,64(sp)
    800007a4:	e4ae                	sd	a1,72(sp)
    800007a6:	a869                	j	80000840 <_ZN62_$LT$alloc..alloc..Global$u20$as$u20$core..alloc..AllocRef$GT$5alloc17hf336d1c0a6aff3e9E+0xf2>
    800007a8:	7522                	ld	a0,40(sp)
    800007aa:	75c2                	ld	a1,48(sp)
    800007ac:	00000097          	auipc	ra,0x0
    800007b0:	eb6080e7          	jalr	-330(ra) # 80000662 <_ZN5alloc5alloc12alloc_zeroed17h3bb41c73544c3966E>
    800007b4:	f0aa                	sd	a0,96(sp)
    800007b6:	a819                	j	800007cc <_ZN62_$LT$alloc..alloc..Global$u20$as$u20$core..alloc..AllocRef$GT$5alloc17hf336d1c0a6aff3e9E+0x7e>
    800007b8:	0000                	unimp
    800007ba:	7522                	ld	a0,40(sp)
    800007bc:	75c2                	ld	a1,48(sp)
    800007be:	00000097          	auipc	ra,0x0
    800007c2:	f54080e7          	jalr	-172(ra) # 80000712 <_ZN5alloc5alloc5alloc17h2c5a71bebcf84c02E>
    800007c6:	f0aa                	sd	a0,96(sp)
    800007c8:	a009                	j	800007ca <_ZN62_$LT$alloc..alloc..Global$u20$as$u20$core..alloc..AllocRef$GT$5alloc17hf336d1c0a6aff3e9E+0x7c>
    800007ca:	a011                	j	800007ce <_ZN62_$LT$alloc..alloc..Global$u20$as$u20$core..alloc..AllocRef$GT$5alloc17hf336d1c0a6aff3e9E+0x80>
    800007cc:	a009                	j	800007ce <_ZN62_$LT$alloc..alloc..Global$u20$as$u20$core..alloc..AllocRef$GT$5alloc17hf336d1c0a6aff3e9E+0x80>
    800007ce:	7506                	ld	a0,96(sp)
    800007d0:	0000b097          	auipc	ra,0xb
    800007d4:	54c080e7          	jalr	1356(ra) # 8000bd1c <_ZN4core3ptr8non_null16NonNull$LT$T$GT$3new17h08f19c36243e9a86E>
    800007d8:	e42a                	sd	a0,8(sp)
    800007da:	a009                	j	800007dc <_ZN62_$LT$alloc..alloc..Global$u20$as$u20$core..alloc..AllocRef$GT$5alloc17hf336d1c0a6aff3e9E+0x8e>
    800007dc:	6522                	ld	a0,8(sp)
    800007de:	00006097          	auipc	ra,0x6
    800007e2:	7c6080e7          	jalr	1990(ra) # 80006fa4 <_ZN4core6option15Option$LT$T$GT$5ok_or17h009833f1667d426cE>
    800007e6:	e02a                	sd	a0,0(sp)
    800007e8:	a009                	j	800007ea <_ZN62_$LT$alloc..alloc..Global$u20$as$u20$core..alloc..AllocRef$GT$5alloc17hf336d1c0a6aff3e9E+0x9c>
    800007ea:	6502                	ld	a0,0(sp)
    800007ec:	00007097          	auipc	ra,0x7
    800007f0:	d10080e7          	jalr	-752(ra) # 800074fc <_ZN73_$LT$core..result..Result$LT$T$C$E$GT$$u20$as$u20$core..ops..try..Try$GT$11into_result17h5d75c5b7a568a6d0E>
    800007f4:	f4aa                	sd	a0,104(sp)
    800007f6:	a009                	j	800007f8 <_ZN62_$LT$alloc..alloc..Global$u20$as$u20$core..alloc..AllocRef$GT$5alloc17hf336d1c0a6aff3e9E+0xaa>
    800007f8:	7526                	ld	a0,104(sp)
    800007fa:	00153593          	seqz	a1,a0
    800007fe:	4601                	li	a2,0
    80000800:	00c51463          	bne	a0,a2,80000808 <_ZN62_$LT$alloc..alloc..Global$u20$as$u20$core..alloc..AllocRef$GT$5alloc17hf336d1c0a6aff3e9E+0xba>
    80000804:	a009                	j	80000806 <_ZN62_$LT$alloc..alloc..Global$u20$as$u20$core..alloc..AllocRef$GT$5alloc17hf336d1c0a6aff3e9E+0xb8>
    80000806:	a819                	j	8000081c <_ZN62_$LT$alloc..alloc..Global$u20$as$u20$core..alloc..AllocRef$GT$5alloc17hf336d1c0a6aff3e9E+0xce>
    80000808:	7526                	ld	a0,104(sp)
    8000080a:	ed2a                	sd	a0,152(sp)
    8000080c:	f12a                	sd	a0,160(sp)
    8000080e:	f8aa                	sd	a0,112(sp)
    80000810:	65e2                	ld	a1,24(sp)
    80000812:	fcae                	sd	a1,120(sp)
    80000814:	e0aa                	sd	a0,64(sp)
    80000816:	e4ae                	sd	a1,72(sp)
    80000818:	a025                	j	80000840 <_ZN62_$LT$alloc..alloc..Global$u20$as$u20$core..alloc..AllocRef$GT$5alloc17hf336d1c0a6aff3e9E+0xf2>
    8000081a:	0000                	unimp
    8000081c:	0000c097          	auipc	ra,0xc
    80000820:	c2a080e7          	jalr	-982(ra) # 8000c446 <_ZN50_$LT$T$u20$as$u20$core..convert..From$LT$T$GT$$GT$4from17h48138642edebfe36E>
    80000824:	a031                	j	80000830 <_ZN62_$LT$alloc..alloc..Global$u20$as$u20$core..alloc..AllocRef$GT$5alloc17hf336d1c0a6aff3e9E+0xe2>
    80000826:	6506                	ld	a0,64(sp)
    80000828:	65a6                	ld	a1,72(sp)
    8000082a:	70aa                	ld	ra,168(sp)
    8000082c:	614d                	addi	sp,sp,176
    8000082e:	8082                	ret
    80000830:	00007097          	auipc	ra,0x7
    80000834:	c7c080e7          	jalr	-900(ra) # 800074ac <_ZN73_$LT$core..result..Result$LT$T$C$E$GT$$u20$as$u20$core..ops..try..Try$GT$10from_error17h7d49421a269bf878E>
    80000838:	e0aa                	sd	a0,64(sp)
    8000083a:	e4ae                	sd	a1,72(sp)
    8000083c:	a009                	j	8000083e <_ZN62_$LT$alloc..alloc..Global$u20$as$u20$core..alloc..AllocRef$GT$5alloc17hf336d1c0a6aff3e9E+0xf0>
    8000083e:	b7e5                	j	80000826 <_ZN62_$LT$alloc..alloc..Global$u20$as$u20$core..alloc..AllocRef$GT$5alloc17hf336d1c0a6aff3e9E+0xd8>
    80000840:	b7dd                	j	80000826 <_ZN62_$LT$alloc..alloc..Global$u20$as$u20$core..alloc..AllocRef$GT$5alloc17hf336d1c0a6aff3e9E+0xd8>

0000000080000842 <_ZN7rustsbi3ipi8init_ipi17h4823386da2a96e5cE>:
    80000842:	7171                	addi	sp,sp,-176
    80000844:	f506                	sd	ra,168(sp)
    80000846:	f4aa                	sd	a0,104(sp)
    80000848:	f8aa                	sd	a0,112(sp)
    8000084a:	45a1                	li	a1,8
    8000084c:	fc2a                	sd	a0,56(sp)
    8000084e:	852e                	mv	a0,a1
    80000850:	00000097          	auipc	ra,0x0
    80000854:	e4e080e7          	jalr	-434(ra) # 8000069e <_ZN5alloc5alloc15exchange_malloc17hf701cd44aa49ffd7E>
    80000858:	85aa                	mv	a1,a0
    8000085a:	7662                	ld	a2,56(sp)
    8000085c:	e110                	sd	a2,0(a0)
    8000085e:	f82e                	sd	a1,48(sp)
    80000860:	a009                	j	80000862 <_ZN7rustsbi3ipi8init_ipi17h4823386da2a96e5cE+0x20>
    80000862:	7542                	ld	a0,48(sp)
    80000864:	e0aa                	sd	a0,64(sp)

0000000080000866 <.LBB0_10>:
    80000866:	00015597          	auipc	a1,0x15
    8000086a:	89258593          	addi	a1,a1,-1902 # 800150f8 <.L__unnamed_1>
    8000086e:	e4ae                	sd	a1,72(sp)

0000000080000870 <.LBB0_11>:
    80000870:	00017517          	auipc	a0,0x17
    80000874:	14c50513          	addi	a0,a0,332 # 800179bc <_ZN7rustsbi3ipi3IPI17h5e8348c574fb75baE>
    80000878:	0000f097          	auipc	ra,0xf
    8000087c:	0de080e7          	jalr	222(ra) # 8000f956 <_ZN61_$LT$rustsbi..ipi..IPI$u20$as$u20$core..ops..deref..Deref$GT$5deref17hd64a99fb194dfca1E>
    80000880:	f42a                	sd	a0,40(sp)
    80000882:	a009                	j	80000884 <.LBB0_11+0x14>
    80000884:	7522                	ld	a0,40(sp)
    80000886:	e92a                	sd	a0,144(sp)
    80000888:	75a2                	ld	a1,40(sp)
    8000088a:	ed2e                	sd	a1,152(sp)
    8000088c:	4585                	li	a1,1
    8000088e:	4601                	li	a2,0
    80000890:	76a2                	ld	a3,40(sp)
    80000892:	f02a                	sd	a0,32(sp)
    80000894:	8536                	mv	a0,a3
    80000896:	00005097          	auipc	ra,0x5
    8000089a:	e8a080e7          	jalr	-374(ra) # 80005720 <_ZN4core4sync6atomic11AtomicUsize9fetch_add17h70cf77e743f96783E>
    8000089e:	85aa                	mv	a1,a0
    800008a0:	f12a                	sd	a0,160(sp)
    800008a2:	ec2e                	sd	a1,24(sp)
    800008a4:	a009                	j	800008a6 <.LBB0_11+0x36>
    800008a6:	7502                	ld	a0,32(sp)
    800008a8:	0521                	addi	a0,a0,8
    800008aa:	4589                	li	a1,2
    800008ac:	00005097          	auipc	ra,0x5
    800008b0:	e0e080e7          	jalr	-498(ra) # 800056ba <_ZN4core4sync6atomic11AtomicUsize4load17h1002ab1939a259b7E>
    800008b4:	65e2                	ld	a1,24(sp)
    800008b6:	00b50863          	beq	a0,a1,800008c6 <.LBB0_11+0x56>
    800008ba:	a009                	j	800008bc <.LBB0_11+0x4c>
    800008bc:	00005097          	auipc	ra,0x5
    800008c0:	e9c080e7          	jalr	-356(ra) # 80005758 <_ZN4core4sync6atomic14spin_loop_hint17hbd95f59684067b9eE>
    800008c4:	b7cd                	j	800008a6 <.LBB0_11+0x36>
    800008c6:	7502                	ld	a0,32(sp)
    800008c8:	00850593          	addi	a1,a0,8
    800008cc:	0541                	addi	a0,a0,16
    800008ce:	e82e                	sd	a1,16(sp)
    800008d0:	0000f097          	auipc	ra,0xf
    800008d4:	e7e080e7          	jalr	-386(ra) # 8000f74e <_ZN4core4cell19UnsafeCell$LT$T$GT$3get17hfcc4d7ce9c81b45aE>
    800008d8:	65c2                	ld	a1,16(sp)
    800008da:	fcae                	sd	a1,120(sp)
    800008dc:	6662                	ld	a2,24(sp)
    800008de:	e132                	sd	a2,128(sp)
    800008e0:	e52a                	sd	a0,136(sp)
    800008e2:	e8ae                	sd	a1,80(sp)
    800008e4:	ecb2                	sd	a2,88(sp)
    800008e6:	f0aa                	sd	a0,96(sp)
    800008e8:	a009                	j	800008ea <.LBB0_11+0x7a>
    800008ea:	0888                	addi	a0,sp,80
    800008ec:	0000f097          	auipc	ra,0xf
    800008f0:	9d8080e7          	jalr	-1576(ra) # 8000f2c4 <_ZN79_$LT$spin..mutex..MutexGuard$LT$T$GT$$u20$as$u20$core..ops..deref..DerefMut$GT$9deref_mut17h8c48b09d5210d4acE>
    800008f4:	e42a                	sd	a0,8(sp)
    800008f6:	a009                	j	800008f8 <.LBB0_11+0x88>
    800008f8:	6522                	ld	a0,8(sp)
    800008fa:	00011097          	auipc	ra,0x11
    800008fe:	e66080e7          	jalr	-410(ra) # 80011760 <_ZN4core3ptr13drop_in_place17hd9b1b364088f0e8fE>
    80000902:	a021                	j	8000090a <.LBB0_11+0x9a>
    80000904:	70aa                	ld	ra,168(sp)
    80000906:	614d                	addi	sp,sp,176
    80000908:	8082                	ret
    8000090a:	6506                	ld	a0,64(sp)
    8000090c:	65a6                	ld	a1,72(sp)
    8000090e:	6622                	ld	a2,8(sp)
    80000910:	e208                	sd	a0,0(a2)
    80000912:	e60c                	sd	a1,8(a2)
    80000914:	0888                	addi	a0,sp,80
    80000916:	00011097          	auipc	ra,0x11
    8000091a:	d64080e7          	jalr	-668(ra) # 8001167a <_ZN4core3ptr13drop_in_place17ha4c71be0724f4df0E>
    8000091e:	b7dd                	j	80000904 <.LBB0_11+0x94>

0000000080000920 <_ZN4core4cell19UnsafeCell$LT$T$GT$3get17h4e3ac8aedad87d9eE>:
    80000920:	1141                	addi	sp,sp,-16
    80000922:	e42a                	sd	a0,8(sp)
    80000924:	0141                	addi	sp,sp,16
    80000926:	8082                	ret

0000000080000928 <_ZN4core4cell19UnsafeCell$LT$T$GT$3get17hace1ce0b566b34d6E>:
    80000928:	1141                	addi	sp,sp,-16
    8000092a:	e42a                	sd	a0,8(sp)
    8000092c:	0141                	addi	sp,sp,16
    8000092e:	8082                	ret

0000000080000930 <_ZN76_$LT$spin..mutex..MutexGuard$LT$T$GT$$u20$as$u20$core..ops..deref..Deref$GT$5deref17h150b010af1ba081aE>:
    80000930:	1101                	addi	sp,sp,-32
    80000932:	ec06                	sd	ra,24(sp)
    80000934:	e82a                	sd	a0,16(sp)
    80000936:	00004097          	auipc	ra,0x4
    8000093a:	32e080e7          	jalr	814(ra) # 80004c64 <_ZN90_$LT$spin..mutex..ticket..TicketMutexGuard$LT$T$GT$$u20$as$u20$core..ops..deref..Deref$GT$5deref17h3a5da636222c9eddE>
    8000093e:	e42a                	sd	a0,8(sp)
    80000940:	a009                	j	80000942 <_ZN76_$LT$spin..mutex..MutexGuard$LT$T$GT$$u20$as$u20$core..ops..deref..Deref$GT$5deref17h150b010af1ba081aE+0x12>
    80000942:	6522                	ld	a0,8(sp)
    80000944:	60e2                	ld	ra,24(sp)
    80000946:	6105                	addi	sp,sp,32
    80000948:	8082                	ret

000000008000094a <_ZN76_$LT$spin..mutex..MutexGuard$LT$T$GT$$u20$as$u20$core..ops..deref..Deref$GT$5deref17h3dca7e0e99999a25E>:
    8000094a:	1101                	addi	sp,sp,-32
    8000094c:	ec06                	sd	ra,24(sp)
    8000094e:	e82a                	sd	a0,16(sp)
    80000950:	00004097          	auipc	ra,0x4
    80000954:	31e080e7          	jalr	798(ra) # 80004c6e <_ZN90_$LT$spin..mutex..ticket..TicketMutexGuard$LT$T$GT$$u20$as$u20$core..ops..deref..Deref$GT$5deref17h7dad42da9656725bE>
    80000958:	e42a                	sd	a0,8(sp)
    8000095a:	a009                	j	8000095c <_ZN76_$LT$spin..mutex..MutexGuard$LT$T$GT$$u20$as$u20$core..ops..deref..Deref$GT$5deref17h3dca7e0e99999a25E+0x12>
    8000095c:	6522                	ld	a0,8(sp)
    8000095e:	60e2                	ld	ra,24(sp)
    80000960:	6105                	addi	sp,sp,32
    80000962:	8082                	ret

0000000080000964 <_ZN76_$LT$spin..mutex..MutexGuard$LT$T$GT$$u20$as$u20$core..ops..deref..Deref$GT$5deref17hff37ebd5d21e272fE>:
    80000964:	1101                	addi	sp,sp,-32
    80000966:	ec06                	sd	ra,24(sp)
    80000968:	e82a                	sd	a0,16(sp)
    8000096a:	00004097          	auipc	ra,0x4
    8000096e:	2f0080e7          	jalr	752(ra) # 80004c5a <_ZN90_$LT$spin..mutex..ticket..TicketMutexGuard$LT$T$GT$$u20$as$u20$core..ops..deref..Deref$GT$5deref17h250a1aedfe8eae96E>
    80000972:	e42a                	sd	a0,8(sp)
    80000974:	a009                	j	80000976 <_ZN76_$LT$spin..mutex..MutexGuard$LT$T$GT$$u20$as$u20$core..ops..deref..Deref$GT$5deref17hff37ebd5d21e272fE+0x12>
    80000976:	6522                	ld	a0,8(sp)
    80000978:	60e2                	ld	ra,24(sp)
    8000097a:	6105                	addi	sp,sp,32
    8000097c:	8082                	ret

000000008000097e <_ZN79_$LT$spin..mutex..MutexGuard$LT$T$GT$$u20$as$u20$core..ops..deref..DerefMut$GT$9deref_mut17h3452f09ef163fa84E>:
    8000097e:	1101                	addi	sp,sp,-32
    80000980:	ec06                	sd	ra,24(sp)
    80000982:	e82a                	sd	a0,16(sp)
    80000984:	00004097          	auipc	ra,0x4
    80000988:	2f4080e7          	jalr	756(ra) # 80004c78 <_ZN93_$LT$spin..mutex..ticket..TicketMutexGuard$LT$T$GT$$u20$as$u20$core..ops..deref..DerefMut$GT$9deref_mut17h1bc52b8a39aab20cE>
    8000098c:	e42a                	sd	a0,8(sp)
    8000098e:	a009                	j	80000990 <_ZN79_$LT$spin..mutex..MutexGuard$LT$T$GT$$u20$as$u20$core..ops..deref..DerefMut$GT$9deref_mut17h3452f09ef163fa84E+0x12>
    80000990:	6522                	ld	a0,8(sp)
    80000992:	60e2                	ld	ra,24(sp)
    80000994:	6105                	addi	sp,sp,32
    80000996:	8082                	ret

0000000080000998 <_ZN79_$LT$spin..mutex..MutexGuard$LT$T$GT$$u20$as$u20$core..ops..deref..DerefMut$GT$9deref_mut17h49234e350c5928b2E>:
    80000998:	1101                	addi	sp,sp,-32
    8000099a:	ec06                	sd	ra,24(sp)
    8000099c:	e82a                	sd	a0,16(sp)
    8000099e:	00004097          	auipc	ra,0x4
    800009a2:	2ee080e7          	jalr	750(ra) # 80004c8c <_ZN93_$LT$spin..mutex..ticket..TicketMutexGuard$LT$T$GT$$u20$as$u20$core..ops..deref..DerefMut$GT$9deref_mut17h298d7c9b490e9ca1E>
    800009a6:	e42a                	sd	a0,8(sp)
    800009a8:	a009                	j	800009aa <_ZN79_$LT$spin..mutex..MutexGuard$LT$T$GT$$u20$as$u20$core..ops..deref..DerefMut$GT$9deref_mut17h49234e350c5928b2E+0x12>
    800009aa:	6522                	ld	a0,8(sp)
    800009ac:	60e2                	ld	ra,24(sp)
    800009ae:	6105                	addi	sp,sp,32
    800009b0:	8082                	ret

00000000800009b2 <_ZN79_$LT$spin..mutex..MutexGuard$LT$T$GT$$u20$as$u20$core..ops..deref..DerefMut$GT$9deref_mut17hfb3804a68a0fd216E>:
    800009b2:	1101                	addi	sp,sp,-32
    800009b4:	ec06                	sd	ra,24(sp)
    800009b6:	e82a                	sd	a0,16(sp)
    800009b8:	00004097          	auipc	ra,0x4
    800009bc:	2ca080e7          	jalr	714(ra) # 80004c82 <_ZN93_$LT$spin..mutex..ticket..TicketMutexGuard$LT$T$GT$$u20$as$u20$core..ops..deref..DerefMut$GT$9deref_mut17h216c3c57d50393b4E>
    800009c0:	e42a                	sd	a0,8(sp)
    800009c2:	a009                	j	800009c4 <_ZN79_$LT$spin..mutex..MutexGuard$LT$T$GT$$u20$as$u20$core..ops..deref..DerefMut$GT$9deref_mut17hfb3804a68a0fd216E+0x12>
    800009c4:	6522                	ld	a0,8(sp)
    800009c6:	60e2                	ld	ra,24(sp)
    800009c8:	6105                	addi	sp,sp,32
    800009ca:	8082                	ret

00000000800009cc <_ZN7rustsbi5timer10init_timer17hdbddd833b58b7279E>:
    800009cc:	7171                	addi	sp,sp,-176
    800009ce:	f506                	sd	ra,168(sp)
    800009d0:	f4aa                	sd	a0,104(sp)
    800009d2:	f8aa                	sd	a0,112(sp)
    800009d4:	45a1                	li	a1,8
    800009d6:	fc2a                	sd	a0,56(sp)
    800009d8:	852e                	mv	a0,a1
    800009da:	00000097          	auipc	ra,0x0
    800009de:	cc4080e7          	jalr	-828(ra) # 8000069e <_ZN5alloc5alloc15exchange_malloc17hf701cd44aa49ffd7E>
    800009e2:	85aa                	mv	a1,a0
    800009e4:	7662                	ld	a2,56(sp)
    800009e6:	e110                	sd	a2,0(a0)
    800009e8:	f82e                	sd	a1,48(sp)
    800009ea:	a009                	j	800009ec <_ZN7rustsbi5timer10init_timer17hdbddd833b58b7279E+0x20>
    800009ec:	7542                	ld	a0,48(sp)
    800009ee:	e0aa                	sd	a0,64(sp)

00000000800009f0 <.LBB0_10>:
    800009f0:	00014597          	auipc	a1,0x14
    800009f4:	73058593          	addi	a1,a1,1840 # 80015120 <.L__unnamed_1>
    800009f8:	e4ae                	sd	a1,72(sp)

00000000800009fa <.LBB0_11>:
    800009fa:	00017517          	auipc	a0,0x17
    800009fe:	5ce50513          	addi	a0,a0,1486 # 80017fc8 <_ZN7rustsbi3hsm3HSM17hdd3f3215fc5f2b5eE>
    80000a02:	00011097          	auipc	ra,0x11
    80000a06:	eb8080e7          	jalr	-328(ra) # 800118ba <_ZN65_$LT$rustsbi..timer..TIMER$u20$as$u20$core..ops..deref..Deref$GT$5deref17hdc2580999bc7f672E>
    80000a0a:	f42a                	sd	a0,40(sp)
    80000a0c:	a009                	j	80000a0e <.LBB0_11+0x14>
    80000a0e:	7522                	ld	a0,40(sp)
    80000a10:	e92a                	sd	a0,144(sp)
    80000a12:	75a2                	ld	a1,40(sp)
    80000a14:	ed2e                	sd	a1,152(sp)
    80000a16:	4585                	li	a1,1
    80000a18:	4601                	li	a2,0
    80000a1a:	76a2                	ld	a3,40(sp)
    80000a1c:	f02a                	sd	a0,32(sp)
    80000a1e:	8536                	mv	a0,a3
    80000a20:	00005097          	auipc	ra,0x5
    80000a24:	d00080e7          	jalr	-768(ra) # 80005720 <_ZN4core4sync6atomic11AtomicUsize9fetch_add17h70cf77e743f96783E>
    80000a28:	85aa                	mv	a1,a0
    80000a2a:	f12a                	sd	a0,160(sp)
    80000a2c:	ec2e                	sd	a1,24(sp)
    80000a2e:	a009                	j	80000a30 <.LBB0_11+0x36>
    80000a30:	7502                	ld	a0,32(sp)
    80000a32:	0521                	addi	a0,a0,8
    80000a34:	4589                	li	a1,2
    80000a36:	00005097          	auipc	ra,0x5
    80000a3a:	c84080e7          	jalr	-892(ra) # 800056ba <_ZN4core4sync6atomic11AtomicUsize4load17h1002ab1939a259b7E>
    80000a3e:	65e2                	ld	a1,24(sp)
    80000a40:	00b50863          	beq	a0,a1,80000a50 <.LBB0_11+0x56>
    80000a44:	a009                	j	80000a46 <.LBB0_11+0x4c>
    80000a46:	00005097          	auipc	ra,0x5
    80000a4a:	d12080e7          	jalr	-750(ra) # 80005758 <_ZN4core4sync6atomic14spin_loop_hint17hbd95f59684067b9eE>
    80000a4e:	b7cd                	j	80000a30 <.LBB0_11+0x36>
    80000a50:	7502                	ld	a0,32(sp)
    80000a52:	00850593          	addi	a1,a0,8
    80000a56:	0541                	addi	a0,a0,16
    80000a58:	e82e                	sd	a1,16(sp)
    80000a5a:	00000097          	auipc	ra,0x0
    80000a5e:	ece080e7          	jalr	-306(ra) # 80000928 <_ZN4core4cell19UnsafeCell$LT$T$GT$3get17hace1ce0b566b34d6E>
    80000a62:	65c2                	ld	a1,16(sp)
    80000a64:	fcae                	sd	a1,120(sp)
    80000a66:	6662                	ld	a2,24(sp)
    80000a68:	e132                	sd	a2,128(sp)
    80000a6a:	e52a                	sd	a0,136(sp)
    80000a6c:	e8ae                	sd	a1,80(sp)
    80000a6e:	ecb2                	sd	a2,88(sp)
    80000a70:	f0aa                	sd	a0,96(sp)
    80000a72:	a009                	j	80000a74 <.LBB0_11+0x7a>
    80000a74:	0888                	addi	a0,sp,80
    80000a76:	00000097          	auipc	ra,0x0
    80000a7a:	f3c080e7          	jalr	-196(ra) # 800009b2 <_ZN79_$LT$spin..mutex..MutexGuard$LT$T$GT$$u20$as$u20$core..ops..deref..DerefMut$GT$9deref_mut17hfb3804a68a0fd216E>
    80000a7e:	e42a                	sd	a0,8(sp)
    80000a80:	a009                	j	80000a82 <.LBB0_11+0x88>
    80000a82:	6522                	ld	a0,8(sp)
    80000a84:	00011097          	auipc	ra,0x11
    80000a88:	9ac080e7          	jalr	-1620(ra) # 80011430 <_ZN4core3ptr13drop_in_place17h3c6c0161bbffa952E>
    80000a8c:	a021                	j	80000a94 <.LBB0_11+0x9a>
    80000a8e:	70aa                	ld	ra,168(sp)
    80000a90:	614d                	addi	sp,sp,176
    80000a92:	8082                	ret
    80000a94:	6506                	ld	a0,64(sp)
    80000a96:	65a6                	ld	a1,72(sp)
    80000a98:	6622                	ld	a2,8(sp)
    80000a9a:	e208                	sd	a0,0(a2)
    80000a9c:	e60c                	sd	a1,8(a2)
    80000a9e:	0888                	addi	a0,sp,80
    80000aa0:	00000097          	auipc	ra,0x0
    80000aa4:	1e6080e7          	jalr	486(ra) # 80000c86 <_ZN4core3ptr13drop_in_place17hcb3118fa96a8d332E>
    80000aa8:	b7dd                	j	80000a8e <.LBB0_11+0x94>

0000000080000aaa <_ZN4core3mem4drop17h00616453fb0c79d3E>:
    80000aaa:	1141                	addi	sp,sp,-16
    80000aac:	e406                	sd	ra,8(sp)
    80000aae:	00000097          	auipc	ra,0x0
    80000ab2:	176080e7          	jalr	374(ra) # 80000c24 <_ZN4core3ptr13drop_in_place17h0c8caa34e4d45b3fE>
    80000ab6:	a009                	j	80000ab8 <_ZN4core3mem4drop17h00616453fb0c79d3E+0xe>
    80000ab8:	60a2                	ld	ra,8(sp)
    80000aba:	0141                	addi	sp,sp,16
    80000abc:	8082                	ret

0000000080000abe <_ZN4core3mem4swap17h353786be6e34039cE>:
    80000abe:	1101                	addi	sp,sp,-32
    80000ac0:	ec06                	sd	ra,24(sp)
    80000ac2:	e42a                	sd	a0,8(sp)
    80000ac4:	e82e                	sd	a1,16(sp)
    80000ac6:	00004097          	auipc	ra,0x4
    80000aca:	722080e7          	jalr	1826(ra) # 800051e8 <_ZN4core3ptr23swap_nonoverlapping_one17h5f686e88584d3388E>
    80000ace:	a009                	j	80000ad0 <_ZN4core3mem4swap17h353786be6e34039cE+0x12>
    80000ad0:	60e2                	ld	ra,24(sp)
    80000ad2:	6105                	addi	sp,sp,32
    80000ad4:	8082                	ret

0000000080000ad6 <_ZN4core3mem7replace17hbc6a026afaf0f624E>:
    80000ad6:	1101                	addi	sp,sp,-32
    80000ad8:	ec06                	sd	ra,24(sp)
    80000ada:	862e                	mv	a2,a1
    80000adc:	c62e                	sw	a1,12(sp)
    80000ade:	e82a                	sd	a0,16(sp)
    80000ae0:	006c                	addi	a1,sp,12
    80000ae2:	e032                	sd	a2,0(sp)
    80000ae4:	00000097          	auipc	ra,0x0
    80000ae8:	fda080e7          	jalr	-38(ra) # 80000abe <_ZN4core3mem4swap17h353786be6e34039cE>
    80000aec:	a009                	j	80000aee <_ZN4core3mem7replace17hbc6a026afaf0f624E+0x18>
    80000aee:	4532                	lw	a0,12(sp)
    80000af0:	60e2                	ld	ra,24(sp)
    80000af2:	6105                	addi	sp,sp,32
    80000af4:	8082                	ret

0000000080000af6 <_ZN5riscv8register7mideleg10set_stimer17hb68bf017d6cfd00fE>:
    80000af6:	1141                	addi	sp,sp,-16
    80000af8:	e406                	sd	ra,8(sp)
    80000afa:	02000513          	li	a0,32
    80000afe:	00000097          	auipc	ra,0x0
    80000b02:	010080e7          	jalr	16(ra) # 80000b0e <_ZN5riscv8register7mideleg4_set17hcf3ba2f3b2df57acE>
    80000b06:	a009                	j	80000b08 <_ZN5riscv8register7mideleg10set_stimer17hb68bf017d6cfd00fE+0x12>
    80000b08:	60a2                	ld	ra,8(sp)
    80000b0a:	0141                	addi	sp,sp,16
    80000b0c:	8082                	ret

0000000080000b0e <_ZN5riscv8register7mideleg4_set17hcf3ba2f3b2df57acE>:
    80000b0e:	1141                	addi	sp,sp,-16
    80000b10:	e42a                	sd	a0,8(sp)
    80000b12:	30352073          	csrs	mideleg,a0
    80000b16:	0141                	addi	sp,sp,16
    80000b18:	8082                	ret

0000000080000b1a <_ZN5riscv8register7mideleg4read17h1a05eaf6f3d30e78E>:
    80000b1a:	1101                	addi	sp,sp,-32
    80000b1c:	ec06                	sd	ra,24(sp)
    80000b1e:	00000097          	auipc	ra,0x0
    80000b22:	016080e7          	jalr	22(ra) # 80000b34 <_ZN5riscv8register7mideleg5_read17hd701de622dacc5e9E>
    80000b26:	e42a                	sd	a0,8(sp)
    80000b28:	a009                	j	80000b2a <_ZN5riscv8register7mideleg4read17h1a05eaf6f3d30e78E+0x10>
    80000b2a:	6522                	ld	a0,8(sp)
    80000b2c:	e82a                	sd	a0,16(sp)
    80000b2e:	60e2                	ld	ra,24(sp)
    80000b30:	6105                	addi	sp,sp,32
    80000b32:	8082                	ret

0000000080000b34 <_ZN5riscv8register7mideleg5_read17hd701de622dacc5e9E>:
    80000b34:	1141                	addi	sp,sp,-16
    80000b36:	30302573          	csrr	a0,mideleg
    80000b3a:	e42a                	sd	a0,8(sp)
    80000b3c:	0141                	addi	sp,sp,16
    80000b3e:	8082                	ret

0000000080000b40 <_ZN5riscv8register7mideleg7Mideleg4bits17h10a160fdb8c730bcE>:
    80000b40:	1141                	addi	sp,sp,-16
    80000b42:	e42a                	sd	a0,8(sp)
    80000b44:	6108                	ld	a0,0(a0)
    80000b46:	0141                	addi	sp,sp,16
    80000b48:	8082                	ret

0000000080000b4a <_ZN5riscv8register7mideleg8set_sext17h8d12a3d2178dfe1eE>:
    80000b4a:	1141                	addi	sp,sp,-16
    80000b4c:	e406                	sd	ra,8(sp)
    80000b4e:	20000513          	li	a0,512
    80000b52:	00000097          	auipc	ra,0x0
    80000b56:	fbc080e7          	jalr	-68(ra) # 80000b0e <_ZN5riscv8register7mideleg4_set17hcf3ba2f3b2df57acE>
    80000b5a:	a009                	j	80000b5c <_ZN5riscv8register7mideleg8set_sext17h8d12a3d2178dfe1eE+0x12>
    80000b5c:	60a2                	ld	ra,8(sp)
    80000b5e:	0141                	addi	sp,sp,16
    80000b60:	8082                	ret

0000000080000b62 <_ZN5riscv8register7mideleg9set_ssoft17hd9df596c9113a35dE>:
    80000b62:	1141                	addi	sp,sp,-16
    80000b64:	e406                	sd	ra,8(sp)
    80000b66:	4509                	li	a0,2
    80000b68:	00000097          	auipc	ra,0x0
    80000b6c:	fa6080e7          	jalr	-90(ra) # 80000b0e <_ZN5riscv8register7mideleg4_set17hcf3ba2f3b2df57acE>
    80000b70:	a009                	j	80000b72 <_ZN5riscv8register7mideleg9set_ssoft17hd9df596c9113a35dE+0x10>
    80000b72:	60a2                	ld	ra,8(sp)
    80000b74:	0141                	addi	sp,sp,16
    80000b76:	8082                	ret

0000000080000b78 <_ZN4core10intrinsics19copy_nonoverlapping17hf56b48c4509a898eE>:
    80000b78:	7179                	addi	sp,sp,-48
    80000b7a:	f406                	sd	ra,40(sp)
    80000b7c:	e82a                	sd	a0,16(sp)
    80000b7e:	ec2e                	sd	a1,24(sp)
    80000b80:	f032                	sd	a2,32(sp)
    80000b82:	060a                	slli	a2,a2,0x2
    80000b84:	e42a                	sd	a0,8(sp)
    80000b86:	852e                	mv	a0,a1
    80000b88:	65a2                	ld	a1,8(sp)
    80000b8a:	00014097          	auipc	ra,0x14
    80000b8e:	288080e7          	jalr	648(ra) # 80014e12 <memcpy>
    80000b92:	a009                	j	80000b94 <_ZN4core10intrinsics19copy_nonoverlapping17hf56b48c4509a898eE+0x1c>
    80000b94:	70a2                	ld	ra,40(sp)
    80000b96:	6145                	addi	sp,sp,48
    80000b98:	8082                	ret

0000000080000b9a <_ZN4core3ops8function6FnOnce9call_once17h3e7e245efb7c8486E>:
    80000b9a:	7119                	addi	sp,sp,-128
    80000b9c:	fc86                	sd	ra,120(sp)
    80000b9e:	ec2a                	sd	a0,24(sp)
    80000ba0:	00001097          	auipc	ra,0x1
    80000ba4:	34e080e7          	jalr	846(ra) # 80001eee <_ZN12rustsbi_qemu19compiled_max_hartid17hbd500884ef5320c3E>
    80000ba8:	e4aa                	sd	a0,72(sp)
    80000baa:	f0aa                	sd	a0,96(sp)
    80000bac:	4581                	li	a1,0
    80000bae:	e82a                	sd	a0,16(sp)
    80000bb0:	852e                	mv	a0,a1
    80000bb2:	e42e                	sd	a1,8(sp)
    80000bb4:	00005097          	auipc	ra,0x5
    80000bb8:	aea080e7          	jalr	-1302(ra) # 8000569e <_ZN4core4sync6atomic11AtomicUsize3new17h1bb3fd4169880e75E>
    80000bbc:	f4aa                	sd	a0,104(sp)
    80000bbe:	e8aa                	sd	a0,80(sp)
    80000bc0:	6522                	ld	a0,8(sp)
    80000bc2:	00005097          	auipc	ra,0x5
    80000bc6:	adc080e7          	jalr	-1316(ra) # 8000569e <_ZN4core4sync6atomic11AtomicUsize3new17h1bb3fd4169880e75E>
    80000bca:	f8aa                	sd	a0,112(sp)
    80000bcc:	ecaa                	sd	a0,88(sp)
    80000bce:	6542                	ld	a0,16(sp)
    80000bd0:	00012097          	auipc	ra,0x12
    80000bd4:	9a4080e7          	jalr	-1628(ra) # 80012574 <_ZN4core4cell19UnsafeCell$LT$T$GT$3new17h9c0d39b83b675edaE>
    80000bd8:	65c6                	ld	a1,80(sp)
    80000bda:	f82e                	sd	a1,48(sp)
    80000bdc:	6666                	ld	a2,88(sp)
    80000bde:	fc32                	sd	a2,56(sp)
    80000be0:	e0aa                	sd	a0,64(sp)
    80000be2:	66e2                	ld	a3,24(sp)
    80000be4:	ea88                	sd	a0,16(a3)
    80000be6:	e690                	sd	a2,8(a3)
    80000be8:	e28c                	sd	a1,0(a3)
    80000bea:	a009                	j	80000bec <_ZN4core3ops8function6FnOnce9call_once17h3e7e245efb7c8486E+0x52>
    80000bec:	70e6                	ld	ra,120(sp)
    80000bee:	6109                	addi	sp,sp,128
    80000bf0:	8082                	ret

0000000080000bf2 <_ZN4core3ops8function6FnOnce9call_once17h6b3d7fee3af81abcE>:
    80000bf2:	7179                	addi	sp,sp,-48
    80000bf4:	f406                	sd	ra,40(sp)
    80000bf6:	e82a                	sd	a0,16(sp)
    80000bf8:	ec2e                	sd	a1,24(sp)
    80000bfa:	00004097          	auipc	ra,0x4
    80000bfe:	fca080e7          	jalr	-54(ra) # 80004bc4 <_ZN4core3cmp5impls50_$LT$impl$u20$core..cmp..Ord$u20$for$u20$usize$GT$3cmp17hc3770fca71c39583E>
    80000c02:	e42a                	sd	a0,8(sp)
    80000c04:	a009                	j	80000c06 <_ZN4core3ops8function6FnOnce9call_once17h6b3d7fee3af81abcE+0x14>
    80000c06:	6522                	ld	a0,8(sp)
    80000c08:	70a2                	ld	ra,40(sp)
    80000c0a:	6145                	addi	sp,sp,48
    80000c0c:	8082                	ret

0000000080000c0e <_ZN4core3ptr13drop_in_place17h09566dfb867ab125E>:
    80000c0e:	1101                	addi	sp,sp,-32
    80000c10:	ec06                	sd	ra,24(sp)
    80000c12:	e82a                	sd	a0,16(sp)
    80000c14:	00000097          	auipc	ra,0x0
    80000c18:	0e6080e7          	jalr	230(ra) # 80000cfa <_ZN88_$LT$spin..mutex..ticket..TicketMutexGuard$LT$T$GT$$u20$as$u20$core..ops..drop..Drop$GT$4drop17hfc39b9c7605f5f6aE>
    80000c1c:	a009                	j	80000c1e <_ZN4core3ptr13drop_in_place17h09566dfb867ab125E+0x10>
    80000c1e:	60e2                	ld	ra,24(sp)
    80000c20:	6105                	addi	sp,sp,32
    80000c22:	8082                	ret

0000000080000c24 <_ZN4core3ptr13drop_in_place17h0c8caa34e4d45b3fE>:
    80000c24:	1101                	addi	sp,sp,-32
    80000c26:	ec06                	sd	ra,24(sp)
    80000c28:	e82a                	sd	a0,16(sp)
    80000c2a:	00000097          	auipc	ra,0x0
    80000c2e:	03e080e7          	jalr	62(ra) # 80000c68 <_ZN4core3ptr13drop_in_place17ha021d5a3da135e18E>
    80000c32:	a009                	j	80000c34 <_ZN4core3ptr13drop_in_place17h0c8caa34e4d45b3fE+0x10>
    80000c34:	60e2                	ld	ra,24(sp)
    80000c36:	6105                	addi	sp,sp,32
    80000c38:	8082                	ret

0000000080000c3a <_ZN4core3ptr13drop_in_place17h52fce14f9bb7a9faE>:
    80000c3a:	1141                	addi	sp,sp,-16
    80000c3c:	e42a                	sd	a0,8(sp)
    80000c3e:	0141                	addi	sp,sp,16
    80000c40:	8082                	ret

0000000080000c42 <_ZN4core3ptr13drop_in_place17h6e8bb59fe8f6f077E>:
    80000c42:	1101                	addi	sp,sp,-32
    80000c44:	ec06                	sd	ra,24(sp)
    80000c46:	e82a                	sd	a0,16(sp)
    80000c48:	e02a                	sd	a0,0(sp)
    80000c4a:	0000a097          	auipc	ra,0xa
    80000c4e:	346080e7          	jalr	838(ra) # 8000af90 <_ZN4core3ptr13drop_in_place17h2d50e83413e2a7d5E>
    80000c52:	a021                	j	80000c5a <_ZN4core3ptr13drop_in_place17h6e8bb59fe8f6f077E+0x18>
    80000c54:	60e2                	ld	ra,24(sp)
    80000c56:	6105                	addi	sp,sp,32
    80000c58:	8082                	ret
    80000c5a:	6502                	ld	a0,0(sp)
    80000c5c:	0561                	addi	a0,a0,24
    80000c5e:	0000a097          	auipc	ra,0xa
    80000c62:	448080e7          	jalr	1096(ra) # 8000b0a6 <_ZN4core3ptr13drop_in_place17hb0f4e56eb108062cE>
    80000c66:	b7fd                	j	80000c54 <_ZN4core3ptr13drop_in_place17h6e8bb59fe8f6f077E+0x12>

0000000080000c68 <_ZN4core3ptr13drop_in_place17ha021d5a3da135e18E>:
    80000c68:	1101                	addi	sp,sp,-32
    80000c6a:	ec06                	sd	ra,24(sp)
    80000c6c:	e82a                	sd	a0,16(sp)
    80000c6e:	00000097          	auipc	ra,0x0
    80000c72:	03e080e7          	jalr	62(ra) # 80000cac <_ZN88_$LT$spin..mutex..ticket..TicketMutexGuard$LT$T$GT$$u20$as$u20$core..ops..drop..Drop$GT$4drop17h3d0be393b66c3df4E>
    80000c76:	a009                	j	80000c78 <_ZN4core3ptr13drop_in_place17ha021d5a3da135e18E+0x10>
    80000c78:	60e2                	ld	ra,24(sp)
    80000c7a:	6105                	addi	sp,sp,32
    80000c7c:	8082                	ret

0000000080000c7e <_ZN4core3ptr13drop_in_place17ha063ce6270cf240bE>:
    80000c7e:	1141                	addi	sp,sp,-16
    80000c80:	e42a                	sd	a0,8(sp)
    80000c82:	0141                	addi	sp,sp,16
    80000c84:	8082                	ret

0000000080000c86 <_ZN4core3ptr13drop_in_place17hcb3118fa96a8d332E>:
    80000c86:	1101                	addi	sp,sp,-32
    80000c88:	ec06                	sd	ra,24(sp)
    80000c8a:	e82a                	sd	a0,16(sp)
    80000c8c:	00000097          	auipc	ra,0x0
    80000c90:	f82080e7          	jalr	-126(ra) # 80000c0e <_ZN4core3ptr13drop_in_place17h09566dfb867ab125E>
    80000c94:	a009                	j	80000c96 <_ZN4core3ptr13drop_in_place17hcb3118fa96a8d332E+0x10>
    80000c96:	60e2                	ld	ra,24(sp)
    80000c98:	6105                	addi	sp,sp,32
    80000c9a:	8082                	ret

0000000080000c9c <_ZN4core3ptr13drop_in_place17hce4e5e19ecf66336E>:
    80000c9c:	1141                	addi	sp,sp,-16
    80000c9e:	e42a                	sd	a0,8(sp)
    80000ca0:	0141                	addi	sp,sp,16
    80000ca2:	8082                	ret

0000000080000ca4 <_ZN4core3ptr13drop_in_place17hd0336ebdcaeada69E>:
    80000ca4:	1141                	addi	sp,sp,-16
    80000ca6:	e42a                	sd	a0,8(sp)
    80000ca8:	0141                	addi	sp,sp,16
    80000caa:	8082                	ret

0000000080000cac <_ZN88_$LT$spin..mutex..ticket..TicketMutexGuard$LT$T$GT$$u20$as$u20$core..ops..drop..Drop$GT$4drop17h3d0be393b66c3df4E>:
    80000cac:	7179                	addi	sp,sp,-48
    80000cae:	f406                	sd	ra,40(sp)
    80000cb0:	ec2a                	sd	a0,24(sp)
    80000cb2:	650c                	ld	a1,8(a0)
    80000cb4:	00158613          	addi	a2,a1,1
    80000cb8:	e82a                	sd	a0,16(sp)
    80000cba:	e432                	sd	a2,8(sp)
    80000cbc:	02b66163          	bltu	a2,a1,80000cde <.LBB11_4>
    80000cc0:	a009                	j	80000cc2 <_ZN88_$LT$spin..mutex..ticket..TicketMutexGuard$LT$T$GT$$u20$as$u20$core..ops..drop..Drop$GT$4drop17h3d0be393b66c3df4E+0x16>
    80000cc2:	6522                	ld	a0,8(sp)
    80000cc4:	f02a                	sd	a0,32(sp)
    80000cc6:	65c2                	ld	a1,16(sp)
    80000cc8:	6188                	ld	a0,0(a1)
    80000cca:	4605                	li	a2,1
    80000ccc:	65a2                	ld	a1,8(sp)
    80000cce:	00005097          	auipc	ra,0x5
    80000cd2:	a1e080e7          	jalr	-1506(ra) # 800056ec <_ZN4core4sync6atomic11AtomicUsize5store17ha2a2e2c8a00d1c54E>
    80000cd6:	a009                	j	80000cd8 <_ZN88_$LT$spin..mutex..ticket..TicketMutexGuard$LT$T$GT$$u20$as$u20$core..ops..drop..Drop$GT$4drop17h3d0be393b66c3df4E+0x2c>
    80000cd8:	70a2                	ld	ra,40(sp)
    80000cda:	6145                	addi	sp,sp,48
    80000cdc:	8082                	ret

0000000080000cde <.LBB11_4>:
    80000cde:	00014517          	auipc	a0,0x14
    80000ce2:	4f250513          	addi	a0,a0,1266 # 800151d0 <str.0>

0000000080000ce6 <.LBB11_5>:
    80000ce6:	00014617          	auipc	a2,0x14
    80000cea:	4ca60613          	addi	a2,a2,1226 # 800151b0 <.L__unnamed_1>
    80000cee:	45f1                	li	a1,28
    80000cf0:	00012097          	auipc	ra,0x12
    80000cf4:	eb8080e7          	jalr	-328(ra) # 80012ba8 <_ZN4core9panicking5panic17h99ef985303ba2443E>
	...

0000000080000cfa <_ZN88_$LT$spin..mutex..ticket..TicketMutexGuard$LT$T$GT$$u20$as$u20$core..ops..drop..Drop$GT$4drop17hfc39b9c7605f5f6aE>:
    80000cfa:	7179                	addi	sp,sp,-48
    80000cfc:	f406                	sd	ra,40(sp)
    80000cfe:	ec2a                	sd	a0,24(sp)
    80000d00:	650c                	ld	a1,8(a0)
    80000d02:	00158613          	addi	a2,a1,1
    80000d06:	e82a                	sd	a0,16(sp)
    80000d08:	e432                	sd	a2,8(sp)
    80000d0a:	02b66163          	bltu	a2,a1,80000d2c <.LBB12_4>
    80000d0e:	a009                	j	80000d10 <_ZN88_$LT$spin..mutex..ticket..TicketMutexGuard$LT$T$GT$$u20$as$u20$core..ops..drop..Drop$GT$4drop17hfc39b9c7605f5f6aE+0x16>
    80000d10:	6522                	ld	a0,8(sp)
    80000d12:	f02a                	sd	a0,32(sp)
    80000d14:	65c2                	ld	a1,16(sp)
    80000d16:	6188                	ld	a0,0(a1)
    80000d18:	4605                	li	a2,1
    80000d1a:	65a2                	ld	a1,8(sp)
    80000d1c:	00005097          	auipc	ra,0x5
    80000d20:	9d0080e7          	jalr	-1584(ra) # 800056ec <_ZN4core4sync6atomic11AtomicUsize5store17ha2a2e2c8a00d1c54E>
    80000d24:	a009                	j	80000d26 <_ZN88_$LT$spin..mutex..ticket..TicketMutexGuard$LT$T$GT$$u20$as$u20$core..ops..drop..Drop$GT$4drop17hfc39b9c7605f5f6aE+0x2c>
    80000d26:	70a2                	ld	ra,40(sp)
    80000d28:	6145                	addi	sp,sp,48
    80000d2a:	8082                	ret

0000000080000d2c <.LBB12_4>:
    80000d2c:	00014517          	auipc	a0,0x14
    80000d30:	4a450513          	addi	a0,a0,1188 # 800151d0 <str.0>

0000000080000d34 <.LBB12_5>:
    80000d34:	00014617          	auipc	a2,0x14
    80000d38:	47c60613          	addi	a2,a2,1148 # 800151b0 <.L__unnamed_1>
    80000d3c:	45f1                	li	a1,28
    80000d3e:	00012097          	auipc	ra,0x12
    80000d42:	e6a080e7          	jalr	-406(ra) # 80012ba8 <_ZN4core9panicking5panic17h99ef985303ba2443E>
	...

0000000080000d48 <_ZN4core5alloc6global11GlobalAlloc12alloc_zeroed17h4bd58a632eb1c3ebE>:
    80000d48:	711d                	addi	sp,sp,-96
    80000d4a:	ec86                	sd	ra,88(sp)
    80000d4c:	f82e                	sd	a1,48(sp)
    80000d4e:	fc32                	sd	a2,56(sp)
    80000d50:	e0aa                	sd	a0,64(sp)
    80000d52:	180c                	addi	a1,sp,48
    80000d54:	f42a                	sd	a0,40(sp)
    80000d56:	852e                	mv	a0,a1
    80000d58:	00004097          	auipc	ra,0x4
    80000d5c:	68e080e7          	jalr	1678(ra) # 800053e6 <_ZN4core5alloc6layout6Layout4size17h52610e501190f4ebE>
    80000d60:	85aa                	mv	a1,a0
    80000d62:	e4aa                	sd	a0,72(sp)
    80000d64:	f02e                	sd	a1,32(sp)
    80000d66:	a009                	j	80000d68 <_ZN4core5alloc6global11GlobalAlloc12alloc_zeroed17h4bd58a632eb1c3ebE+0x20>
    80000d68:	75c2                	ld	a1,48(sp)
    80000d6a:	7662                	ld	a2,56(sp)
    80000d6c:	7522                	ld	a0,40(sp)
    80000d6e:	0000c097          	auipc	ra,0xc
    80000d72:	2b0080e7          	jalr	688(ra) # 8000d01e <_ZN86_$LT$linked_list_allocator..LockedHeap$u20$as$u20$core..alloc..global..GlobalAlloc$GT$5alloc17h68232df00b32701fE>
    80000d76:	85aa                	mv	a1,a0
    80000d78:	e8aa                	sd	a0,80(sp)
    80000d7a:	ec2e                	sd	a1,24(sp)
    80000d7c:	a009                	j	80000d7e <_ZN4core5alloc6global11GlobalAlloc12alloc_zeroed17h4bd58a632eb1c3ebE+0x36>
    80000d7e:	6562                	ld	a0,24(sp)
    80000d80:	00012097          	auipc	ra,0x12
    80000d84:	a18080e7          	jalr	-1512(ra) # 80012798 <_ZN4core3ptr7mut_ptr31_$LT$impl$u20$$BP$mut$u20$T$GT$7is_null17h3db4f685f433eff7E>
    80000d88:	e82a                	sd	a0,16(sp)
    80000d8a:	a009                	j	80000d8c <_ZN4core5alloc6global11GlobalAlloc12alloc_zeroed17h4bd58a632eb1c3ebE+0x44>
    80000d8c:	4501                	li	a0,0
    80000d8e:	65c2                	ld	a1,16(sp)
    80000d90:	00a58463          	beq	a1,a0,80000d98 <_ZN4core5alloc6global11GlobalAlloc12alloc_zeroed17h4bd58a632eb1c3ebE+0x50>
    80000d94:	a009                	j	80000d96 <_ZN4core5alloc6global11GlobalAlloc12alloc_zeroed17h4bd58a632eb1c3ebE+0x4e>
    80000d96:	a829                	j	80000db0 <_ZN4core5alloc6global11GlobalAlloc12alloc_zeroed17h4bd58a632eb1c3ebE+0x68>
    80000d98:	4501                	li	a0,0
    80000d9a:	65e2                	ld	a1,24(sp)
    80000d9c:	e42a                	sd	a0,8(sp)
    80000d9e:	852e                	mv	a0,a1
    80000da0:	65a2                	ld	a1,8(sp)
    80000da2:	7602                	ld	a2,32(sp)
    80000da4:	0000b097          	auipc	ra,0xb
    80000da8:	390080e7          	jalr	912(ra) # 8000c134 <_ZN4core10intrinsics11write_bytes17hee037f5500ded160E>
    80000dac:	a009                	j	80000dae <_ZN4core5alloc6global11GlobalAlloc12alloc_zeroed17h4bd58a632eb1c3ebE+0x66>
    80000dae:	a009                	j	80000db0 <_ZN4core5alloc6global11GlobalAlloc12alloc_zeroed17h4bd58a632eb1c3ebE+0x68>
    80000db0:	6562                	ld	a0,24(sp)
    80000db2:	60e6                	ld	ra,88(sp)
    80000db4:	6125                	addi	sp,sp,96
    80000db6:	8082                	ret

0000000080000db8 <_ZN4core5alloc6global11GlobalAlloc7realloc17h65e537fc3016de65E>:
    80000db8:	7135                	addi	sp,sp,-160
    80000dba:	ed06                	sd	ra,152(sp)
    80000dbc:	ecb2                	sd	a2,88(sp)
    80000dbe:	f0b6                	sd	a3,96(sp)
    80000dc0:	f4aa                	sd	a0,104(sp)
    80000dc2:	f8ae                	sd	a1,112(sp)
    80000dc4:	fcba                	sd	a4,120(sp)
    80000dc6:	08b0                	addi	a2,sp,88
    80000dc8:	e8aa                	sd	a0,80(sp)
    80000dca:	8532                	mv	a0,a2
    80000dcc:	e4ba                	sd	a4,72(sp)
    80000dce:	e0ae                	sd	a1,64(sp)
    80000dd0:	00004097          	auipc	ra,0x4
    80000dd4:	620080e7          	jalr	1568(ra) # 800053f0 <_ZN4core5alloc6layout6Layout5align17h976a967bd9010f77E>
    80000dd8:	fc2a                	sd	a0,56(sp)
    80000dda:	a009                	j	80000ddc <_ZN4core5alloc6global11GlobalAlloc7realloc17h65e537fc3016de65E+0x24>
    80000ddc:	6526                	ld	a0,72(sp)
    80000dde:	75e2                	ld	a1,56(sp)
    80000de0:	00004097          	auipc	ra,0x4
    80000de4:	5e0080e7          	jalr	1504(ra) # 800053c0 <_ZN4core5alloc6layout6Layout25from_size_align_unchecked17h3b9a37ad7bf2e3afE>
    80000de8:	862a                	mv	a2,a0
    80000dea:	86ae                	mv	a3,a1
    80000dec:	e12a                	sd	a0,128(sp)
    80000dee:	e52e                	sd	a1,136(sp)
    80000df0:	f832                	sd	a2,48(sp)
    80000df2:	f436                	sd	a3,40(sp)
    80000df4:	a009                	j	80000df6 <_ZN4core5alloc6global11GlobalAlloc7realloc17h65e537fc3016de65E+0x3e>
    80000df6:	6546                	ld	a0,80(sp)
    80000df8:	75c2                	ld	a1,48(sp)
    80000dfa:	7622                	ld	a2,40(sp)
    80000dfc:	0000c097          	auipc	ra,0xc
    80000e00:	222080e7          	jalr	546(ra) # 8000d01e <_ZN86_$LT$linked_list_allocator..LockedHeap$u20$as$u20$core..alloc..global..GlobalAlloc$GT$5alloc17h68232df00b32701fE>
    80000e04:	85aa                	mv	a1,a0
    80000e06:	e92a                	sd	a0,144(sp)
    80000e08:	f02e                	sd	a1,32(sp)
    80000e0a:	a009                	j	80000e0c <_ZN4core5alloc6global11GlobalAlloc7realloc17h65e537fc3016de65E+0x54>
    80000e0c:	7502                	ld	a0,32(sp)
    80000e0e:	00012097          	auipc	ra,0x12
    80000e12:	98a080e7          	jalr	-1654(ra) # 80012798 <_ZN4core3ptr7mut_ptr31_$LT$impl$u20$$BP$mut$u20$T$GT$7is_null17h3db4f685f433eff7E>
    80000e16:	ec2a                	sd	a0,24(sp)
    80000e18:	a009                	j	80000e1a <_ZN4core5alloc6global11GlobalAlloc7realloc17h65e537fc3016de65E+0x62>
    80000e1a:	4501                	li	a0,0
    80000e1c:	65e2                	ld	a1,24(sp)
    80000e1e:	00a58463          	beq	a1,a0,80000e26 <_ZN4core5alloc6global11GlobalAlloc7realloc17h65e537fc3016de65E+0x6e>
    80000e22:	a009                	j	80000e24 <_ZN4core5alloc6global11GlobalAlloc7realloc17h65e537fc3016de65E+0x6c>
    80000e24:	a091                	j	80000e68 <_ZN4core5alloc6global11GlobalAlloc7realloc17h65e537fc3016de65E+0xb0>
    80000e26:	08a8                	addi	a0,sp,88
    80000e28:	00004097          	auipc	ra,0x4
    80000e2c:	5be080e7          	jalr	1470(ra) # 800053e6 <_ZN4core5alloc6layout6Layout4size17h52610e501190f4ebE>
    80000e30:	e82a                	sd	a0,16(sp)
    80000e32:	a009                	j	80000e34 <_ZN4core5alloc6global11GlobalAlloc7realloc17h65e537fc3016de65E+0x7c>
    80000e34:	6542                	ld	a0,16(sp)
    80000e36:	65a6                	ld	a1,72(sp)
    80000e38:	00004097          	auipc	ra,0x4
    80000e3c:	0de080e7          	jalr	222(ra) # 80004f16 <_ZN4core3cmp3min17h3643ea2e4d6399d7E>
    80000e40:	e42a                	sd	a0,8(sp)
    80000e42:	a009                	j	80000e44 <_ZN4core5alloc6global11GlobalAlloc7realloc17h65e537fc3016de65E+0x8c>
    80000e44:	6506                	ld	a0,64(sp)
    80000e46:	7582                	ld	a1,32(sp)
    80000e48:	6622                	ld	a2,8(sp)
    80000e4a:	0000b097          	auipc	ra,0xb
    80000e4e:	30a080e7          	jalr	778(ra) # 8000c154 <_ZN4core10intrinsics19copy_nonoverlapping17hca37474f5f212017E>
    80000e52:	a009                	j	80000e54 <_ZN4core5alloc6global11GlobalAlloc7realloc17h65e537fc3016de65E+0x9c>
    80000e54:	6666                	ld	a2,88(sp)
    80000e56:	7686                	ld	a3,96(sp)
    80000e58:	6546                	ld	a0,80(sp)
    80000e5a:	6586                	ld	a1,64(sp)
    80000e5c:	0000c097          	auipc	ra,0xc
    80000e60:	24e080e7          	jalr	590(ra) # 8000d0aa <_ZN86_$LT$linked_list_allocator..LockedHeap$u20$as$u20$core..alloc..global..GlobalAlloc$GT$7dealloc17h3df57e250808397dE>
    80000e64:	a009                	j	80000e66 <_ZN4core5alloc6global11GlobalAlloc7realloc17h65e537fc3016de65E+0xae>
    80000e66:	a009                	j	80000e68 <_ZN4core5alloc6global11GlobalAlloc7realloc17h65e537fc3016de65E+0xb0>
    80000e68:	7502                	ld	a0,32(sp)
    80000e6a:	60ea                	ld	ra,152(sp)
    80000e6c:	610d                	addi	sp,sp,160
    80000e6e:	8082                	ret

0000000080000e70 <_ZN5riscv8register4mepc4read17h81160901c815448bE>:
    80000e70:	1141                	addi	sp,sp,-16
    80000e72:	e406                	sd	ra,8(sp)
    80000e74:	00000097          	auipc	ra,0x0
    80000e78:	014080e7          	jalr	20(ra) # 80000e88 <_ZN5riscv8register4mepc5_read17ha98a83c6ce51b954E>
    80000e7c:	e02a                	sd	a0,0(sp)
    80000e7e:	a009                	j	80000e80 <_ZN5riscv8register4mepc4read17h81160901c815448bE+0x10>
    80000e80:	6502                	ld	a0,0(sp)
    80000e82:	60a2                	ld	ra,8(sp)
    80000e84:	0141                	addi	sp,sp,16
    80000e86:	8082                	ret

0000000080000e88 <_ZN5riscv8register4mepc5_read17ha98a83c6ce51b954E>:
    80000e88:	1141                	addi	sp,sp,-16
    80000e8a:	34102573          	csrr	a0,mepc
    80000e8e:	e42a                	sd	a0,8(sp)
    80000e90:	0141                	addi	sp,sp,16
    80000e92:	8082                	ret

0000000080000e94 <_ZN5riscv8register4mepc5write17h510ce1108a4c1362E>:
    80000e94:	1141                	addi	sp,sp,-16
    80000e96:	e406                	sd	ra,8(sp)
    80000e98:	e02a                	sd	a0,0(sp)
    80000e9a:	00000097          	auipc	ra,0x0
    80000e9e:	010080e7          	jalr	16(ra) # 80000eaa <_ZN5riscv8register4mepc6_write17h5942b5d53567898aE>
    80000ea2:	a009                	j	80000ea4 <_ZN5riscv8register4mepc5write17h510ce1108a4c1362E+0x10>
    80000ea4:	60a2                	ld	ra,8(sp)
    80000ea6:	0141                	addi	sp,sp,16
    80000ea8:	8082                	ret

0000000080000eaa <_ZN5riscv8register4mepc6_write17h5942b5d53567898aE>:
    80000eaa:	1141                	addi	sp,sp,-16
    80000eac:	e42a                	sd	a0,8(sp)
    80000eae:	34151073          	csrw	mepc,a0
    80000eb2:	0141                	addi	sp,sp,16
    80000eb4:	8082                	ret

0000000080000eb6 <_ZN5riscv8register6mimpid4read28_$u7b$$u7b$closure$u7d$$u7d$17h5a04e9dcaea1d4f5E>:
    80000eb6:	1101                	addi	sp,sp,-32
    80000eb8:	ec2a                	sd	a0,24(sp)
    80000eba:	e42a                	sd	a0,8(sp)
    80000ebc:	6105                	addi	sp,sp,32
    80000ebe:	8082                	ret

0000000080000ec0 <_ZN4core3str19from_utf8_unchecked17h73426e8d2e7da6d0E>:
    80000ec0:	1141                	addi	sp,sp,-16
    80000ec2:	e02a                	sd	a0,0(sp)
    80000ec4:	e42e                	sd	a1,8(sp)
    80000ec6:	0141                	addi	sp,sp,16
    80000ec8:	8082                	ret

0000000080000eca <_ZN60_$LT$alloc..string..String$u20$as$u20$core..fmt..Display$GT$3fmt17h13bdb48a548fb553E>:
    80000eca:	7139                	addi	sp,sp,-64
    80000ecc:	fc06                	sd	ra,56(sp)
    80000ece:	f42a                	sd	a0,40(sp)
    80000ed0:	f82e                	sd	a1,48(sp)
    80000ed2:	f02e                	sd	a1,32(sp)
    80000ed4:	00000097          	auipc	ra,0x0
    80000ed8:	028080e7          	jalr	40(ra) # 80000efc <_ZN65_$LT$alloc..string..String$u20$as$u20$core..ops..deref..Deref$GT$5deref17h7dbc65d0bb1f6d43E>
    80000edc:	ec2a                	sd	a0,24(sp)
    80000ede:	e82e                	sd	a1,16(sp)
    80000ee0:	a009                	j	80000ee2 <_ZN60_$LT$alloc..string..String$u20$as$u20$core..fmt..Display$GT$3fmt17h13bdb48a548fb553E+0x18>
    80000ee2:	6562                	ld	a0,24(sp)
    80000ee4:	65c2                	ld	a1,16(sp)
    80000ee6:	7602                	ld	a2,32(sp)
    80000ee8:	00013097          	auipc	ra,0x13
    80000eec:	ba2080e7          	jalr	-1118(ra) # 80013a8a <_ZN42_$LT$str$u20$as$u20$core..fmt..Display$GT$3fmt17hd83e8fd0b4c75455E>
    80000ef0:	e42a                	sd	a0,8(sp)
    80000ef2:	a009                	j	80000ef4 <_ZN60_$LT$alloc..string..String$u20$as$u20$core..fmt..Display$GT$3fmt17h13bdb48a548fb553E+0x2a>
    80000ef4:	6522                	ld	a0,8(sp)
    80000ef6:	70e2                	ld	ra,56(sp)
    80000ef8:	6121                	addi	sp,sp,64
    80000efa:	8082                	ret

0000000080000efc <_ZN65_$LT$alloc..string..String$u20$as$u20$core..ops..deref..Deref$GT$5deref17h7dbc65d0bb1f6d43E>:
    80000efc:	7179                	addi	sp,sp,-48
    80000efe:	f406                	sd	ra,40(sp)
    80000f00:	f02a                	sd	a0,32(sp)
    80000f02:	00009097          	auipc	ra,0x9
    80000f06:	bf2080e7          	jalr	-1038(ra) # 80009af4 <_ZN68_$LT$alloc..vec..Vec$LT$T$GT$$u20$as$u20$core..ops..deref..Deref$GT$5deref17h1d8d3226889f5e9fE>
    80000f0a:	ec2a                	sd	a0,24(sp)
    80000f0c:	e82e                	sd	a1,16(sp)
    80000f0e:	a009                	j	80000f10 <_ZN65_$LT$alloc..string..String$u20$as$u20$core..ops..deref..Deref$GT$5deref17h7dbc65d0bb1f6d43E+0x14>
    80000f10:	6562                	ld	a0,24(sp)
    80000f12:	65c2                	ld	a1,16(sp)
    80000f14:	00000097          	auipc	ra,0x0
    80000f18:	fac080e7          	jalr	-84(ra) # 80000ec0 <_ZN4core3str19from_utf8_unchecked17h73426e8d2e7da6d0E>
    80000f1c:	e42a                	sd	a0,8(sp)
    80000f1e:	e02e                	sd	a1,0(sp)
    80000f20:	a009                	j	80000f22 <_ZN65_$LT$alloc..string..String$u20$as$u20$core..ops..deref..Deref$GT$5deref17h7dbc65d0bb1f6d43E+0x26>
    80000f22:	6522                	ld	a0,8(sp)
    80000f24:	6582                	ld	a1,0(sp)
    80000f26:	70a2                	ld	ra,40(sp)
    80000f28:	6145                	addi	sp,sp,48
    80000f2a:	8082                	ret

0000000080000f2c <_ZN44_$LT$$RF$T$u20$as$u20$core..fmt..Display$GT$3fmt17h1343e8bee7eae3efE>:
    80000f2c:	1101                	addi	sp,sp,-32
    80000f2e:	ec06                	sd	ra,24(sp)
    80000f30:	e42a                	sd	a0,8(sp)
    80000f32:	e82e                	sd	a1,16(sp)
    80000f34:	6108                	ld	a0,0(a0)
    80000f36:	00000097          	auipc	ra,0x0
    80000f3a:	f94080e7          	jalr	-108(ra) # 80000eca <_ZN60_$LT$alloc..string..String$u20$as$u20$core..fmt..Display$GT$3fmt17h13bdb48a548fb553E>
    80000f3e:	e02a                	sd	a0,0(sp)
    80000f40:	a009                	j	80000f42 <_ZN44_$LT$$RF$T$u20$as$u20$core..fmt..Display$GT$3fmt17h1343e8bee7eae3efE+0x16>
    80000f42:	6502                	ld	a0,0(sp)
    80000f44:	60e2                	ld	ra,24(sp)
    80000f46:	6105                	addi	sp,sp,32
    80000f48:	8082                	ret

0000000080000f4a <_ZN4core6result19Result$LT$T$C$E$GT$2ok17h471197a901f3e98cE>:
    80000f4a:	1141                	addi	sp,sp,-16
    80000f4c:	4505                	li	a0,1
    80000f4e:	e519                	bnez	a0,80000f5c <_ZN4core6result19Result$LT$T$C$E$GT$2ok17h471197a901f3e98cE+0x12>
    80000f50:	a009                	j	80000f52 <_ZN4core6result19Result$LT$T$C$E$GT$2ok17h471197a901f3e98cE+0x8>
    80000f52:	4501                	li	a0,0
    80000f54:	00a103a3          	sb	a0,7(sp)
    80000f58:	a819                	j	80000f6e <_ZN4core6result19Result$LT$T$C$E$GT$2ok17h471197a901f3e98cE+0x24>
    80000f5a:	0000                	unimp
    80000f5c:	4505                	li	a0,1
    80000f5e:	00a103a3          	sb	a0,7(sp)
    80000f62:	a031                	j	80000f6e <_ZN4core6result19Result$LT$T$C$E$GT$2ok17h471197a901f3e98cE+0x24>
    80000f64:	00714503          	lbu	a0,7(sp)
    80000f68:	0141                	addi	sp,sp,16
    80000f6a:	8082                	ret
    80000f6c:	bfe5                	j	80000f64 <_ZN4core6result19Result$LT$T$C$E$GT$2ok17h471197a901f3e98cE+0x1a>
    80000f6e:	4505                	li	a0,1
    80000f70:	f975                	bnez	a0,80000f64 <_ZN4core6result19Result$LT$T$C$E$GT$2ok17h471197a901f3e98cE+0x1a>
    80000f72:	bfed                	j	80000f6c <_ZN4core6result19Result$LT$T$C$E$GT$2ok17h471197a901f3e98cE+0x22>

0000000080000f74 <_ZN4core6result19Result$LT$T$C$E$GT$2ok17hae989b702b36bd03E>:
    80000f74:	1141                	addi	sp,sp,-16
    80000f76:	85aa                	mv	a1,a0
    80000f78:	00a103a3          	sb	a0,7(sp)
    80000f7c:	4505                	li	a0,1
    80000f7e:	e519                	bnez	a0,80000f8c <_ZN4core6result19Result$LT$T$C$E$GT$2ok17hae989b702b36bd03E+0x18>
    80000f80:	a009                	j	80000f82 <_ZN4core6result19Result$LT$T$C$E$GT$2ok17hae989b702b36bd03E+0xe>
    80000f82:	4501                	li	a0,0
    80000f84:	00a10423          	sb	a0,8(sp)
    80000f88:	a01d                	j	80000fae <_ZN4core6result19Result$LT$T$C$E$GT$2ok17hae989b702b36bd03E+0x3a>
    80000f8a:	0000                	unimp
    80000f8c:	00710503          	lb	a0,7(sp)
    80000f90:	00a107a3          	sb	a0,15(sp)
    80000f94:	00a104a3          	sb	a0,9(sp)
    80000f98:	4505                	li	a0,1
    80000f9a:	00a10423          	sb	a0,8(sp)
    80000f9e:	a801                	j	80000fae <_ZN4core6result19Result$LT$T$C$E$GT$2ok17hae989b702b36bd03E+0x3a>
    80000fa0:	00814503          	lbu	a0,8(sp)
    80000fa4:	00910583          	lb	a1,9(sp)
    80000fa8:	0141                	addi	sp,sp,16
    80000faa:	8082                	ret
    80000fac:	bfd5                	j	80000fa0 <_ZN4core6result19Result$LT$T$C$E$GT$2ok17hae989b702b36bd03E+0x2c>
    80000fae:	4505                	li	a0,1
    80000fb0:	f965                	bnez	a0,80000fa0 <_ZN4core6result19Result$LT$T$C$E$GT$2ok17hae989b702b36bd03E+0x2c>
    80000fb2:	bfed                	j	80000fac <_ZN4core6result19Result$LT$T$C$E$GT$2ok17hae989b702b36bd03E+0x38>

0000000080000fb4 <_ZN5riscv8register9mvendorid4read28_$u7b$$u7b$closure$u7d$$u7d$17hfc2d55d37cc1f1beE>:
    80000fb4:	1101                	addi	sp,sp,-32
    80000fb6:	ec2a                	sd	a0,24(sp)
    80000fb8:	e42a                	sd	a0,8(sp)
    80000fba:	6105                	addi	sp,sp,32
    80000fbc:	8082                	ret

0000000080000fbe <_ZN7rustsbi3hsm9probe_hsm17hb0b7c8f705be7b63E>:
    80000fbe:	7175                	addi	sp,sp,-144
    80000fc0:	e506                	sd	ra,136(sp)

0000000080000fc2 <.LBB0_10>:
    80000fc2:	00017517          	auipc	a0,0x17
    80000fc6:	00650513          	addi	a0,a0,6 # 80017fc8 <_ZN7rustsbi3hsm3HSM17hdd3f3215fc5f2b5eE>
    80000fca:	00011097          	auipc	ra,0x11
    80000fce:	11a080e7          	jalr	282(ra) # 800120e4 <_ZN61_$LT$rustsbi..hsm..HSM$u20$as$u20$core..ops..deref..Deref$GT$5deref17h99869308558703aeE>
    80000fd2:	f82a                	sd	a0,48(sp)
    80000fd4:	a009                	j	80000fd6 <.LBB0_10+0x14>
    80000fd6:	7542                	ld	a0,48(sp)
    80000fd8:	f8aa                	sd	a0,112(sp)
    80000fda:	75c2                	ld	a1,48(sp)
    80000fdc:	fcae                	sd	a1,120(sp)
    80000fde:	4585                	li	a1,1
    80000fe0:	4601                	li	a2,0
    80000fe2:	76c2                	ld	a3,48(sp)
    80000fe4:	f42a                	sd	a0,40(sp)
    80000fe6:	8536                	mv	a0,a3
    80000fe8:	00004097          	auipc	ra,0x4
    80000fec:	738080e7          	jalr	1848(ra) # 80005720 <_ZN4core4sync6atomic11AtomicUsize9fetch_add17h70cf77e743f96783E>
    80000ff0:	85aa                	mv	a1,a0
    80000ff2:	e12a                	sd	a0,128(sp)
    80000ff4:	f02e                	sd	a1,32(sp)
    80000ff6:	a009                	j	80000ff8 <.LBB0_10+0x36>
    80000ff8:	7522                	ld	a0,40(sp)
    80000ffa:	0521                	addi	a0,a0,8
    80000ffc:	4589                	li	a1,2
    80000ffe:	00004097          	auipc	ra,0x4
    80001002:	6bc080e7          	jalr	1724(ra) # 800056ba <_ZN4core4sync6atomic11AtomicUsize4load17h1002ab1939a259b7E>
    80001006:	7582                	ld	a1,32(sp)
    80001008:	00b50863          	beq	a0,a1,80001018 <.LBB0_10+0x56>
    8000100c:	a009                	j	8000100e <.LBB0_10+0x4c>
    8000100e:	00004097          	auipc	ra,0x4
    80001012:	74a080e7          	jalr	1866(ra) # 80005758 <_ZN4core4sync6atomic14spin_loop_hint17hbd95f59684067b9eE>
    80001016:	b7cd                	j	80000ff8 <.LBB0_10+0x36>
    80001018:	7522                	ld	a0,40(sp)
    8000101a:	00850593          	addi	a1,a0,8
    8000101e:	0541                	addi	a0,a0,16
    80001020:	ec2e                	sd	a1,24(sp)
    80001022:	0000e097          	auipc	ra,0xe
    80001026:	714080e7          	jalr	1812(ra) # 8000f736 <_ZN4core4cell19UnsafeCell$LT$T$GT$3get17he4ff336e51e04aefE>
    8000102a:	65e2                	ld	a1,24(sp)
    8000102c:	ecae                	sd	a1,88(sp)
    8000102e:	7602                	ld	a2,32(sp)
    80001030:	f0b2                	sd	a2,96(sp)
    80001032:	f4aa                	sd	a0,104(sp)
    80001034:	e0ae                	sd	a1,64(sp)
    80001036:	e4b2                	sd	a2,72(sp)
    80001038:	e8aa                	sd	a0,80(sp)
    8000103a:	a009                	j	8000103c <.LBB0_10+0x7a>
    8000103c:	0088                	addi	a0,sp,64
    8000103e:	00000097          	auipc	ra,0x0
    80001042:	926080e7          	jalr	-1754(ra) # 80000964 <_ZN76_$LT$spin..mutex..MutexGuard$LT$T$GT$$u20$as$u20$core..ops..deref..Deref$GT$5deref17hff37ebd5d21e272fE>
    80001046:	e82a                	sd	a0,16(sp)
    80001048:	a009                	j	8000104a <.LBB0_10+0x88>
    8000104a:	6542                	ld	a0,16(sp)
    8000104c:	00002097          	auipc	ra,0x2
    80001050:	33a080e7          	jalr	826(ra) # 80003386 <_ZN4core6option15Option$LT$T$GT$6as_ref17h7258b6cee81e8f29E>
    80001054:	fc2a                	sd	a0,56(sp)
    80001056:	a009                	j	80001058 <.LBB0_10+0x96>
    80001058:	1828                	addi	a0,sp,56
    8000105a:	00002097          	auipc	ra,0x2
    8000105e:	43e080e7          	jalr	1086(ra) # 80003498 <_ZN4core6option15Option$LT$T$GT$7is_some17h869ff76a0899e274E>
    80001062:	e42a                	sd	a0,8(sp)
    80001064:	a009                	j	80001066 <.LBB0_10+0xa4>
    80001066:	0088                	addi	a0,sp,64
    80001068:	00010097          	auipc	ra,0x10
    8000106c:	5fc080e7          	jalr	1532(ra) # 80011664 <_ZN4core3ptr13drop_in_place17ha31f41da353eb2b6E>
    80001070:	a009                	j	80001072 <.LBB0_10+0xb0>
    80001072:	6522                	ld	a0,8(sp)
    80001074:	60aa                	ld	ra,136(sp)
    80001076:	6149                	addi	sp,sp,144
    80001078:	8082                	ret

000000008000107a <_ZN7rustsbi5reset10init_reset17h7a7dcf4421e3b03cE>:
    8000107a:	7135                	addi	sp,sp,-160
    8000107c:	ed06                	sd	ra,152(sp)
    8000107e:	4501                	li	a0,0
    80001080:	4585                	li	a1,1
    80001082:	fffff097          	auipc	ra,0xfffff
    80001086:	61c080e7          	jalr	1564(ra) # 8000069e <_ZN5alloc5alloc15exchange_malloc17hf701cd44aa49ffd7E>
    8000108a:	f82a                	sd	a0,48(sp)
    8000108c:	a009                	j	8000108e <_ZN7rustsbi5reset10init_reset17h7a7dcf4421e3b03cE+0x14>
    8000108e:	7542                	ld	a0,48(sp)
    80001090:	fc2a                	sd	a0,56(sp)

0000000080001092 <.LBB0_10>:
    80001092:	00014597          	auipc	a1,0x14
    80001096:	15e58593          	addi	a1,a1,350 # 800151f0 <.L__unnamed_1>
    8000109a:	e0ae                	sd	a1,64(sp)

000000008000109c <.LBB0_11>:
    8000109c:	00017517          	auipc	a0,0x17
    800010a0:	07450513          	addi	a0,a0,116 # 80018110 <_ZN7rustsbi5reset5RESET17hc04f865a7b137efeE>
    800010a4:	00011097          	auipc	ra,0x11
    800010a8:	26e080e7          	jalr	622(ra) # 80012312 <_ZN65_$LT$rustsbi..reset..RESET$u20$as$u20$core..ops..deref..Deref$GT$5deref17hb358d69e4cce987cE>
    800010ac:	f42a                	sd	a0,40(sp)
    800010ae:	a009                	j	800010b0 <.LBB0_11+0x14>
    800010b0:	7522                	ld	a0,40(sp)
    800010b2:	e12a                	sd	a0,128(sp)
    800010b4:	75a2                	ld	a1,40(sp)
    800010b6:	e52e                	sd	a1,136(sp)
    800010b8:	4585                	li	a1,1
    800010ba:	4601                	li	a2,0
    800010bc:	76a2                	ld	a3,40(sp)
    800010be:	f02a                	sd	a0,32(sp)
    800010c0:	8536                	mv	a0,a3
    800010c2:	00004097          	auipc	ra,0x4
    800010c6:	65e080e7          	jalr	1630(ra) # 80005720 <_ZN4core4sync6atomic11AtomicUsize9fetch_add17h70cf77e743f96783E>
    800010ca:	85aa                	mv	a1,a0
    800010cc:	e92a                	sd	a0,144(sp)
    800010ce:	ec2e                	sd	a1,24(sp)
    800010d0:	a009                	j	800010d2 <.LBB0_11+0x36>
    800010d2:	7502                	ld	a0,32(sp)
    800010d4:	0521                	addi	a0,a0,8
    800010d6:	4589                	li	a1,2
    800010d8:	00004097          	auipc	ra,0x4
    800010dc:	5e2080e7          	jalr	1506(ra) # 800056ba <_ZN4core4sync6atomic11AtomicUsize4load17h1002ab1939a259b7E>
    800010e0:	65e2                	ld	a1,24(sp)
    800010e2:	00b50863          	beq	a0,a1,800010f2 <.LBB0_11+0x56>
    800010e6:	a009                	j	800010e8 <.LBB0_11+0x4c>
    800010e8:	00004097          	auipc	ra,0x4
    800010ec:	670080e7          	jalr	1648(ra) # 80005758 <_ZN4core4sync6atomic14spin_loop_hint17hbd95f59684067b9eE>
    800010f0:	b7cd                	j	800010d2 <.LBB0_11+0x36>
    800010f2:	7502                	ld	a0,32(sp)
    800010f4:	00850593          	addi	a1,a0,8
    800010f8:	0541                	addi	a0,a0,16
    800010fa:	e82e                	sd	a1,16(sp)
    800010fc:	0000e097          	auipc	ra,0xe
    80001100:	612080e7          	jalr	1554(ra) # 8000f70e <_ZN4core4cell19UnsafeCell$LT$T$GT$3get17h62434dde3b6318faE>
    80001104:	65c2                	ld	a1,16(sp)
    80001106:	f4ae                	sd	a1,104(sp)
    80001108:	6662                	ld	a2,24(sp)
    8000110a:	f8b2                	sd	a2,112(sp)
    8000110c:	fcaa                	sd	a0,120(sp)
    8000110e:	e4ae                	sd	a1,72(sp)
    80001110:	e8b2                	sd	a2,80(sp)
    80001112:	ecaa                	sd	a0,88(sp)
    80001114:	a009                	j	80001116 <.LBB0_11+0x7a>
    80001116:	00a8                	addi	a0,sp,72
    80001118:	00000097          	auipc	ra,0x0
    8000111c:	866080e7          	jalr	-1946(ra) # 8000097e <_ZN79_$LT$spin..mutex..MutexGuard$LT$T$GT$$u20$as$u20$core..ops..deref..DerefMut$GT$9deref_mut17h3452f09ef163fa84E>
    80001120:	e42a                	sd	a0,8(sp)
    80001122:	a009                	j	80001124 <.LBB0_11+0x88>
    80001124:	6522                	ld	a0,8(sp)
    80001126:	00010097          	auipc	ra,0x10
    8000112a:	43e080e7          	jalr	1086(ra) # 80011564 <_ZN4core3ptr13drop_in_place17h78e5ef0f66ac3e6aE>
    8000112e:	a021                	j	80001136 <.LBB0_11+0x9a>
    80001130:	60ea                	ld	ra,152(sp)
    80001132:	610d                	addi	sp,sp,160
    80001134:	8082                	ret
    80001136:	7562                	ld	a0,56(sp)
    80001138:	6586                	ld	a1,64(sp)
    8000113a:	6622                	ld	a2,8(sp)
    8000113c:	e208                	sd	a0,0(a2)
    8000113e:	e60c                	sd	a1,8(a2)
    80001140:	00a8                	addi	a0,sp,72
    80001142:	00010097          	auipc	ra,0x10
    80001146:	4f6080e7          	jalr	1270(ra) # 80011638 <_ZN4core3ptr13drop_in_place17h99aa01c7224b3cf2E>
    8000114a:	b7dd                	j	80001130 <.LBB0_11+0x94>

000000008000114c <_ZN7rustsbi9extension15probe_extension17hb87e51436b8a7bf6E>:
    8000114c:	1101                	addi	sp,sp,-32
    8000114e:	ec06                	sd	ra,24(sp)
    80001150:	e82a                	sd	a0,16(sp)
    80001152:	45c1                	li	a1,16
    80001154:	e02a                	sd	a0,0(sp)
    80001156:	04b50763          	beq	a0,a1,800011a4 <_ZN7rustsbi9extension15probe_extension17hb87e51436b8a7bf6E+0x58>
    8000115a:	a009                	j	8000115c <_ZN7rustsbi9extension15probe_extension17hb87e51436b8a7bf6E+0x10>
    8000115c:	00485537          	lui	a0,0x485
    80001160:	34d5051b          	addiw	a0,a0,845
    80001164:	6582                	ld	a1,0(sp)
    80001166:	06a58863          	beq	a1,a0,800011d6 <_ZN7rustsbi9extension15probe_extension17hb87e51436b8a7bf6E+0x8a>
    8000116a:	a009                	j	8000116c <_ZN7rustsbi9extension15probe_extension17hb87e51436b8a7bf6E+0x20>
    8000116c:	00735537          	lui	a0,0x735
    80001170:	0495051b          	addiw	a0,a0,73
    80001174:	6582                	ld	a1,0(sp)
    80001176:	04a58263          	beq	a1,a0,800011ba <_ZN7rustsbi9extension15probe_extension17hb87e51436b8a7bf6E+0x6e>
    8000117a:	a009                	j	8000117c <_ZN7rustsbi9extension15probe_extension17hb87e51436b8a7bf6E+0x30>
    8000117c:	53525537          	lui	a0,0x53525
    80001180:	3545051b          	addiw	a0,a0,852
    80001184:	6582                	ld	a1,0(sp)
    80001186:	04a58163          	beq	a1,a0,800011c8 <_ZN7rustsbi9extension15probe_extension17hb87e51436b8a7bf6E+0x7c>
    8000118a:	a009                	j	8000118c <_ZN7rustsbi9extension15probe_extension17hb87e51436b8a7bf6E+0x40>
    8000118c:	54495537          	lui	a0,0x54495
    80001190:	d455051b          	addiw	a0,a0,-699
    80001194:	6582                	ld	a1,0(sp)
    80001196:	00a58b63          	beq	a1,a0,800011ac <_ZN7rustsbi9extension15probe_extension17hb87e51436b8a7bf6E+0x60>
    8000119a:	a009                	j	8000119c <_ZN7rustsbi9extension15probe_extension17hb87e51436b8a7bf6E+0x50>
    8000119c:	4501                	li	a0,0
    8000119e:	00a107a3          	sb	a0,15(sp)
    800011a2:	a089                	j	800011e4 <_ZN7rustsbi9extension15probe_extension17hb87e51436b8a7bf6E+0x98>
    800011a4:	4505                	li	a0,1
    800011a6:	00a107a3          	sb	a0,15(sp)
    800011aa:	a82d                	j	800011e4 <_ZN7rustsbi9extension15probe_extension17hb87e51436b8a7bf6E+0x98>
    800011ac:	00004097          	auipc	ra,0x4
    800011b0:	aea080e7          	jalr	-1302(ra) # 80004c96 <_ZN7rustsbi5timer11probe_timer17h727d5518575b5407E>
    800011b4:	00a107a3          	sb	a0,15(sp)
    800011b8:	a035                	j	800011e4 <_ZN7rustsbi9extension15probe_extension17hb87e51436b8a7bf6E+0x98>
    800011ba:	fffff097          	auipc	ra,0xfffff
    800011be:	e88080e7          	jalr	-376(ra) # 80000042 <_ZN7rustsbi3ipi9probe_ipi17he4f8a293fd277fddE>
    800011c2:	00a107a3          	sb	a0,15(sp)
    800011c6:	a839                	j	800011e4 <_ZN7rustsbi9extension15probe_extension17hb87e51436b8a7bf6E+0x98>
    800011c8:	00004097          	auipc	ra,0x4
    800011cc:	13c080e7          	jalr	316(ra) # 80005304 <_ZN7rustsbi5reset11probe_reset17h9bdf7330bc13efdeE>
    800011d0:	00a107a3          	sb	a0,15(sp)
    800011d4:	a801                	j	800011e4 <_ZN7rustsbi9extension15probe_extension17hb87e51436b8a7bf6E+0x98>
    800011d6:	00000097          	auipc	ra,0x0
    800011da:	de8080e7          	jalr	-536(ra) # 80000fbe <_ZN7rustsbi3hsm9probe_hsm17hb0b7c8f705be7b63E>
    800011de:	00a107a3          	sb	a0,15(sp)
    800011e2:	a009                	j	800011e4 <_ZN7rustsbi9extension15probe_extension17hb87e51436b8a7bf6E+0x98>
    800011e4:	00f14503          	lbu	a0,15(sp)
    800011e8:	60e2                	ld	ra,24(sp)
    800011ea:	6105                	addi	sp,sp,32
    800011ec:	8082                	ret

00000000800011ee <_ZN7rustsbi5ecall5timer21handle_ecall_timer_6417hd9a001a92e2d2a8aE>:
    800011ee:	7179                	addi	sp,sp,-48
    800011f0:	f406                	sd	ra,40(sp)
    800011f2:	ec2a                	sd	a0,24(sp)
    800011f4:	f02e                	sd	a1,32(sp)
    800011f6:	4601                	li	a2,0
    800011f8:	e02e                	sd	a1,0(sp)
    800011fa:	00c50a63          	beq	a0,a2,8000120e <_ZN7rustsbi5ecall5timer21handle_ecall_timer_6417hd9a001a92e2d2a8aE+0x20>
    800011fe:	a009                	j	80001200 <_ZN7rustsbi5ecall5timer21handle_ecall_timer_6417hd9a001a92e2d2a8aE+0x12>
    80001200:	00010097          	auipc	ra,0x10
    80001204:	676080e7          	jalr	1654(ra) # 80011876 <_ZN7rustsbi5ecall6SbiRet13not_supported17h26e0de556f51c772E>
    80001208:	e42a                	sd	a0,8(sp)
    8000120a:	e82e                	sd	a1,16(sp)
    8000120c:	a811                	j	80001220 <_ZN7rustsbi5ecall5timer21handle_ecall_timer_6417hd9a001a92e2d2a8aE+0x32>
    8000120e:	6502                	ld	a0,0(sp)
    80001210:	00000097          	auipc	ra,0x0
    80001214:	01a080e7          	jalr	26(ra) # 8000122a <_ZN7rustsbi5ecall5timer9set_timer17h714079e35ca36555E>
    80001218:	e42a                	sd	a0,8(sp)
    8000121a:	e82e                	sd	a1,16(sp)
    8000121c:	a009                	j	8000121e <_ZN7rustsbi5ecall5timer21handle_ecall_timer_6417hd9a001a92e2d2a8aE+0x30>
    8000121e:	a009                	j	80001220 <_ZN7rustsbi5ecall5timer21handle_ecall_timer_6417hd9a001a92e2d2a8aE+0x32>
    80001220:	6522                	ld	a0,8(sp)
    80001222:	65c2                	ld	a1,16(sp)
    80001224:	70a2                	ld	ra,40(sp)
    80001226:	6145                	addi	sp,sp,48
    80001228:	8082                	ret

000000008000122a <_ZN7rustsbi5ecall5timer9set_timer17h714079e35ca36555E>:
    8000122a:	7179                	addi	sp,sp,-48
    8000122c:	f406                	sd	ra,40(sp)
    8000122e:	ec2a                	sd	a0,24(sp)
    80001230:	f02a                	sd	a0,32(sp)
    80001232:	00004097          	auipc	ra,0x4
    80001236:	b20080e7          	jalr	-1248(ra) # 80004d52 <_ZN7rustsbi5timer9set_timer17hc5190d26471216ccE>
    8000123a:	e02a                	sd	a0,0(sp)
    8000123c:	a009                	j	8000123e <_ZN7rustsbi5ecall5timer9set_timer17h714079e35ca36555E+0x14>
    8000123e:	6502                	ld	a0,0(sp)
    80001240:	e909                	bnez	a0,80001252 <_ZN7rustsbi5ecall5timer9set_timer17h714079e35ca36555E+0x28>
    80001242:	a009                	j	80001244 <_ZN7rustsbi5ecall5timer9set_timer17h714079e35ca36555E+0x1a>
    80001244:	00010097          	auipc	ra,0x10
    80001248:	632080e7          	jalr	1586(ra) # 80011876 <_ZN7rustsbi5ecall6SbiRet13not_supported17h26e0de556f51c772E>
    8000124c:	e42a                	sd	a0,8(sp)
    8000124e:	e82e                	sd	a1,16(sp)
    80001250:	a809                	j	80001262 <_ZN7rustsbi5ecall5timer9set_timer17h714079e35ca36555E+0x38>
    80001252:	4501                	li	a0,0
    80001254:	00010097          	auipc	ra,0x10
    80001258:	60e080e7          	jalr	1550(ra) # 80011862 <_ZN7rustsbi5ecall6SbiRet2ok17hd143bdffa6f06fdbE>
    8000125c:	e42a                	sd	a0,8(sp)
    8000125e:	e82e                	sd	a1,16(sp)
    80001260:	a009                	j	80001262 <_ZN7rustsbi5ecall5timer9set_timer17h714079e35ca36555E+0x38>
    80001262:	6522                	ld	a0,8(sp)
    80001264:	65c2                	ld	a1,16(sp)
    80001266:	70a2                	ld	ra,40(sp)
    80001268:	6145                	addi	sp,sp,48
    8000126a:	8082                	ret
    8000126c:	0000                	unimp
	...

0000000080001270 <_start_trap>:
    80001270:	34011173          	csrrw	sp,mscratch,sp
    80001274:	00011463          	bnez	sp,8000127c <_start_trap+0xc>
    80001278:	34001173          	csrrw	sp,mscratch,zero
    8000127c:	7119                	addi	sp,sp,-128
    8000127e:	e006                	sd	ra,0(sp)
    80001280:	e416                	sd	t0,8(sp)
    80001282:	e81a                	sd	t1,16(sp)
    80001284:	ec1e                	sd	t2,24(sp)
    80001286:	f072                	sd	t3,32(sp)
    80001288:	f476                	sd	t4,40(sp)
    8000128a:	f87a                	sd	t5,48(sp)
    8000128c:	fc7e                	sd	t6,56(sp)
    8000128e:	e0aa                	sd	a0,64(sp)
    80001290:	e4ae                	sd	a1,72(sp)
    80001292:	e8b2                	sd	a2,80(sp)
    80001294:	ecb6                	sd	a3,88(sp)
    80001296:	f0ba                	sd	a4,96(sp)
    80001298:	f4be                	sd	a5,104(sp)
    8000129a:	f8c2                	sd	a6,112(sp)
    8000129c:	fcc6                	sd	a7,120(sp)
    8000129e:	850a                	mv	a0,sp
    800012a0:	00001097          	auipc	ra,0x1
    800012a4:	c62080e7          	jalr	-926(ra) # 80001f02 <_start_trap_rust>
    800012a8:	6082                	ld	ra,0(sp)
    800012aa:	62a2                	ld	t0,8(sp)
    800012ac:	6342                	ld	t1,16(sp)
    800012ae:	63e2                	ld	t2,24(sp)
    800012b0:	7e02                	ld	t3,32(sp)
    800012b2:	7ea2                	ld	t4,40(sp)
    800012b4:	7f42                	ld	t5,48(sp)
    800012b6:	7fe2                	ld	t6,56(sp)
    800012b8:	6506                	ld	a0,64(sp)
    800012ba:	65a6                	ld	a1,72(sp)
    800012bc:	6646                	ld	a2,80(sp)
    800012be:	66e6                	ld	a3,88(sp)
    800012c0:	7706                	ld	a4,96(sp)
    800012c2:	77a6                	ld	a5,104(sp)
    800012c4:	7846                	ld	a6,112(sp)
    800012c6:	78e6                	ld	a7,120(sp)
    800012c8:	6109                	addi	sp,sp,128
    800012ca:	34011173          	csrrw	sp,mscratch,sp
    800012ce:	30200073          	mret

00000000800012d2 <_ZN12rustsbi_qemu12s_mode_start17h9533551c6eae94e1E>:
    800012d2:	00000097          	auipc	ra,0x0
    800012d6:	00e0b083          	ld	ra,14(ra) # 800012e0 <_ZN12rustsbi_qemu12s_mode_start17h9533551c6eae94e1E+0xe>
    800012da:	8082                	ret
    800012dc:	00000013          	nop
    800012e0:	0000                	unimp
    800012e2:	8020                	0x8020
    800012e4:	0000                	unimp
    800012e6:	0000                	unimp
	...

00000000800012ea <rust_begin_unwind>:
    800012ea:	7151                	addi	sp,sp,-240
    800012ec:	f586                	sd	ra,232(sp)
    800012ee:	fc2a                	sd	a0,56(sp)
    800012f0:	00004097          	auipc	ra,0x4
    800012f4:	2d8080e7          	jalr	728(ra) # 800055c8 <_ZN5riscv8register7mhartid4read17h8ad56d75c42207ffE>
    800012f8:	e0aa                	sd	a0,64(sp)
    800012fa:	a009                	j	800012fc <.LBB0_10>

00000000800012fc <.LBB0_10>:
    800012fc:	00014517          	auipc	a0,0x14
    80001300:	f6450513          	addi	a0,a0,-156 # 80015260 <.L__unnamed_2>
    80001304:	610c                	ld	a1,0(a0)
    80001306:	0088                	addi	a0,sp,64
    80001308:	ed2a                	sd	a0,152(sp)
    8000130a:	1830                	addi	a2,sp,56
    8000130c:	f132                	sd	a2,160(sp)
    8000130e:	edaa                	sd	a0,216(sp)
    80001310:	f1b2                	sd	a2,224(sp)

0000000080001312 <.LBB0_11>:
    80001312:	00014697          	auipc	a3,0x14
    80001316:	87468693          	addi	a3,a3,-1932 # 80014b86 <_ZN4core3fmt3num3imp52_$LT$impl$u20$core..fmt..Display$u20$for$u20$u64$GT$3fmt17h73e59651b6b610e4E>
    8000131a:	f82e                	sd	a1,48(sp)
    8000131c:	85b6                	mv	a1,a3
    8000131e:	f432                	sd	a2,40(sp)
    80001320:	00010097          	auipc	ra,0x10
    80001324:	dc6080e7          	jalr	-570(ra) # 800110e6 <_ZN4core3fmt10ArgumentV13new17h139910a4747f5ab1E>
    80001328:	f02a                	sd	a0,32(sp)
    8000132a:	ec2e                	sd	a1,24(sp)
    8000132c:	a009                	j	8000132e <.LBB0_12>

000000008000132e <.LBB0_12>:
    8000132e:	00002597          	auipc	a1,0x2
    80001332:	4be58593          	addi	a1,a1,1214 # 800037ec <_ZN44_$LT$$RF$T$u20$as$u20$core..fmt..Display$GT$3fmt17h204b750755a9c5b8E>
    80001336:	7522                	ld	a0,40(sp)
    80001338:	00003097          	auipc	ra,0x3
    8000133c:	e44080e7          	jalr	-444(ra) # 8000417c <_ZN4core3fmt10ArgumentV13new17h2f1205f84217c795E>
    80001340:	e82a                	sd	a0,16(sp)
    80001342:	e42e                	sd	a1,8(sp)
    80001344:	a009                	j	80001346 <.LBB0_12+0x18>
    80001346:	7502                	ld	a0,32(sp)
    80001348:	fcaa                	sd	a0,120(sp)
    8000134a:	65e2                	ld	a1,24(sp)
    8000134c:	e12e                	sd	a1,128(sp)
    8000134e:	6642                	ld	a2,16(sp)
    80001350:	e532                	sd	a2,136(sp)
    80001352:	66a2                	ld	a3,8(sp)
    80001354:	e936                	sd	a3,144(sp)
    80001356:	00a8                	addi	a0,sp,72
    80001358:	460d                	li	a2,3
    8000135a:	18b4                	addi	a3,sp,120
    8000135c:	4709                	li	a4,2
    8000135e:	75c2                	ld	a1,48(sp)
    80001360:	00004097          	auipc	ra,0x4
    80001364:	dca080e7          	jalr	-566(ra) # 8000512a <_ZN4core3fmt9Arguments6new_v117ha69c9f43a347f7ebE>
    80001368:	a009                	j	8000136a <.LBB0_12+0x3c>
    8000136a:	00a8                	addi	a0,sp,72
    8000136c:	00010097          	auipc	ra,0x10
    80001370:	85a080e7          	jalr	-1958(ra) # 80010bc6 <_ZN7rustsbi12legacy_stdio6_print17h82cadf7314687513E>
    80001374:	a009                	j	80001376 <.LBB0_13>

0000000080001376 <.LBB0_13>:
    80001376:	00014517          	auipc	a0,0x14
    8000137a:	f4250513          	addi	a0,a0,-190 # 800152b8 <.L__unnamed_3>
    8000137e:	610c                	ld	a1,0(a0)

0000000080001380 <.LBB0_14>:
    80001380:	00014517          	auipc	a0,0x14
    80001384:	f4050513          	addi	a0,a0,-192 # 800152c0 <.L__unnamed_4>
    80001388:	6114                	ld	a3,0(a0)
    8000138a:	1128                	addi	a0,sp,168
    8000138c:	4605                	li	a2,1
    8000138e:	4701                	li	a4,0
    80001390:	00004097          	auipc	ra,0x4
    80001394:	d9a080e7          	jalr	-614(ra) # 8000512a <_ZN4core3fmt9Arguments6new_v117ha69c9f43a347f7ebE>
    80001398:	a009                	j	8000139a <.LBB0_14+0x1a>
    8000139a:	1128                	addi	a0,sp,168
    8000139c:	00010097          	auipc	ra,0x10
    800013a0:	82a080e7          	jalr	-2006(ra) # 80010bc6 <_ZN7rustsbi12legacy_stdio6_print17h82cadf7314687513E>
    800013a4:	a009                	j	800013a6 <.LBB0_15>

00000000800013a6 <.LBB0_15>:
    800013a6:	00014517          	auipc	a0,0x14
    800013aa:	f1a50513          	addi	a0,a0,-230 # 800152c0 <.L__unnamed_4>
    800013ae:	6108                	ld	a0,0(a0)
    800013b0:	4581                	li	a1,0
    800013b2:	4605                	li	a2,1
    800013b4:	00003097          	auipc	ra,0x3
    800013b8:	e2e080e7          	jalr	-466(ra) # 800041e2 <_ZN66_$LT$rustsbi_qemu..hal..Reset$u20$as$u20$rustsbi..reset..Reset$GT$12system_reset17h4629bd1a80d3d6d6E>
    800013bc:	a009                	j	800013be <.LBB0_15+0x18>
    800013be:	a009                	j	800013c0 <.LBB0_15+0x1a>
    800013c0:	a001                	j	800013c0 <.LBB0_15+0x1a>

00000000800013c2 <rust_oom>:
    800013c2:	1141                	addi	sp,sp,-16
    800013c4:	e02a                	sd	a0,0(sp)
    800013c6:	e42e                	sd	a1,8(sp)
    800013c8:	a009                	j	800013ca <rust_oom+0x8>
    800013ca:	a001                	j	800013ca <rust_oom+0x8>

00000000800013cc <_ZN12rustsbi_qemu7mp_hook17h1045c4930f7fc5d7E>:
    800013cc:	7139                	addi	sp,sp,-64
    800013ce:	fc06                	sd	ra,56(sp)
    800013d0:	00004097          	auipc	ra,0x4
    800013d4:	1f8080e7          	jalr	504(ra) # 800055c8 <_ZN5riscv8register7mhartid4read17h8ad56d75c42207ffE>
    800013d8:	85aa                	mv	a1,a0
    800013da:	f82a                	sd	a0,48(sp)
    800013dc:	e82e                	sd	a1,16(sp)
    800013de:	a009                	j	800013e0 <_ZN12rustsbi_qemu7mp_hook17h1045c4930f7fc5d7E+0x14>
    800013e0:	4501                	li	a0,0
    800013e2:	65c2                	ld	a1,16(sp)
    800013e4:	00a58b63          	beq	a1,a0,800013fa <_ZN12rustsbi_qemu7mp_hook17h1045c4930f7fc5d7E+0x2e>
    800013e8:	a009                	j	800013ea <_ZN12rustsbi_qemu7mp_hook17h1045c4930f7fc5d7E+0x1e>
    800013ea:	02000537          	lui	a0,0x2000
    800013ee:	00003097          	auipc	ra,0x3
    800013f2:	fe8080e7          	jalr	-24(ra) # 800043d6 <_ZN12rustsbi_qemu3hal5clint5Clint3new17hc52a5531fa5adfb4E>
    800013f6:	f02a                	sd	a0,32(sp)
    800013f8:	a029                	j	80001402 <_ZN12rustsbi_qemu7mp_hook17h1045c4930f7fc5d7E+0x36>
    800013fa:	4505                	li	a0,1
    800013fc:	00a10fa3          	sb	a0,31(sp)
    80001400:	a0a5                	j	80001468 <_ZN12rustsbi_qemu7mp_hook17h1045c4930f7fc5d7E+0x9c>
    80001402:	1008                	addi	a0,sp,32
    80001404:	65c2                	ld	a1,16(sp)
    80001406:	00003097          	auipc	ra,0x3
    8000140a:	07c080e7          	jalr	124(ra) # 80004482 <_ZN12rustsbi_qemu3hal5clint5Clint10clear_soft17he64bbb7f19c94259E>
    8000140e:	a009                	j	80001410 <_ZN12rustsbi_qemu7mp_hook17h1045c4930f7fc5d7E+0x44>
    80001410:	00004097          	auipc	ra,0x4
    80001414:	cde080e7          	jalr	-802(ra) # 800050ee <_ZN5riscv8register3mie9set_msoft17hd69ca32c91681ca8E>
    80001418:	a009                	j	8000141a <_ZN12rustsbi_qemu7mp_hook17h1045c4930f7fc5d7E+0x4e>
    8000141a:	a009                	j	8000141c <_ZN12rustsbi_qemu7mp_hook17h1045c4930f7fc5d7E+0x50>
    8000141c:	00002097          	auipc	ra,0x2
    80001420:	afe080e7          	jalr	-1282(ra) # 80002f1a <_ZN5riscv3asm3wfi17ha900428e78b8cb2cE>
    80001424:	a009                	j	80001426 <_ZN12rustsbi_qemu7mp_hook17h1045c4930f7fc5d7E+0x5a>
    80001426:	fffff097          	auipc	ra,0xfffff
    8000142a:	d3c080e7          	jalr	-708(ra) # 80000162 <_ZN5riscv8register3mip4read17h4a8807f030724092E>
    8000142e:	f42a                	sd	a0,40(sp)
    80001430:	a009                	j	80001432 <_ZN12rustsbi_qemu7mp_hook17h1045c4930f7fc5d7E+0x66>
    80001432:	1028                	addi	a0,sp,40
    80001434:	fffff097          	auipc	ra,0xfffff
    80001438:	d06080e7          	jalr	-762(ra) # 8000013a <_ZN5riscv8register3mip3Mip5msoft17h3285e65344d45e42E>
    8000143c:	e42a                	sd	a0,8(sp)
    8000143e:	a009                	j	80001440 <_ZN12rustsbi_qemu7mp_hook17h1045c4930f7fc5d7E+0x74>
    80001440:	6522                	ld	a0,8(sp)
    80001442:	e119                	bnez	a0,80001448 <_ZN12rustsbi_qemu7mp_hook17h1045c4930f7fc5d7E+0x7c>
    80001444:	a009                	j	80001446 <_ZN12rustsbi_qemu7mp_hook17h1045c4930f7fc5d7E+0x7a>
    80001446:	bfd9                	j	8000141c <_ZN12rustsbi_qemu7mp_hook17h1045c4930f7fc5d7E+0x50>
    80001448:	00004097          	auipc	ra,0x4
    8000144c:	c46080e7          	jalr	-954(ra) # 8000508e <_ZN5riscv8register3mie11clear_msoft17hbe52cf92beed1b89E>
    80001450:	a009                	j	80001452 <_ZN12rustsbi_qemu7mp_hook17h1045c4930f7fc5d7E+0x86>
    80001452:	1008                	addi	a0,sp,32
    80001454:	65c2                	ld	a1,16(sp)
    80001456:	00003097          	auipc	ra,0x3
    8000145a:	02c080e7          	jalr	44(ra) # 80004482 <_ZN12rustsbi_qemu3hal5clint5Clint10clear_soft17he64bbb7f19c94259E>
    8000145e:	a009                	j	80001460 <_ZN12rustsbi_qemu7mp_hook17h1045c4930f7fc5d7E+0x94>
    80001460:	4501                	li	a0,0
    80001462:	00a10fa3          	sb	a0,31(sp)
    80001466:	a009                	j	80001468 <_ZN12rustsbi_qemu7mp_hook17h1045c4930f7fc5d7E+0x9c>
    80001468:	01f14503          	lbu	a0,31(sp)
    8000146c:	70e2                	ld	ra,56(sp)
    8000146e:	6121                	addi	sp,sp,64
    80001470:	8082                	ret

0000000080001472 <main>:
    80001472:	ac010113          	addi	sp,sp,-1344
    80001476:	52113c23          	sd	ra,1336(sp)
    8000147a:	feae                	sd	a1,376(sp)
    8000147c:	852e                	mv	a0,a1
    8000147e:	48b13823          	sd	a1,1168(sp)
    80001482:	faaa                	sd	a0,368(sp)
    80001484:	00000097          	auipc	ra,0x0
    80001488:	f48080e7          	jalr	-184(ra) # 800013cc <_ZN12rustsbi_qemu7mp_hook17h1045c4930f7fc5d7E>
    8000148c:	f6aa                	sd	a0,360(sp)
    8000148e:	a009                	j	80001490 <main+0x1e>
    80001490:	7536                	ld	a0,360(sp)
    80001492:	e119                	bnez	a0,80001498 <main+0x26>
    80001494:	a009                	j	80001496 <main+0x24>
    80001496:	a011                	j	8000149a <.LBB4_104>
    80001498:	a009                	j	8000149a <.LBB4_104>

000000008000149a <.LBB4_104>:
    8000149a:	00000517          	auipc	a0,0x0
    8000149e:	dd650513          	addi	a0,a0,-554 # 80001270 <_start_trap>
    800014a2:	4581                	li	a1,0
    800014a4:	fffff097          	auipc	ra,0xfffff
    800014a8:	cfa080e7          	jalr	-774(ra) # 8000019e <_ZN5riscv8register5mtvec5write17h32bc8733131e6c4cE>
    800014ac:	a009                	j	800014ae <.LBB4_104+0x14>
    800014ae:	00004097          	auipc	ra,0x4
    800014b2:	11a080e7          	jalr	282(ra) # 800055c8 <_ZN5riscv8register7mhartid4read17h8ad56d75c42207ffE>
    800014b6:	f2aa                	sd	a0,352(sp)
    800014b8:	a009                	j	800014ba <.LBB4_104+0x20>
    800014ba:	4501                	li	a0,0
    800014bc:	7596                	ld	a1,352(sp)
    800014be:	00a58463          	beq	a1,a0,800014c6 <.LBB4_105>
    800014c2:	a009                	j	800014c4 <.LBB4_104+0x2a>
    800014c4:	a8ed                	j	800015be <.LBB4_109+0xa8>

00000000800014c6 <.LBB4_105>:
    800014c6:	00018517          	auipc	a0,0x18
    800014ca:	06a50513          	addi	a0,a0,106 # 80019530 <_ebss>
    800014ce:	48a13c23          	sd	a0,1176(sp)

00000000800014d2 <.LBB4_106>:
    800014d2:	8001f517          	auipc	a0,0x8001f
    800014d6:	b2e50513          	addi	a0,a0,-1234 # 20000 <_heap_size>
    800014da:	4aa13023          	sd	a0,1184(sp)

00000000800014de <.LBB4_107>:
    800014de:	00018517          	auipc	a0,0x18
    800014e2:	f0a50513          	addi	a0,a0,-246 # 800193e8 <_ZN12rustsbi_qemu9ALLOCATOR17h3765a4724dd2f87cE>
    800014e6:	0000c097          	auipc	ra,0xc
    800014ea:	b30080e7          	jalr	-1232(ra) # 8000d016 <_ZN77_$LT$linked_list_allocator..LockedHeap$u20$as$u20$core..ops..deref..Deref$GT$5deref17h4221d713eb21bdd4E>
    800014ee:	eeaa                	sd	a0,344(sp)
    800014f0:	a009                	j	800014f2 <.LBB4_107+0x14>
    800014f2:	6576                	ld	a0,344(sp)
    800014f4:	0000c097          	auipc	ra,0xc
    800014f8:	9a6080e7          	jalr	-1626(ra) # 8000ce9a <_ZN8lock_api5mutex18Mutex$LT$R$C$T$GT$4lock17ha1bb6a2b33d67817E>
    800014fc:	e32a                	sd	a0,384(sp)
    800014fe:	a009                	j	80001500 <.LBB4_107+0x22>
    80001500:	0308                	addi	a0,sp,384
    80001502:	0000c097          	auipc	ra,0xc
    80001506:	97a080e7          	jalr	-1670(ra) # 8000ce7c <_ZN87_$LT$lock_api..mutex..MutexGuard$LT$R$C$T$GT$$u20$as$u20$core..ops..deref..DerefMut$GT$9deref_mut17h16bb158da4270eeeE>
    8000150a:	eaaa                	sd	a0,336(sp)
    8000150c:	a009                	j	8000150e <.LBB4_108>

000000008000150e <.LBB4_108>:
    8000150e:	00018597          	auipc	a1,0x18
    80001512:	02258593          	addi	a1,a1,34 # 80019530 <_ebss>

0000000080001516 <.LBB4_109>:
    80001516:	8001f617          	auipc	a2,0x8001f
    8000151a:	aea60613          	addi	a2,a2,-1302 # 20000 <_heap_size>
    8000151e:	6556                	ld	a0,336(sp)
    80001520:	0000c097          	auipc	ra,0xc
    80001524:	9b4080e7          	jalr	-1612(ra) # 8000ced4 <_ZN21linked_list_allocator4Heap4init17h47d587d1b1a187d0E>
    80001528:	a009                	j	8000152a <.LBB4_109+0x14>
    8000152a:	0308                	addi	a0,sp,384
    8000152c:	0000c097          	auipc	ra,0xc
    80001530:	922080e7          	jalr	-1758(ra) # 8000ce4e <_ZN4core3ptr13drop_in_place17hfde85ab9421fb7cfE>
    80001534:	a009                	j	80001536 <.LBB4_109+0x20>
    80001536:	6571                	lui	a0,0x1c
    80001538:	2005069b          	addiw	a3,a0,512
    8000153c:	10000537          	lui	a0,0x10000
    80001540:	4581                	li	a1,0
    80001542:	00a8c637          	lui	a2,0xa8c
    80001546:	00001097          	auipc	ra,0x1
    8000154a:	408080e7          	jalr	1032(ra) # 8000294e <_ZN12rustsbi_qemu3hal8ns16550a8Ns16550a3new17ha30eadead1fed128E>
    8000154e:	862a                	mv	a2,a0
    80001550:	86ae                	mv	a3,a1
    80001552:	4aa13423          	sd	a0,1192(sp)
    80001556:	4ab13823          	sd	a1,1200(sp)
    8000155a:	e6b2                	sd	a2,328(sp)
    8000155c:	e2b6                	sd	a3,320(sp)
    8000155e:	a009                	j	80001560 <.LBB4_109+0x4a>
    80001560:	6536                	ld	a0,328(sp)
    80001562:	6596                	ld	a1,320(sp)
    80001564:	00003097          	auipc	ra,0x3
    80001568:	3cc080e7          	jalr	972(ra) # 80004930 <_ZN7rustsbi12legacy_stdio30init_legacy_stdio_embedded_hal17h3eb883e986cfff1fE>
    8000156c:	a009                	j	8000156e <.LBB4_109+0x58>
    8000156e:	02000537          	lui	a0,0x2000
    80001572:	00003097          	auipc	ra,0x3
    80001576:	e64080e7          	jalr	-412(ra) # 800043d6 <_ZN12rustsbi_qemu3hal5clint5Clint3new17hc52a5531fa5adfb4E>
    8000157a:	85aa                	mv	a1,a0
    8000157c:	4aa13c23          	sd	a0,1208(sp)
    80001580:	fe2e                	sd	a1,312(sp)
    80001582:	a009                	j	80001584 <.LBB4_109+0x6e>
    80001584:	7572                	ld	a0,312(sp)
    80001586:	fffff097          	auipc	ra,0xfffff
    8000158a:	2bc080e7          	jalr	700(ra) # 80000842 <_ZN7rustsbi3ipi8init_ipi17h4823386da2a96e5cE>
    8000158e:	a009                	j	80001590 <.LBB4_109+0x7a>
    80001590:	02000537          	lui	a0,0x2000
    80001594:	00003097          	auipc	ra,0x3
    80001598:	e42080e7          	jalr	-446(ra) # 800043d6 <_ZN12rustsbi_qemu3hal5clint5Clint3new17hc52a5531fa5adfb4E>
    8000159c:	85aa                	mv	a1,a0
    8000159e:	4ca13023          	sd	a0,1216(sp)
    800015a2:	fa2e                	sd	a1,304(sp)
    800015a4:	a009                	j	800015a6 <.LBB4_109+0x90>
    800015a6:	7552                	ld	a0,304(sp)
    800015a8:	fffff097          	auipc	ra,0xfffff
    800015ac:	424080e7          	jalr	1060(ra) # 800009cc <_ZN7rustsbi5timer10init_timer17hdbddd833b58b7279E>
    800015b0:	a009                	j	800015b2 <.LBB4_109+0x9c>
    800015b2:	00000097          	auipc	ra,0x0
    800015b6:	ac8080e7          	jalr	-1336(ra) # 8000107a <_ZN7rustsbi5reset10init_reset17h7a7dcf4421e3b03cE>
    800015ba:	a009                	j	800015bc <.LBB4_109+0xa6>
    800015bc:	a009                	j	800015be <.LBB4_109+0xa8>
    800015be:	fffff097          	auipc	ra,0xfffff
    800015c2:	58c080e7          	jalr	1420(ra) # 80000b4a <_ZN5riscv8register7mideleg8set_sext17h8d12a3d2178dfe1eE>
    800015c6:	a009                	j	800015c8 <.LBB4_109+0xb2>
    800015c8:	fffff097          	auipc	ra,0xfffff
    800015cc:	52e080e7          	jalr	1326(ra) # 80000af6 <_ZN5riscv8register7mideleg10set_stimer17hb68bf017d6cfd00fE>
    800015d0:	a009                	j	800015d2 <.LBB4_109+0xbc>
    800015d2:	fffff097          	auipc	ra,0xfffff
    800015d6:	590080e7          	jalr	1424(ra) # 80000b62 <_ZN5riscv8register7mideleg9set_ssoft17hd9df596c9113a35dE>
    800015da:	a009                	j	800015dc <.LBB4_109+0xc6>
    800015dc:	00003097          	auipc	ra,0x3
    800015e0:	ad2080e7          	jalr	-1326(ra) # 800040ae <_ZN5riscv8register7medeleg26set_instruction_misaligned17h9b4d085b2460d1b9E>
    800015e4:	a009                	j	800015e6 <.LBB4_109+0xd0>
    800015e6:	00003097          	auipc	ra,0x3
    800015ea:	a28080e7          	jalr	-1496(ra) # 8000400e <_ZN5riscv8register7medeleg14set_breakpoint17hcff60e7dac393b39E>
    800015ee:	a009                	j	800015f0 <.LBB4_109+0xda>
    800015f0:	00003097          	auipc	ra,0x3
    800015f4:	a64080e7          	jalr	-1436(ra) # 80004054 <_ZN5riscv8register7medeleg17set_user_env_call17h40d81b5235af1890E>
    800015f8:	a009                	j	800015fa <.LBB4_109+0xe4>
    800015fa:	00003097          	auipc	ra,0x3
    800015fe:	aca080e7          	jalr	-1334(ra) # 800040c4 <_ZN5riscv8register7medeleg26set_instruction_page_fault17h1f1dd9857497013bE>
    80001602:	a009                	j	80001604 <.LBB4_109+0xee>
    80001604:	00003097          	auipc	ra,0x3
    80001608:	a68080e7          	jalr	-1432(ra) # 8000406c <_ZN5riscv8register7medeleg19set_load_page_fault17hf0a3a7b5ccbc610eE>
    8000160c:	a009                	j	8000160e <.LBB4_109+0xf8>
    8000160e:	00003097          	auipc	ra,0x3
    80001612:	a74080e7          	jalr	-1420(ra) # 80004082 <_ZN5riscv8register7medeleg20set_store_page_fault17h900b340f11b8aec8E>
    80001616:	a009                	j	80001618 <.LBB4_109+0x102>
    80001618:	00003097          	auipc	ra,0x3
    8000161c:	a80080e7          	jalr	-1408(ra) # 80004098 <_ZN5riscv8register7medeleg21set_instruction_fault17h83126a2b5bd8ad3fE>
    80001620:	a009                	j	80001622 <.LBB4_109+0x10c>
    80001622:	00003097          	auipc	ra,0x3
    80001626:	a02080e7          	jalr	-1534(ra) # 80004024 <_ZN5riscv8register7medeleg14set_load_fault17h2fc328487350abd2E>
    8000162a:	a009                	j	8000162c <.LBB4_109+0x116>
    8000162c:	00003097          	auipc	ra,0x3
    80001630:	a10080e7          	jalr	-1520(ra) # 8000403c <_ZN5riscv8register7medeleg15set_store_fault17h5610bfa281b3a84dE>
    80001634:	a009                	j	80001636 <.LBB4_109+0x120>
    80001636:	00004097          	auipc	ra,0x4
    8000163a:	a9e080e7          	jalr	-1378(ra) # 800050d4 <_ZN5riscv8register3mie8set_mext17h0cfa84ac63546062E>
    8000163e:	a009                	j	80001640 <.LBB4_109+0x12a>
    80001640:	00004097          	auipc	ra,0x4
    80001644:	aae080e7          	jalr	-1362(ra) # 800050ee <_ZN5riscv8register3mie9set_msoft17hd69ca32c91681ca8E>
    80001648:	a009                	j	8000164a <.LBB4_109+0x134>
    8000164a:	00004097          	auipc	ra,0x4
    8000164e:	f7e080e7          	jalr	-130(ra) # 800055c8 <_ZN5riscv8register7mhartid4read17h8ad56d75c42207ffE>
    80001652:	f62a                	sd	a0,296(sp)
    80001654:	a009                	j	80001656 <.LBB4_109+0x140>
    80001656:	4501                	li	a0,0
    80001658:	75b2                	ld	a1,296(sp)
    8000165a:	00a58463          	beq	a1,a0,80001662 <.LBB4_110>
    8000165e:	a009                	j	80001660 <.LBB4_109+0x14a>
    80001660:	a3a9                	j	80001baa <.LBB4_137>

0000000080001662 <.LBB4_110>:
    80001662:	00014517          	auipc	a0,0x14
    80001666:	ca650513          	addi	a0,a0,-858 # 80015308 <.L__unnamed_5>
    8000166a:	610c                	ld	a1,0(a0)

000000008000166c <.LBB4_111>:
    8000166c:	00014517          	auipc	a0,0x14
    80001670:	cbc50513          	addi	a0,a0,-836 # 80015328 <.L__unnamed_6>
    80001674:	6108                	ld	a0,0(a0)
    80001676:	e7aa                	sd	a0,456(sp)
    80001678:	4ca13423          	sd	a0,1224(sp)

000000008000167c <.LBB4_112>:
    8000167c:	00010617          	auipc	a2,0x10
    80001680:	a1c60613          	addi	a2,a2,-1508 # 80011098 <_ZN44_$LT$$RF$T$u20$as$u20$core..fmt..Display$GT$3fmt17h0c692723d33d5ef5E>
    80001684:	f22e                	sd	a1,288(sp)
    80001686:	85b2                	mv	a1,a2
    80001688:	00010097          	auipc	ra,0x10
    8000168c:	a80080e7          	jalr	-1408(ra) # 80011108 <_ZN4core3fmt10ArgumentV13new17hfc7403bcd71cb89eE>
    80001690:	ee2a                	sd	a0,280(sp)
    80001692:	ea2e                	sd	a1,272(sp)
    80001694:	a009                	j	80001696 <.LBB4_112+0x1a>
    80001696:	6572                	ld	a0,280(sp)
    80001698:	ff2a                	sd	a0,440(sp)
    8000169a:	65d2                	ld	a1,272(sp)
    8000169c:	e3ae                	sd	a1,448(sp)
    8000169e:	0328                	addi	a0,sp,392
    800016a0:	4609                	li	a2,2
    800016a2:	1b34                	addi	a3,sp,440
    800016a4:	4705                	li	a4,1
    800016a6:	7592                	ld	a1,288(sp)
    800016a8:	00004097          	auipc	ra,0x4
    800016ac:	a82080e7          	jalr	-1406(ra) # 8000512a <_ZN4core3fmt9Arguments6new_v117ha69c9f43a347f7ebE>
    800016b0:	a009                	j	800016b2 <.LBB4_112+0x36>
    800016b2:	0328                	addi	a0,sp,392
    800016b4:	0000f097          	auipc	ra,0xf
    800016b8:	512080e7          	jalr	1298(ra) # 80010bc6 <_ZN7rustsbi12legacy_stdio6_print17h82cadf7314687513E>
    800016bc:	a009                	j	800016be <.LBB4_113>

00000000800016be <.LBB4_113>:
    800016be:	00014517          	auipc	a0,0x14
    800016c2:	c9250513          	addi	a0,a0,-878 # 80015350 <.L__unnamed_7>
    800016c6:	610c                	ld	a1,0(a0)

00000000800016c8 <.LBB4_114>:
    800016c8:	00014517          	auipc	a0,0x14
    800016cc:	e5850513          	addi	a0,a0,-424 # 80015520 <.L__unnamed_8>
    800016d0:	6108                	ld	a0,0(a0)
    800016d2:	20a13823          	sd	a0,528(sp)
    800016d6:	4ca13823          	sd	a0,1232(sp)

00000000800016da <.LBB4_115>:
    800016da:	00010617          	auipc	a2,0x10
    800016de:	9be60613          	addi	a2,a2,-1602 # 80011098 <_ZN44_$LT$$RF$T$u20$as$u20$core..fmt..Display$GT$3fmt17h0c692723d33d5ef5E>
    800016e2:	e62e                	sd	a1,264(sp)
    800016e4:	85b2                	mv	a1,a2
    800016e6:	00010097          	auipc	ra,0x10
    800016ea:	a22080e7          	jalr	-1502(ra) # 80011108 <_ZN4core3fmt10ArgumentV13new17hfc7403bcd71cb89eE>
    800016ee:	e22a                	sd	a0,256(sp)
    800016f0:	fdae                	sd	a1,248(sp)
    800016f2:	a009                	j	800016f4 <.LBB4_115+0x1a>
    800016f4:	6512                	ld	a0,256(sp)
    800016f6:	20a13023          	sd	a0,512(sp)
    800016fa:	75ee                	ld	a1,248(sp)
    800016fc:	20b13423          	sd	a1,520(sp)
    80001700:	0b88                	addi	a0,sp,464
    80001702:	4609                	li	a2,2
    80001704:	0414                	addi	a3,sp,512
    80001706:	4705                	li	a4,1
    80001708:	65b2                	ld	a1,264(sp)
    8000170a:	00004097          	auipc	ra,0x4
    8000170e:	a20080e7          	jalr	-1504(ra) # 8000512a <_ZN4core3fmt9Arguments6new_v117ha69c9f43a347f7ebE>
    80001712:	a009                	j	80001714 <.LBB4_115+0x3a>
    80001714:	0b88                	addi	a0,sp,464
    80001716:	0000f097          	auipc	ra,0xf
    8000171a:	4b0080e7          	jalr	1200(ra) # 80010bc6 <_ZN7rustsbi12legacy_stdio6_print17h82cadf7314687513E>
    8000171e:	a009                	j	80001720 <.LBB4_116>

0000000080001720 <.LBB4_116>:
    80001720:	00014517          	auipc	a0,0x14
    80001724:	e5050513          	addi	a0,a0,-432 # 80015570 <.L__unnamed_9>
    80001728:	610c                	ld	a1,0(a0)

000000008000172a <.LBB4_117>:
    8000172a:	00014517          	auipc	a0,0x14
    8000172e:	e6650513          	addi	a0,a0,-410 # 80015590 <.L__unnamed_10>
    80001732:	6108                	ld	a0,0(a0)
    80001734:	24a13c23          	sd	a0,600(sp)
    80001738:	4ca13c23          	sd	a0,1240(sp)

000000008000173c <.LBB4_118>:
    8000173c:	00010617          	auipc	a2,0x10
    80001740:	95c60613          	addi	a2,a2,-1700 # 80011098 <_ZN44_$LT$$RF$T$u20$as$u20$core..fmt..Display$GT$3fmt17h0c692723d33d5ef5E>
    80001744:	f9ae                	sd	a1,240(sp)
    80001746:	85b2                	mv	a1,a2
    80001748:	00010097          	auipc	ra,0x10
    8000174c:	9c0080e7          	jalr	-1600(ra) # 80011108 <_ZN4core3fmt10ArgumentV13new17hfc7403bcd71cb89eE>
    80001750:	f5aa                	sd	a0,232(sp)
    80001752:	f1ae                	sd	a1,224(sp)
    80001754:	a009                	j	80001756 <.LBB4_118+0x1a>
    80001756:	752e                	ld	a0,232(sp)
    80001758:	24a13423          	sd	a0,584(sp)
    8000175c:	758e                	ld	a1,224(sp)
    8000175e:	24b13823          	sd	a1,592(sp)
    80001762:	0c28                	addi	a0,sp,536
    80001764:	4609                	li	a2,2
    80001766:	04b4                	addi	a3,sp,584
    80001768:	4705                	li	a4,1
    8000176a:	75ce                	ld	a1,240(sp)
    8000176c:	00004097          	auipc	ra,0x4
    80001770:	9be080e7          	jalr	-1602(ra) # 8000512a <_ZN4core3fmt9Arguments6new_v117ha69c9f43a347f7ebE>
    80001774:	a009                	j	80001776 <.LBB4_118+0x3a>
    80001776:	0c28                	addi	a0,sp,536
    80001778:	0000f097          	auipc	ra,0xf
    8000177c:	44e080e7          	jalr	1102(ra) # 80010bc6 <_ZN7rustsbi12legacy_stdio6_print17h82cadf7314687513E>
    80001780:	a009                	j	80001782 <.LBB4_118+0x46>
    80001782:	00002097          	auipc	ra,0x2
    80001786:	11c080e7          	jalr	284(ra) # 8000389e <_ZN5riscv8register4misa4read17he3efd9af055dddb1E>
    8000178a:	26a13023          	sd	a0,608(sp)
    8000178e:	a009                	j	80001790 <.LBB4_118+0x54>
    80001790:	26013503          	ld	a0,608(sp)
    80001794:	4581                	li	a1,0
    80001796:	00b51463          	bne	a0,a1,8000179e <.LBB4_118+0x62>
    8000179a:	a009                	j	8000179c <.LBB4_118+0x60>
    8000179c:	aad5                	j	80001990 <.LBB4_128>
    8000179e:	26013503          	ld	a0,608(sp)
    800017a2:	26a13423          	sd	a0,616(sp)
    800017a6:	14a8                	addi	a0,sp,616
    800017a8:	0000b097          	auipc	ra,0xb
    800017ac:	528080e7          	jalr	1320(ra) # 8000ccd0 <_ZN5riscv8register4misa4Misa3mxl17hbadcd535c6d7847eE>
    800017b0:	0ff57513          	andi	a0,a0,255
    800017b4:	28a103a3          	sb	a0,647(sp)
    800017b8:	a009                	j	800017ba <.LBB4_118+0x7e>
    800017ba:	28714503          	lbu	a0,647(sp)
    800017be:	4581                	li	a1,0
    800017c0:	edaa                	sd	a0,216(sp)
    800017c2:	02b50363          	beq	a0,a1,800017e8 <.LBB4_120>
    800017c6:	a009                	j	800017c8 <.LBB4_118+0x8c>
    800017c8:	4505                	li	a0,1
    800017ca:	65ee                	ld	a1,216(sp)
    800017cc:	02a58863          	beq	a1,a0,800017fc <.LBB4_121>
    800017d0:	a009                	j	800017d2 <.LBB4_119>

00000000800017d2 <.LBB4_119>:
    800017d2:	00014517          	auipc	a0,0x14
    800017d6:	dc650513          	addi	a0,a0,-570 # 80015598 <.L__unnamed_11>
    800017da:	26a13823          	sd	a0,624(sp)
    800017de:	4515                	li	a0,5
    800017e0:	26a13c23          	sd	a0,632(sp)
    800017e4:	a035                	j	80001810 <.LBB4_122>
	...

00000000800017e8 <.LBB4_120>:
    800017e8:	00014517          	auipc	a0,0x14
    800017ec:	db950513          	addi	a0,a0,-583 # 800155a1 <.L__unnamed_11+0x9>
    800017f0:	26a13823          	sd	a0,624(sp)
    800017f4:	4511                	li	a0,4
    800017f6:	26a13c23          	sd	a0,632(sp)
    800017fa:	a819                	j	80001810 <.LBB4_122>

00000000800017fc <.LBB4_121>:
    800017fc:	00014517          	auipc	a0,0x14
    80001800:	dad50513          	addi	a0,a0,-595 # 800155a9 <.L__unnamed_11+0x11>
    80001804:	26a13823          	sd	a0,624(sp)
    80001808:	4511                	li	a0,4
    8000180a:	26a13c23          	sd	a0,632(sp)
    8000180e:	a009                	j	80001810 <.LBB4_122>

0000000080001810 <.LBB4_122>:
    80001810:	00014517          	auipc	a0,0x14
    80001814:	e0050513          	addi	a0,a0,-512 # 80015610 <.L__unnamed_14>
    80001818:	610c                	ld	a1,0(a0)
    8000181a:	1c88                	addi	a0,sp,624
    8000181c:	2ca13423          	sd	a0,712(sp)
    80001820:	4ea13023          	sd	a0,1248(sp)

0000000080001824 <.LBB4_123>:
    80001824:	00010617          	auipc	a2,0x10
    80001828:	87460613          	addi	a2,a2,-1932 # 80011098 <_ZN44_$LT$$RF$T$u20$as$u20$core..fmt..Display$GT$3fmt17h0c692723d33d5ef5E>
    8000182c:	e9ae                	sd	a1,208(sp)
    8000182e:	85b2                	mv	a1,a2
    80001830:	00010097          	auipc	ra,0x10
    80001834:	8d8080e7          	jalr	-1832(ra) # 80011108 <_ZN4core3fmt10ArgumentV13new17hfc7403bcd71cb89eE>
    80001838:	e5aa                	sd	a0,200(sp)
    8000183a:	e1ae                	sd	a1,192(sp)
    8000183c:	a009                	j	8000183e <.LBB4_123+0x1a>
    8000183e:	652e                	ld	a0,200(sp)
    80001840:	2aa13c23          	sd	a0,696(sp)
    80001844:	658e                	ld	a1,192(sp)
    80001846:	2cb13023          	sd	a1,704(sp)
    8000184a:	0528                	addi	a0,sp,648
    8000184c:	1d34                	addi	a3,sp,696
    8000184e:	4605                	li	a2,1
    80001850:	65ce                	ld	a1,208(sp)
    80001852:	fd32                	sd	a2,184(sp)
    80001854:	776a                	ld	a4,184(sp)
    80001856:	00004097          	auipc	ra,0x4
    8000185a:	8d4080e7          	jalr	-1836(ra) # 8000512a <_ZN4core3fmt9Arguments6new_v117ha69c9f43a347f7ebE>
    8000185e:	a009                	j	80001860 <.LBB4_123+0x3c>
    80001860:	0528                	addi	a0,sp,648
    80001862:	0000f097          	auipc	ra,0xf
    80001866:	364080e7          	jalr	868(ra) # 80010bc6 <_ZN7rustsbi12legacy_stdio6_print17h82cadf7314687513E>
    8000186a:	a009                	j	8000186c <.LBB4_123+0x48>
    8000186c:	1588                	addi	a0,sp,736
    8000186e:	04100593          	li	a1,65
    80001872:	05a00613          	li	a2,90
    80001876:	00002097          	auipc	ra,0x2
    8000187a:	d3a080e7          	jalr	-710(ra) # 800035b0 <_ZN4core3ops5range25RangeInclusive$LT$Idx$GT$3new17ha6fec62547ac07f6E>
    8000187e:	a009                	j	80001880 <.LBB4_123+0x5c>
    80001880:	0d88                	addi	a0,sp,720
    80001882:	158c                	addi	a1,sp,736
    80001884:	00002097          	auipc	ra,0x2
    80001888:	f22080e7          	jalr	-222(ra) # 800037a6 <_ZN63_$LT$I$u20$as$u20$core..iter..traits..collect..IntoIterator$GT$9into_iter17h0d2368741557e2a5E>
    8000188c:	a009                	j	8000188e <.LBB4_123+0x6a>
    8000188e:	2d812503          	lw	a0,728(sp)
    80001892:	2ea12c23          	sw	a0,760(sp)
    80001896:	2d013503          	ld	a0,720(sp)
    8000189a:	2ea13823          	sd	a0,752(sp)
    8000189e:	a009                	j	800018a0 <.LBB4_123+0x7c>
    800018a0:	1d88                	addi	a0,sp,752
    800018a2:	00002097          	auipc	ra,0x2
    800018a6:	dbe080e7          	jalr	-578(ra) # 80003660 <_ZN4core4iter5range110_$LT$impl$u20$core..iter..traits..iterator..Iterator$u20$for$u20$core..ops..range..RangeInclusive$LT$A$GT$$GT$4next17h4a0c7ad29723a823E>
    800018aa:	1502                	slli	a0,a0,0x20
    800018ac:	9101                	srli	a0,a0,0x20
    800018ae:	30a12023          	sw	a0,768(sp)
    800018b2:	a009                	j	800018b4 <.LBB4_123+0x90>
    800018b4:	30012503          	lw	a0,768(sp)
    800018b8:	ffef05b7          	lui	a1,0xffef0
    800018bc:	952e                	add	a0,a0,a1
    800018be:	1502                	slli	a0,a0,0x20
    800018c0:	9101                	srli	a0,a0,0x20
    800018c2:	00a035b3          	snez	a1,a0
    800018c6:	4601                	li	a2,0
    800018c8:	00c50463          	beq	a0,a2,800018d0 <.LBB4_124>
    800018cc:	a009                	j	800018ce <.LBB4_123+0xaa>
    800018ce:	a025                	j	800018f6 <.LBB4_125+0x1c>

00000000800018d0 <.LBB4_124>:
    800018d0:	00014517          	auipc	a0,0x14
    800018d4:	d7050513          	addi	a0,a0,-656 # 80015640 <.L__unnamed_15>
    800018d8:	610c                	ld	a1,0(a0)

00000000800018da <.LBB4_125>:
    800018da:	00014517          	auipc	a0,0x14
    800018de:	9e650513          	addi	a0,a0,-1562 # 800152c0 <.L__unnamed_4>
    800018e2:	6114                	ld	a3,0(a0)
    800018e4:	0e88                	addi	a0,sp,848
    800018e6:	4605                	li	a2,1
    800018e8:	4701                	li	a4,0
    800018ea:	00004097          	auipc	ra,0x4
    800018ee:	840080e7          	jalr	-1984(ra) # 8000512a <_ZN4core3fmt9Arguments6new_v117ha69c9f43a347f7ebE>
    800018f2:	a841                	j	80001982 <.LBB4_127+0x4c>
    800018f4:	0000                	unimp
    800018f6:	30012503          	lw	a0,768(sp)
    800018fa:	4ea12423          	sw	a0,1256(sp)
    800018fe:	4ea12623          	sw	a0,1260(sp)
    80001902:	30a12223          	sw	a0,772(sp)
    80001906:	14ac                	addi	a1,sp,616
    80001908:	f92a                	sd	a0,176(sp)
    8000190a:	852e                	mv	a0,a1
    8000190c:	75ca                	ld	a1,176(sp)
    8000190e:	0000b097          	auipc	ra,0xb
    80001912:	444080e7          	jalr	1092(ra) # 8000cd52 <_ZN5riscv8register4misa4Misa13has_extension17h5e9db60ded6132c1E>
    80001916:	f52a                	sd	a0,168(sp)
    80001918:	a009                	j	8000191a <.LBB4_125+0x40>
    8000191a:	752a                	ld	a0,168(sp)
    8000191c:	e119                	bnez	a0,80001922 <.LBB4_126>
    8000191e:	a009                	j	80001920 <.LBB4_125+0x46>
    80001920:	a085                	j	80001980 <.LBB4_127+0x4a>

0000000080001922 <.LBB4_126>:
    80001922:	00014517          	auipc	a0,0x14
    80001926:	d0650513          	addi	a0,a0,-762 # 80015628 <.L__unnamed_16>
    8000192a:	610c                	ld	a1,0(a0)
    8000192c:	0648                	addi	a0,sp,772
    8000192e:	34a13423          	sd	a0,840(sp)
    80001932:	4ea13823          	sd	a0,1264(sp)

0000000080001936 <.LBB4_127>:
    80001936:	00012617          	auipc	a2,0x12
    8000193a:	49260613          	addi	a2,a2,1170 # 80013dc8 <_ZN43_$LT$char$u20$as$u20$core..fmt..Display$GT$3fmt17hfb5d9e98fce0da92E>
    8000193e:	f12e                	sd	a1,160(sp)
    80001940:	85b2                	mv	a1,a2
    80001942:	00003097          	auipc	ra,0x3
    80001946:	87e080e7          	jalr	-1922(ra) # 800041c0 <_ZN4core3fmt10ArgumentV13new17h7632de3dd8f05c40E>
    8000194a:	ed2a                	sd	a0,152(sp)
    8000194c:	e92e                	sd	a1,144(sp)
    8000194e:	a009                	j	80001950 <.LBB4_127+0x1a>
    80001950:	656a                	ld	a0,152(sp)
    80001952:	32a13c23          	sd	a0,824(sp)
    80001956:	65ca                	ld	a1,144(sp)
    80001958:	34b13023          	sd	a1,832(sp)
    8000195c:	0628                	addi	a0,sp,776
    8000195e:	1e34                	addi	a3,sp,824
    80001960:	4605                	li	a2,1
    80001962:	758a                	ld	a1,160(sp)
    80001964:	e532                	sd	a2,136(sp)
    80001966:	672a                	ld	a4,136(sp)
    80001968:	00003097          	auipc	ra,0x3
    8000196c:	7c2080e7          	jalr	1986(ra) # 8000512a <_ZN4core3fmt9Arguments6new_v117ha69c9f43a347f7ebE>
    80001970:	a009                	j	80001972 <.LBB4_127+0x3c>
    80001972:	0628                	addi	a0,sp,776
    80001974:	0000f097          	auipc	ra,0xf
    80001978:	252080e7          	jalr	594(ra) # 80010bc6 <_ZN7rustsbi12legacy_stdio6_print17h82cadf7314687513E>
    8000197c:	a009                	j	8000197e <.LBB4_127+0x48>
    8000197e:	a009                	j	80001980 <.LBB4_127+0x4a>
    80001980:	b705                	j	800018a0 <.LBB4_123+0x7c>
    80001982:	0e88                	addi	a0,sp,848
    80001984:	0000f097          	auipc	ra,0xf
    80001988:	242080e7          	jalr	578(ra) # 80010bc6 <_ZN7rustsbi12legacy_stdio6_print17h82cadf7314687513E>
    8000198c:	a009                	j	8000198e <.LBB4_127+0x58>
    8000198e:	a009                	j	80001990 <.LBB4_128>

0000000080001990 <.LBB4_128>:
    80001990:	00014517          	auipc	a0,0x14
    80001994:	cf050513          	addi	a0,a0,-784 # 80015680 <.L__unnamed_17>
    80001998:	610c                	ld	a1,0(a0)
    8000199a:	e12e                	sd	a1,128(sp)
    8000199c:	fffff097          	auipc	ra,0xfffff
    800019a0:	17e080e7          	jalr	382(ra) # 80000b1a <_ZN5riscv8register7mideleg4read17h1a05eaf6f3d30e78E>
    800019a4:	3ca13823          	sd	a0,976(sp)
    800019a8:	a009                	j	800019aa <.LBB4_128+0x1a>
    800019aa:	0f88                	addi	a0,sp,976
    800019ac:	fffff097          	auipc	ra,0xfffff
    800019b0:	194080e7          	jalr	404(ra) # 80000b40 <_ZN5riscv8register7mideleg7Mideleg4bits17h10a160fdb8c730bcE>
    800019b4:	3ca13423          	sd	a0,968(sp)
    800019b8:	a009                	j	800019ba <.LBB4_128+0x2a>
    800019ba:	07a8                	addi	a0,sp,968
    800019bc:	3ca13023          	sd	a0,960(sp)
    800019c0:	4ea13c23          	sd	a0,1272(sp)

00000000800019c4 <.LBB4_129>:
    800019c4:	00013597          	auipc	a1,0x13
    800019c8:	f0058593          	addi	a1,a1,-256 # 800148c4 <_ZN4core3fmt3num53_$LT$impl$u20$core..fmt..LowerHex$u20$for$u20$i64$GT$3fmt17hbfc4ad17ccc63f7cE>
    800019cc:	0000f097          	auipc	ra,0xf
    800019d0:	71a080e7          	jalr	1818(ra) # 800110e6 <_ZN4core3fmt10ArgumentV13new17h139910a4747f5ab1E>
    800019d4:	fcaa                	sd	a0,120(sp)
    800019d6:	f8ae                	sd	a1,112(sp)
    800019d8:	a009                	j	800019da <.LBB4_129+0x16>
    800019da:	7566                	ld	a0,120(sp)
    800019dc:	3aa13823          	sd	a0,944(sp)
    800019e0:	75c6                	ld	a1,112(sp)
    800019e2:	3ab13c23          	sd	a1,952(sp)

00000000800019e6 <.LBB4_130>:
    800019e6:	00014617          	auipc	a2,0x14
    800019ea:	cda60613          	addi	a2,a2,-806 # 800156c0 <.L__unnamed_18>
    800019ee:	621c                	ld	a5,0(a2)
    800019f0:	0708                	addi	a0,sp,896
    800019f2:	4609                	li	a2,2
    800019f4:	1f14                	addi	a3,sp,944
    800019f6:	4705                	li	a4,1
    800019f8:	658a                	ld	a1,128(sp)
    800019fa:	f4ba                	sd	a4,104(sp)
    800019fc:	7826                	ld	a6,104(sp)
    800019fe:	00003097          	auipc	ra,0x3
    80001a02:	706080e7          	jalr	1798(ra) # 80005104 <_ZN4core3fmt9Arguments16new_v1_formatted17hf932ab636b61ba33E>
    80001a06:	a009                	j	80001a08 <.LBB4_130+0x22>
    80001a08:	0708                	addi	a0,sp,896
    80001a0a:	0000f097          	auipc	ra,0xf
    80001a0e:	1bc080e7          	jalr	444(ra) # 80010bc6 <_ZN7rustsbi12legacy_stdio6_print17h82cadf7314687513E>
    80001a12:	a009                	j	80001a14 <.LBB4_131>

0000000080001a14 <.LBB4_131>:
    80001a14:	00014517          	auipc	a0,0x14
    80001a18:	cec50513          	addi	a0,a0,-788 # 80015700 <.L__unnamed_19>
    80001a1c:	610c                	ld	a1,0(a0)
    80001a1e:	f0ae                	sd	a1,96(sp)
    80001a20:	00002097          	auipc	ra,0x2
    80001a24:	6c6080e7          	jalr	1734(ra) # 800040e6 <_ZN5riscv8register7medeleg4read17h564ef7f62cdb91abE>
    80001a28:	42a13423          	sd	a0,1064(sp)
    80001a2c:	a009                	j	80001a2e <.LBB4_131+0x1a>
    80001a2e:	42810513          	addi	a0,sp,1064
    80001a32:	00002097          	auipc	ra,0x2
    80001a36:	6da080e7          	jalr	1754(ra) # 8000410c <_ZN5riscv8register7medeleg7Medeleg4bits17h9d0908eeb49884f5E>
    80001a3a:	42a13023          	sd	a0,1056(sp)
    80001a3e:	a009                	j	80001a40 <.LBB4_131+0x2c>
    80001a40:	42010513          	addi	a0,sp,1056
    80001a44:	40a13c23          	sd	a0,1048(sp)
    80001a48:	50a13023          	sd	a0,1280(sp)

0000000080001a4c <.LBB4_132>:
    80001a4c:	00013597          	auipc	a1,0x13
    80001a50:	e7858593          	addi	a1,a1,-392 # 800148c4 <_ZN4core3fmt3num53_$LT$impl$u20$core..fmt..LowerHex$u20$for$u20$i64$GT$3fmt17hbfc4ad17ccc63f7cE>
    80001a54:	0000f097          	auipc	ra,0xf
    80001a58:	692080e7          	jalr	1682(ra) # 800110e6 <_ZN4core3fmt10ArgumentV13new17h139910a4747f5ab1E>
    80001a5c:	ecaa                	sd	a0,88(sp)
    80001a5e:	e8ae                	sd	a1,80(sp)
    80001a60:	a009                	j	80001a62 <.LBB4_132+0x16>
    80001a62:	6566                	ld	a0,88(sp)
    80001a64:	40a13423          	sd	a0,1032(sp)
    80001a68:	65c6                	ld	a1,80(sp)
    80001a6a:	40b13823          	sd	a1,1040(sp)

0000000080001a6e <.LBB4_133>:
    80001a6e:	00014617          	auipc	a2,0x14
    80001a72:	c5260613          	addi	a2,a2,-942 # 800156c0 <.L__unnamed_18>
    80001a76:	621c                	ld	a5,0(a2)
    80001a78:	0fa8                	addi	a0,sp,984
    80001a7a:	4609                	li	a2,2
    80001a7c:	40810693          	addi	a3,sp,1032
    80001a80:	4705                	li	a4,1
    80001a82:	7586                	ld	a1,96(sp)
    80001a84:	e4ba                	sd	a4,72(sp)
    80001a86:	6826                	ld	a6,72(sp)
    80001a88:	00003097          	auipc	ra,0x3
    80001a8c:	67c080e7          	jalr	1660(ra) # 80005104 <_ZN4core3fmt9Arguments16new_v1_formatted17hf932ab636b61ba33E>
    80001a90:	a009                	j	80001a92 <.LBB4_133+0x24>
    80001a92:	0fa8                	addi	a0,sp,984
    80001a94:	0000f097          	auipc	ra,0xf
    80001a98:	132080e7          	jalr	306(ra) # 80010bc6 <_ZN7rustsbi12legacy_stdio6_print17h82cadf7314687513E>
    80001a9c:	a009                	j	80001a9e <.LBB4_134>

0000000080001a9e <.LBB4_134>:
    80001a9e:	00014517          	auipc	a0,0x14
    80001aa2:	0ea50513          	addi	a0,a0,234 # 80015b88 <.L__unnamed_33>
    80001aa6:	00001097          	auipc	ra,0x1
    80001aaa:	a5c080e7          	jalr	-1444(ra) # 80002502 <_ZN69_$LT$rustsbi_qemu..MAX_HART_ID$u20$as$u20$core..ops..deref..Deref$GT$5deref17h1e03c209e0be5389E>
    80001aae:	e0aa                	sd	a0,64(sp)
    80001ab0:	a009                	j	80001ab2 <.LBB4_134+0x14>
    80001ab2:	6506                	ld	a0,64(sp)
    80001ab4:	52a13023          	sd	a0,1312(sp)
    80001ab8:	6586                	ld	a1,64(sp)
    80001aba:	52b13423          	sd	a1,1320(sp)
    80001abe:	4585                	li	a1,1
    80001ac0:	4601                	li	a2,0
    80001ac2:	6686                	ld	a3,64(sp)
    80001ac4:	fc2a                	sd	a0,56(sp)
    80001ac6:	8536                	mv	a0,a3
    80001ac8:	00004097          	auipc	ra,0x4
    80001acc:	c58080e7          	jalr	-936(ra) # 80005720 <_ZN4core4sync6atomic11AtomicUsize9fetch_add17h70cf77e743f96783E>
    80001ad0:	85aa                	mv	a1,a0
    80001ad2:	52a13823          	sd	a0,1328(sp)
    80001ad6:	f82e                	sd	a1,48(sp)
    80001ad8:	a009                	j	80001ada <.LBB4_134+0x3c>
    80001ada:	7562                	ld	a0,56(sp)
    80001adc:	0521                	addi	a0,a0,8
    80001ade:	4589                	li	a1,2
    80001ae0:	00004097          	auipc	ra,0x4
    80001ae4:	bda080e7          	jalr	-1062(ra) # 800056ba <_ZN4core4sync6atomic11AtomicUsize4load17h1002ab1939a259b7E>
    80001ae8:	75c2                	ld	a1,48(sp)
    80001aea:	00b50863          	beq	a0,a1,80001afa <.LBB4_134+0x5c>
    80001aee:	a009                	j	80001af0 <.LBB4_134+0x52>
    80001af0:	00004097          	auipc	ra,0x4
    80001af4:	c68080e7          	jalr	-920(ra) # 80005758 <_ZN4core4sync6atomic14spin_loop_hint17hbd95f59684067b9eE>
    80001af8:	b7cd                	j	80001ada <.LBB4_134+0x3c>
    80001afa:	7562                	ld	a0,56(sp)
    80001afc:	00850593          	addi	a1,a0,8
    80001b00:	0541                	addi	a0,a0,16
    80001b02:	f42e                	sd	a1,40(sp)
    80001b04:	00011097          	auipc	ra,0x11
    80001b08:	a68080e7          	jalr	-1432(ra) # 8001256c <_ZN4core4cell19UnsafeCell$LT$T$GT$3get17h315710026c63433cE>
    80001b0c:	75a2                	ld	a1,40(sp)
    80001b0e:	50b13423          	sd	a1,1288(sp)
    80001b12:	7642                	ld	a2,48(sp)
    80001b14:	50c13823          	sd	a2,1296(sp)
    80001b18:	50a13c23          	sd	a0,1304(sp)
    80001b1c:	42b13823          	sd	a1,1072(sp)
    80001b20:	42c13c23          	sd	a2,1080(sp)
    80001b24:	44a13023          	sd	a0,1088(sp)
    80001b28:	a009                	j	80001b2a <.LBB4_134+0x8c>
    80001b2a:	7556                	ld	a0,368(sp)
    80001b2c:	00000097          	auipc	ra,0x0
    80001b30:	0b6080e7          	jalr	182(ra) # 80001be2 <_ZN12rustsbi_qemu11count_harts17h94a6250fcc592766E>
    80001b34:	f02a                	sd	a0,32(sp)
    80001b36:	a009                	j	80001b38 <.LBB4_134+0x9a>
    80001b38:	43010513          	addi	a0,sp,1072
    80001b3c:	fffff097          	auipc	ra,0xfffff
    80001b40:	e5c080e7          	jalr	-420(ra) # 80000998 <_ZN79_$LT$spin..mutex..MutexGuard$LT$T$GT$$u20$as$u20$core..ops..deref..DerefMut$GT$9deref_mut17h49234e350c5928b2E>
    80001b44:	ec2a                	sd	a0,24(sp)
    80001b46:	a009                	j	80001b48 <.LBB4_134+0xaa>
    80001b48:	7502                	ld	a0,32(sp)
    80001b4a:	65e2                	ld	a1,24(sp)
    80001b4c:	e188                	sd	a0,0(a1)
    80001b4e:	44013603          	ld	a2,1088(sp)
    80001b52:	44c13c23          	sd	a2,1112(sp)
    80001b56:	43813603          	ld	a2,1080(sp)
    80001b5a:	44c13823          	sd	a2,1104(sp)
    80001b5e:	43013603          	ld	a2,1072(sp)
    80001b62:	44c13423          	sd	a2,1096(sp)
    80001b66:	44810513          	addi	a0,sp,1096
    80001b6a:	fffff097          	auipc	ra,0xfffff
    80001b6e:	f40080e7          	jalr	-192(ra) # 80000aaa <_ZN4core3mem4drop17h00616453fb0c79d3E>
    80001b72:	a009                	j	80001b74 <.LBB4_135>

0000000080001b74 <.LBB4_135>:
    80001b74:	00014517          	auipc	a0,0x14
    80001b78:	bcc50513          	addi	a0,a0,-1076 # 80015740 <.L__unnamed_20>
    80001b7c:	610c                	ld	a1,0(a0)

0000000080001b7e <.LBB4_136>:
    80001b7e:	00013517          	auipc	a0,0x13
    80001b82:	74250513          	addi	a0,a0,1858 # 800152c0 <.L__unnamed_4>
    80001b86:	6114                	ld	a3,0(a0)
    80001b88:	46010513          	addi	a0,sp,1120
    80001b8c:	4605                	li	a2,1
    80001b8e:	4701                	li	a4,0
    80001b90:	00003097          	auipc	ra,0x3
    80001b94:	59a080e7          	jalr	1434(ra) # 8000512a <_ZN4core3fmt9Arguments6new_v117ha69c9f43a347f7ebE>
    80001b98:	a009                	j	80001b9a <.LBB4_136+0x1c>
    80001b9a:	46010513          	addi	a0,sp,1120
    80001b9e:	0000f097          	auipc	ra,0xf
    80001ba2:	028080e7          	jalr	40(ra) # 80010bc6 <_ZN7rustsbi12legacy_stdio6_print17h82cadf7314687513E>
    80001ba6:	a009                	j	80001ba8 <.LBB4_136+0x2a>
    80001ba8:	a009                	j	80001baa <.LBB4_137>

0000000080001baa <.LBB4_137>:
    80001baa:	fffff517          	auipc	a0,0xfffff
    80001bae:	72850513          	addi	a0,a0,1832 # 800012d2 <_ZN12rustsbi_qemu12s_mode_start17h9533551c6eae94e1E>
    80001bb2:	fffff097          	auipc	ra,0xfffff
    80001bb6:	2e2080e7          	jalr	738(ra) # 80000e94 <_ZN5riscv8register4mepc5write17h510ce1108a4c1362E>
    80001bba:	a009                	j	80001bbc <.LBB4_137+0x12>
    80001bbc:	4505                	li	a0,1
    80001bbe:	00003097          	auipc	ra,0x3
    80001bc2:	6f6080e7          	jalr	1782(ra) # 800052b4 <_ZN5riscv8register7mstatus7set_mpp17hdca20d900b74490dE>
    80001bc6:	a009                	j	80001bc8 <.LBB4_137+0x1e>
    80001bc8:	00004097          	auipc	ra,0x4
    80001bcc:	a00080e7          	jalr	-1536(ra) # 800055c8 <_ZN5riscv8register7mhartid4read17h8ad56d75c42207ffE>
    80001bd0:	e82a                	sd	a0,16(sp)
    80001bd2:	a009                	j	80001bd4 <.LBB4_137+0x2a>
    80001bd4:	6542                	ld	a0,16(sp)
    80001bd6:	75d6                	ld	a1,368(sp)
    80001bd8:	00002097          	auipc	ra,0x2
    80001bdc:	6a0080e7          	jalr	1696(ra) # 80004278 <_ZN7rustsbi10privileged16enter_privileged17h61e3a7fd7dfc4749E>
	...

0000000080001be2 <_ZN12rustsbi_qemu11count_harts17h94a6250fcc592766E>:
    80001be2:	7105                	addi	sp,sp,-480
    80001be4:	ef86                	sd	ra,472(sp)
    80001be6:	f32a                	sd	a0,416(sp)
    80001be8:	4581                	li	a1,0
    80001bea:	18b10fa3          	sb	a1,415(sp)
    80001bee:	85aa                	mv	a1,a0
    80001bf0:	f72a                	sd	a0,424(sp)
    80001bf2:	4110                	lw	a2,0(a0)
    80001bf4:	ecaa                	sd	a0,88(sp)
    80001bf6:	8532                	mv	a0,a2
    80001bf8:	e8ae                	sd	a1,80(sp)
    80001bfa:	00003097          	auipc	ra,0x3
    80001bfe:	f70080e7          	jalr	-144(ra) # 80004b6a <_ZN4core3num21_$LT$impl$u20$u32$GT$7from_be17h58d3b9978a78781fE>
    80001c02:	85aa                	mv	a1,a0
    80001c04:	1aa12823          	sw	a0,432(sp)
    80001c08:	e4ae                	sd	a1,72(sp)
    80001c0a:	a009                	j	80001c0c <_ZN12rustsbi_qemu11count_harts17h94a6250fcc592766E+0x2a>
    80001c0c:	6526                	ld	a0,72(sp)
    80001c0e:	02051593          	slli	a1,a0,0x20
    80001c12:	9181                	srli	a1,a1,0x20
    80001c14:	661d                	lui	a2,0x7
    80001c16:	8076061b          	addiw	a2,a2,-2041
    80001c1a:	0646                	slli	a2,a2,0x11
    80001c1c:	eed60613          	addi	a2,a2,-275 # 6eed <.Lline_table_start0+0x1dc>
    80001c20:	00c58463          	beq	a1,a2,80001c28 <_ZN12rustsbi_qemu11count_harts17h94a6250fcc592766E+0x46>
    80001c24:	a009                	j	80001c26 <_ZN12rustsbi_qemu11count_harts17h94a6250fcc592766E+0x44>
    80001c26:	a0c5                	j	80001d06 <.LBB6_25+0x6a>
    80001c28:	6546                	ld	a0,80(sp)
    80001c2a:	4148                	lw	a0,4(a0)
    80001c2c:	00003097          	auipc	ra,0x3
    80001c30:	f3e080e7          	jalr	-194(ra) # 80004b6a <_ZN4core3num21_$LT$impl$u20$u32$GT$7from_be17h58d3b9978a78781fE>
    80001c34:	85aa                	mv	a1,a0
    80001c36:	1aa12a23          	sw	a0,436(sp)
    80001c3a:	e0ae                	sd	a1,64(sp)
    80001c3c:	a009                	j	80001c3e <_ZN12rustsbi_qemu11count_harts17h94a6250fcc592766E+0x5c>
    80001c3e:	6506                	ld	a0,64(sp)
    80001c40:	02051593          	slli	a1,a0,0x20
    80001c44:	9181                	srli	a1,a1,0x20
    80001c46:	6566                	ld	a0,88(sp)
    80001c48:	00008097          	auipc	ra,0x8
    80001c4c:	41a080e7          	jalr	1050(ra) # 8000a062 <_ZN4core5slice14from_raw_parts17h3463a934a287ba06E>
    80001c50:	862a                	mv	a2,a0
    80001c52:	86ae                	mv	a3,a1
    80001c54:	ff2a                	sd	a0,440(sp)
    80001c56:	e3ae                	sd	a1,448(sp)
    80001c58:	fc32                	sd	a2,56(sp)
    80001c5a:	f836                	sd	a3,48(sp)
    80001c5c:	a009                	j	80001c5e <_ZN12rustsbi_qemu11count_harts17h94a6250fcc592766E+0x7c>
    80001c5e:	4505                	li	a0,1
    80001c60:	18a10fa3          	sb	a0,415(sp)
    80001c64:	10a8                	addi	a0,sp,104
    80001c66:	75e2                	ld	a1,56(sp)
    80001c68:	7642                	ld	a2,48(sp)
    80001c6a:	00004097          	auipc	ra,0x4
    80001c6e:	dd4080e7          	jalr	-556(ra) # 80005a3e <_ZN11device_tree10DeviceTree4load17hb478c96701a4340cE>
    80001c72:	a009                	j	80001c74 <_ZN12rustsbi_qemu11count_harts17h94a6250fcc592766E+0x92>
    80001c74:	7526                	ld	a0,104(sp)
    80001c76:	4581                	li	a1,0
    80001c78:	00b50463          	beq	a0,a1,80001c80 <_ZN12rustsbi_qemu11count_harts17h94a6250fcc592766E+0x9e>
    80001c7c:	a009                	j	80001c7e <_ZN12rustsbi_qemu11count_harts17h94a6250fcc592766E+0x9c>
    80001c7e:	a8bd                	j	80001cfc <.LBB6_25+0x60>
    80001c80:	4501                	li	a0,0
    80001c82:	18a10fa3          	sb	a0,415(sp)
    80001c86:	10a8                	addi	a0,sp,104
    80001c88:	00850593          	addi	a1,a0,8
    80001c8c:	09a8                	addi	a0,sp,216
    80001c8e:	06800613          	li	a2,104
    80001c92:	f42a                	sd	a0,40(sp)
    80001c94:	00013097          	auipc	ra,0x13
    80001c98:	17e080e7          	jalr	382(ra) # 80014e12 <memcpy>

0000000080001c9c <.LBB6_25>:
    80001c9c:	00014597          	auipc	a1,0x14
    80001ca0:	aac58593          	addi	a1,a1,-1364 # 80015748 <.L__unnamed_21>
    80001ca4:	4635                	li	a2,13
    80001ca6:	76a2                	ld	a3,40(sp)
    80001ca8:	f02a                	sd	a0,32(sp)
    80001caa:	8536                	mv	a0,a3
    80001cac:	00004097          	auipc	ra,0x4
    80001cb0:	3a4080e7          	jalr	932(ra) # 80006050 <_ZN11device_tree10DeviceTree4find17h3d3b7aee48fbf709E>
    80001cb4:	e2aa                	sd	a0,320(sp)
    80001cb6:	a009                	j	80001cb8 <.LBB6_25+0x1c>
    80001cb8:	6516                	ld	a0,320(sp)
    80001cba:	4581                	li	a1,0
    80001cbc:	00b51963          	bne	a0,a1,80001cce <.LBB6_25+0x32>
    80001cc0:	a009                	j	80001cc2 <.LBB6_25+0x26>
    80001cc2:	09a8                	addi	a0,sp,216
    80001cc4:	fffff097          	auipc	ra,0xfffff
    80001cc8:	f7e080e7          	jalr	-130(ra) # 80000c42 <_ZN4core3ptr13drop_in_place17h6e8bb59fe8f6f077E>
    80001ccc:	a03d                	j	80001cfa <.LBB6_25+0x5e>
    80001cce:	6516                	ld	a0,320(sp)
    80001cd0:	e7aa                	sd	a0,456(sp)
    80001cd2:	00000097          	auipc	ra,0x0
    80001cd6:	0c2080e7          	jalr	194(ra) # 80001d94 <_ZN12rustsbi_qemu11count_harts17enumerate_cpu_map17hfb499d9c0bcab615E>
    80001cda:	f0aa                	sd	a0,96(sp)
    80001cdc:	a029                	j	80001ce6 <.LBB6_25+0x4a>
    80001cde:	7506                	ld	a0,96(sp)
    80001ce0:	60fe                	ld	ra,472(sp)
    80001ce2:	613d                	addi	sp,sp,480
    80001ce4:	8082                	ret
    80001ce6:	09a8                	addi	a0,sp,216
    80001ce8:	fffff097          	auipc	ra,0xfffff
    80001cec:	f5a080e7          	jalr	-166(ra) # 80000c42 <_ZN4core3ptr13drop_in_place17h6e8bb59fe8f6f077E>
    80001cf0:	a009                	j	80001cf2 <.LBB6_25+0x56>
    80001cf2:	4501                	li	a0,0
    80001cf4:	18a10fa3          	sb	a0,415(sp)
    80001cf8:	b7dd                	j	80001cde <.LBB6_25+0x42>
    80001cfa:	a009                	j	80001cfc <.LBB6_25+0x60>
    80001cfc:	7526                	ld	a0,104(sp)
    80001cfe:	4581                	li	a1,0
    80001d00:	06b50963          	beq	a0,a1,80001d72 <.LBB6_27+0x50>
    80001d04:	a09d                	j	80001d6a <.LBB6_27+0x48>
    80001d06:	00000097          	auipc	ra,0x0
    80001d0a:	1e8080e7          	jalr	488(ra) # 80001eee <_ZN12rustsbi_qemu19compiled_max_hartid17hbd500884ef5320c3E>
    80001d0e:	e6aa                	sd	a0,328(sp)
    80001d10:	a009                	j	80001d12 <.LBB6_26>

0000000080001d12 <.LBB6_26>:
    80001d12:	00014517          	auipc	a0,0x14
    80001d16:	ac650513          	addi	a0,a0,-1338 # 800157d8 <.L__unnamed_22>
    80001d1a:	610c                	ld	a1,0(a0)
    80001d1c:	02a8                	addi	a0,sp,328
    80001d1e:	eb2a                	sd	a0,400(sp)
    80001d20:	ebaa                	sd	a0,464(sp)

0000000080001d22 <.LBB6_27>:
    80001d22:	00013617          	auipc	a2,0x13
    80001d26:	e6460613          	addi	a2,a2,-412 # 80014b86 <_ZN4core3fmt3num3imp52_$LT$impl$u20$core..fmt..Display$u20$for$u20$u64$GT$3fmt17h73e59651b6b610e4E>
    80001d2a:	ec2e                	sd	a1,24(sp)
    80001d2c:	85b2                	mv	a1,a2
    80001d2e:	0000f097          	auipc	ra,0xf
    80001d32:	3b8080e7          	jalr	952(ra) # 800110e6 <_ZN4core3fmt10ArgumentV13new17h139910a4747f5ab1E>
    80001d36:	e82a                	sd	a0,16(sp)
    80001d38:	e42e                	sd	a1,8(sp)
    80001d3a:	a009                	j	80001d3c <.LBB6_27+0x1a>
    80001d3c:	6542                	ld	a0,16(sp)
    80001d3e:	e32a                	sd	a0,384(sp)
    80001d40:	65a2                	ld	a1,8(sp)
    80001d42:	e72e                	sd	a1,392(sp)
    80001d44:	0a88                	addi	a0,sp,336
    80001d46:	4609                	li	a2,2
    80001d48:	0314                	addi	a3,sp,384
    80001d4a:	4705                	li	a4,1
    80001d4c:	65e2                	ld	a1,24(sp)
    80001d4e:	00003097          	auipc	ra,0x3
    80001d52:	3dc080e7          	jalr	988(ra) # 8000512a <_ZN4core3fmt9Arguments6new_v117ha69c9f43a347f7ebE>
    80001d56:	a009                	j	80001d58 <.LBB6_27+0x36>
    80001d58:	0a88                	addi	a0,sp,336
    80001d5a:	0000f097          	auipc	ra,0xf
    80001d5e:	e6c080e7          	jalr	-404(ra) # 80010bc6 <_ZN7rustsbi12legacy_stdio6_print17h82cadf7314687513E>
    80001d62:	a009                	j	80001d64 <.LBB6_27+0x42>
    80001d64:	6536                	ld	a0,328(sp)
    80001d66:	f0aa                	sd	a0,96(sp)
    80001d68:	bf9d                	j	80001cde <.LBB6_25+0x42>
    80001d6a:	4501                	li	a0,0
    80001d6c:	18a10fa3          	sb	a0,415(sp)
    80001d70:	bf59                	j	80001d06 <.LBB6_25+0x6a>
    80001d72:	19f14503          	lbu	a0,415(sp)
    80001d76:	8905                	andi	a0,a0,1
    80001d78:	4581                	li	a1,0
    80001d7a:	feb508e3          	beq	a0,a1,80001d6a <.LBB6_27+0x48>
    80001d7e:	a009                	j	80001d80 <.LBB6_27+0x5e>
    80001d80:	4501                	li	a0,0
    80001d82:	18a10fa3          	sb	a0,415(sp)
    80001d86:	10a8                	addi	a0,sp,104
    80001d88:	0521                	addi	a0,a0,8
    80001d8a:	fffff097          	auipc	ra,0xfffff
    80001d8e:	eb8080e7          	jalr	-328(ra) # 80000c42 <_ZN4core3ptr13drop_in_place17h6e8bb59fe8f6f077E>
    80001d92:	bfe1                	j	80001d6a <.LBB6_27+0x48>

0000000080001d94 <_ZN12rustsbi_qemu11count_harts17enumerate_cpu_map17hfb499d9c0bcab615E>:
    80001d94:	714d                	addi	sp,sp,-336
    80001d96:	e686                	sd	ra,328(sp)
    80001d98:	ee2a                	sd	a0,280(sp)
    80001d9a:	4581                	li	a1,0
    80001d9c:	e52e                	sd	a1,136(sp)
    80001d9e:	03050513          	addi	a0,a0,48
    80001da2:	00008097          	auipc	ra,0x8
    80001da6:	d84080e7          	jalr	-636(ra) # 80009b26 <_ZN68_$LT$alloc..vec..Vec$LT$T$GT$$u20$as$u20$core..ops..deref..Deref$GT$5deref17h4fef4ab0db936e18E>
    80001daa:	e12a                	sd	a0,128(sp)
    80001dac:	fcae                	sd	a1,120(sp)
    80001dae:	a009                	j	80001db0 <_ZN12rustsbi_qemu11count_harts17enumerate_cpu_map17hfb499d9c0bcab615E+0x1c>
    80001db0:	650a                	ld	a0,128(sp)
    80001db2:	75e6                	ld	a1,120(sp)
    80001db4:	00004097          	auipc	ra,0x4
    80001db8:	bb4080e7          	jalr	-1100(ra) # 80005968 <_ZN4core5slice29_$LT$impl$u20$$u5b$T$u5d$$GT$4iter17h7d7f17108546682eE>
    80001dbc:	f8aa                	sd	a0,112(sp)
    80001dbe:	f4ae                	sd	a1,104(sp)
    80001dc0:	a009                	j	80001dc2 <_ZN12rustsbi_qemu11count_harts17enumerate_cpu_map17hfb499d9c0bcab615E+0x2e>
    80001dc2:	7546                	ld	a0,112(sp)
    80001dc4:	75a6                	ld	a1,104(sp)
    80001dc6:	00008097          	auipc	ra,0x8
    80001dca:	6fa080e7          	jalr	1786(ra) # 8000a4c0 <_ZN63_$LT$I$u20$as$u20$core..iter..traits..collect..IntoIterator$GT$9into_iter17hfbc95ded3989e442E>
    80001dce:	f0aa                	sd	a0,96(sp)
    80001dd0:	ecae                	sd	a1,88(sp)
    80001dd2:	a009                	j	80001dd4 <_ZN12rustsbi_qemu11count_harts17enumerate_cpu_map17hfb499d9c0bcab615E+0x40>
    80001dd4:	7506                	ld	a0,96(sp)
    80001dd6:	e92a                	sd	a0,144(sp)
    80001dd8:	65e6                	ld	a1,88(sp)
    80001dda:	ed2e                	sd	a1,152(sp)
    80001ddc:	a009                	j	80001dde <_ZN12rustsbi_qemu11count_harts17enumerate_cpu_map17hfb499d9c0bcab615E+0x4a>
    80001dde:	0908                	addi	a0,sp,144
    80001de0:	00009097          	auipc	ra,0x9
    80001de4:	8a6080e7          	jalr	-1882(ra) # 8000a686 <_ZN85_$LT$core..slice..Iter$LT$T$GT$$u20$as$u20$core..iter..traits..iterator..Iterator$GT$4next17h90a3d3884a4a78f9E>
    80001de8:	f12a                	sd	a0,160(sp)
    80001dea:	a009                	j	80001dec <_ZN12rustsbi_qemu11count_harts17enumerate_cpu_map17hfb499d9c0bcab615E+0x58>
    80001dec:	750a                	ld	a0,160(sp)
    80001dee:	00a035b3          	snez	a1,a0
    80001df2:	4601                	li	a2,0
    80001df4:	00c50463          	beq	a0,a2,80001dfc <_ZN12rustsbi_qemu11count_harts17enumerate_cpu_map17hfb499d9c0bcab615E+0x68>
    80001df8:	a009                	j	80001dfa <_ZN12rustsbi_qemu11count_harts17enumerate_cpu_map17hfb499d9c0bcab615E+0x66>
    80001dfa:	a031                	j	80001e06 <_ZN12rustsbi_qemu11count_harts17enumerate_cpu_map17hfb499d9c0bcab615E+0x72>
    80001dfc:	652a                	ld	a0,136(sp)
    80001dfe:	60b6                	ld	ra,328(sp)
    80001e00:	6171                	addi	sp,sp,336
    80001e02:	8082                	ret
    80001e04:	0000                	unimp
    80001e06:	750a                	ld	a0,160(sp)
    80001e08:	f22a                	sd	a0,288(sp)
    80001e0a:	f62a                	sd	a0,296(sp)
    80001e0c:	fa2a                	sd	a0,304(sp)
    80001e0e:	f52a                	sd	a0,168(sp)
    80001e10:	03050513          	addi	a0,a0,48
    80001e14:	00008097          	auipc	ra,0x8
    80001e18:	d12080e7          	jalr	-750(ra) # 80009b26 <_ZN68_$LT$alloc..vec..Vec$LT$T$GT$$u20$as$u20$core..ops..deref..Deref$GT$5deref17h4fef4ab0db936e18E>
    80001e1c:	e8aa                	sd	a0,80(sp)
    80001e1e:	e4ae                	sd	a1,72(sp)
    80001e20:	a009                	j	80001e22 <_ZN12rustsbi_qemu11count_harts17enumerate_cpu_map17hfb499d9c0bcab615E+0x8e>
    80001e22:	6546                	ld	a0,80(sp)
    80001e24:	65a6                	ld	a1,72(sp)
    80001e26:	00004097          	auipc	ra,0x4
    80001e2a:	b42080e7          	jalr	-1214(ra) # 80005968 <_ZN4core5slice29_$LT$impl$u20$$u5b$T$u5d$$GT$4iter17h7d7f17108546682eE>
    80001e2e:	e0aa                	sd	a0,64(sp)
    80001e30:	fc2e                	sd	a1,56(sp)
    80001e32:	a009                	j	80001e34 <_ZN12rustsbi_qemu11count_harts17enumerate_cpu_map17hfb499d9c0bcab615E+0xa0>
    80001e34:	6506                	ld	a0,64(sp)
    80001e36:	75e2                	ld	a1,56(sp)
    80001e38:	00002097          	auipc	ra,0x2
    80001e3c:	9d2080e7          	jalr	-1582(ra) # 8000380a <_ZN85_$LT$core..slice..Iter$LT$T$GT$$u20$as$u20$core..iter..traits..iterator..Iterator$GT$5count17h60ce5c8f3c3f8ec3E>
    80001e40:	f92a                	sd	a0,176(sp)
    80001e42:	a009                	j	80001e44 <.LBB7_19>

0000000080001e44 <.LBB7_19>:
    80001e44:	00014517          	auipc	a0,0x14
    80001e48:	9ec50513          	addi	a0,a0,-1556 # 80015830 <.L__unnamed_23>
    80001e4c:	610c                	ld	a1,0(a0)
    80001e4e:	1128                	addi	a0,sp,168
    80001e50:	e62a                	sd	a0,264(sp)
    80001e52:	1910                	addi	a2,sp,176
    80001e54:	ea32                	sd	a2,272(sp)
    80001e56:	fe2a                	sd	a0,312(sp)
    80001e58:	e2b2                	sd	a2,320(sp)

0000000080001e5a <.LBB7_20>:
    80001e5a:	fffff697          	auipc	a3,0xfffff
    80001e5e:	0d268693          	addi	a3,a3,210 # 80000f2c <_ZN44_$LT$$RF$T$u20$as$u20$core..fmt..Display$GT$3fmt17h1343e8bee7eae3efE>
    80001e62:	f82e                	sd	a1,48(sp)
    80001e64:	85b6                	mv	a1,a3
    80001e66:	f432                	sd	a2,40(sp)
    80001e68:	00002097          	auipc	ra,0x2
    80001e6c:	2ae080e7          	jalr	686(ra) # 80004116 <_ZN4core3fmt10ArgumentV13new17h1ed9c0cb1ea0991bE>
    80001e70:	f02a                	sd	a0,32(sp)
    80001e72:	ec2e                	sd	a1,24(sp)
    80001e74:	a009                	j	80001e76 <.LBB7_21>

0000000080001e76 <.LBB7_21>:
    80001e76:	00013597          	auipc	a1,0x13
    80001e7a:	d1058593          	addi	a1,a1,-752 # 80014b86 <_ZN4core3fmt3num3imp52_$LT$impl$u20$core..fmt..Display$u20$for$u20$u64$GT$3fmt17h73e59651b6b610e4E>
    80001e7e:	7522                	ld	a0,40(sp)
    80001e80:	0000f097          	auipc	ra,0xf
    80001e84:	266080e7          	jalr	614(ra) # 800110e6 <_ZN4core3fmt10ArgumentV13new17h139910a4747f5ab1E>
    80001e88:	e82a                	sd	a0,16(sp)
    80001e8a:	e42e                	sd	a1,8(sp)
    80001e8c:	a009                	j	80001e8e <.LBB7_21+0x18>
    80001e8e:	7502                	ld	a0,32(sp)
    80001e90:	f5aa                	sd	a0,232(sp)
    80001e92:	65e2                	ld	a1,24(sp)
    80001e94:	f9ae                	sd	a1,240(sp)
    80001e96:	6642                	ld	a2,16(sp)
    80001e98:	fdb2                	sd	a2,248(sp)
    80001e9a:	66a2                	ld	a3,8(sp)
    80001e9c:	e236                	sd	a3,256(sp)
    80001e9e:	1928                	addi	a0,sp,184
    80001ea0:	460d                	li	a2,3
    80001ea2:	11b4                	addi	a3,sp,232
    80001ea4:	4709                	li	a4,2
    80001ea6:	75c2                	ld	a1,48(sp)
    80001ea8:	00003097          	auipc	ra,0x3
    80001eac:	282080e7          	jalr	642(ra) # 8000512a <_ZN4core3fmt9Arguments6new_v117ha69c9f43a347f7ebE>
    80001eb0:	a009                	j	80001eb2 <.LBB7_21+0x3c>
    80001eb2:	1928                	addi	a0,sp,184
    80001eb4:	0000f097          	auipc	ra,0xf
    80001eb8:	d12080e7          	jalr	-750(ra) # 80010bc6 <_ZN7rustsbi12legacy_stdio6_print17h82cadf7314687513E>
    80001ebc:	a009                	j	80001ebe <.LBB7_21+0x48>
    80001ebe:	754a                	ld	a0,176(sp)
    80001ec0:	65aa                	ld	a1,136(sp)
    80001ec2:	952e                	add	a0,a0,a1
    80001ec4:	e02a                	sd	a0,0(sp)
    80001ec6:	00b56663          	bltu	a0,a1,80001ed2 <.LBB7_22>
    80001eca:	a009                	j	80001ecc <.LBB7_21+0x56>
    80001ecc:	6502                	ld	a0,0(sp)
    80001ece:	e52a                	sd	a0,136(sp)
    80001ed0:	b739                	j	80001dde <_ZN12rustsbi_qemu11count_harts17enumerate_cpu_map17hfb499d9c0bcab615E+0x4a>

0000000080001ed2 <.LBB7_22>:
    80001ed2:	00014517          	auipc	a0,0x14
    80001ed6:	98e50513          	addi	a0,a0,-1650 # 80015860 <str.0>

0000000080001eda <.LBB7_23>:
    80001eda:	00014617          	auipc	a2,0x14
    80001ede:	96e60613          	addi	a2,a2,-1682 # 80015848 <.L__unnamed_24>
    80001ee2:	45f1                	li	a1,28
    80001ee4:	00011097          	auipc	ra,0x11
    80001ee8:	cc4080e7          	jalr	-828(ra) # 80012ba8 <_ZN4core9panicking5panic17h99ef985303ba2443E>
	...

0000000080001eee <_ZN12rustsbi_qemu19compiled_max_hartid17hbd500884ef5320c3E>:
    80001eee:	1141                	addi	sp,sp,-16
    80001ef0:	00000537          	lui	a0,0x0
    80001ef4:	00750513          	addi	a0,a0,7 # 7 <_max_hart_id>
    80001ef8:	e42a                	sd	a0,8(sp)
    80001efa:	a009                	j	80001efc <_ZN12rustsbi_qemu19compiled_max_hartid17hbd500884ef5320c3E+0xe>
    80001efc:	6522                	ld	a0,8(sp)
    80001efe:	0141                	addi	sp,sp,16
    80001f00:	8082                	ret

0000000080001f02 <_start_trap_rust>:
    80001f02:	cd010113          	addi	sp,sp,-816
    80001f06:	32113423          	sd	ra,808(sp)
    80001f0a:	f62a                	sd	a0,296(sp)
    80001f0c:	00001097          	auipc	ra,0x1
    80001f10:	928080e7          	jalr	-1752(ra) # 80002834 <_ZN5riscv8register6mcause4read17h65bf6b5137dd275cE>
    80001f14:	e2aa                	sd	a0,320(sp)
    80001f16:	a009                	j	80001f18 <_start_trap_rust+0x16>
    80001f18:	0288                	addi	a0,sp,320
    80001f1a:	00001097          	auipc	ra,0x1
    80001f1e:	954080e7          	jalr	-1708(ra) # 8000286e <_ZN5riscv8register6mcause6Mcause5cause17h7ed083f86b5c6943E>
    80001f22:	12a10c23          	sb	a0,312(sp)
    80001f26:	12b10ca3          	sb	a1,313(sp)
    80001f2a:	a009                	j	80001f2c <_start_trap_rust+0x2a>
    80001f2c:	13814503          	lbu	a0,312(sp)
    80001f30:	00157593          	andi	a1,a0,1
    80001f34:	4601                	li	a2,0
    80001f36:	f22a                	sd	a0,288(sp)
    80001f38:	00c58863          	beq	a1,a2,80001f48 <_start_trap_rust+0x46>
    80001f3c:	a009                	j	80001f3e <_start_trap_rust+0x3c>
    80001f3e:	4505                	li	a0,1
    80001f40:	7592                	ld	a1,288(sp)
    80001f42:	04a58063          	beq	a1,a0,80001f82 <.LBB9_75+0x1a>
    80001f46:	a829                	j	80001f60 <_start_trap_rust+0x5e>
    80001f48:	13914503          	lbu	a0,313(sp)
    80001f4c:	4589                	li	a1,2
    80001f4e:	ee2a                	sd	a0,280(sp)
    80001f50:	0cb50063          	beq	a0,a1,80002010 <.LBB9_75+0xa8>
    80001f54:	a009                	j	80001f56 <_start_trap_rust+0x54>
    80001f56:	4515                	li	a0,5
    80001f58:	65f2                	ld	a1,280(sp)
    80001f5a:	0ca58663          	beq	a1,a0,80002026 <.LBB9_75+0xbe>
    80001f5e:	a009                	j	80001f60 <_start_trap_rust+0x5e>
    80001f60:	13811503          	lh	a0,312(sp)
    80001f64:	20a11023          	sh	a0,512(sp)

0000000080001f68 <.LBB9_75>:
    80001f68:	00014517          	auipc	a0,0x14
    80001f6c:	ae050513          	addi	a0,a0,-1312 # 80015a48 <.L__unnamed_25>
    80001f70:	610c                	ld	a1,0(a0)
    80001f72:	ea2e                	sd	a1,272(sp)
    80001f74:	fffff097          	auipc	ra,0xfffff
    80001f78:	efc080e7          	jalr	-260(ra) # 80000e70 <_ZN5riscv8register4mepc4read17h81160901c815448bE>
    80001f7c:	2aa13823          	sd	a0,688(sp)
    80001f80:	ae0d                	j	800022b2 <.LBB9_82+0x14>
    80001f82:	13914503          	lbu	a0,313(sp)
    80001f86:	4589                	li	a1,2
    80001f88:	e62a                	sd	a0,264(sp)
    80001f8a:	0ab50963          	beq	a0,a1,8000203c <.LBB9_75+0xd4>
    80001f8e:	a009                	j	80001f90 <.LBB9_75+0x28>
    80001f90:	4525                	li	a0,9
    80001f92:	65b2                	ld	a1,264(sp)
    80001f94:	fca596e3          	bne	a1,a0,80001f60 <_start_trap_rust+0x5e>
    80001f98:	a009                	j	80001f9a <.LBB9_75+0x32>
    80001f9a:	7532                	ld	a0,296(sp)
    80001f9c:	612c                	ld	a1,64(a0)
    80001f9e:	6530                	ld	a2,72(a0)
    80001fa0:	6934                	ld	a3,80(a0)
    80001fa2:	6d38                	ld	a4,88(a0)
    80001fa4:	e6ae                	sd	a1,328(sp)
    80001fa6:	eab2                	sd	a2,336(sp)
    80001fa8:	eeb6                	sd	a3,344(sp)
    80001faa:	f2ba                	sd	a4,352(sp)
    80001fac:	7d3c                	ld	a5,120(a0)
    80001fae:	7928                	ld	a0,112(a0)
    80001fb0:	f6ae                	sd	a1,360(sp)
    80001fb2:	fab2                	sd	a2,368(sp)
    80001fb4:	feb6                	sd	a3,376(sp)
    80001fb6:	e33a                	sd	a4,384(sp)
    80001fb8:	12b0                	addi	a2,sp,360
    80001fba:	e22a                	sd	a0,256(sp)
    80001fbc:	853e                	mv	a0,a5
    80001fbe:	6592                	ld	a1,256(sp)
    80001fc0:	00002097          	auipc	ra,0x2
    80001fc4:	b04080e7          	jalr	-1276(ra) # 80003ac4 <_ZN7rustsbi5ecall12handle_ecall17h67f1e2a8a62e1934E>
    80001fc8:	862a                	mv	a2,a0
    80001fca:	86ae                	mv	a3,a1
    80001fcc:	2ca13423          	sd	a0,712(sp)
    80001fd0:	2cb13823          	sd	a1,720(sp)
    80001fd4:	fdb2                	sd	a2,248(sp)
    80001fd6:	f9b6                	sd	a3,240(sp)
    80001fd8:	a009                	j	80001fda <.LBB9_75+0x72>
    80001fda:	7532                	ld	a0,296(sp)
    80001fdc:	75ee                	ld	a1,248(sp)
    80001fde:	e12c                	sd	a1,64(a0)
    80001fe0:	7532                	ld	a0,296(sp)
    80001fe2:	764e                	ld	a2,240(sp)
    80001fe4:	e530                	sd	a2,72(a0)
    80001fe6:	fffff097          	auipc	ra,0xfffff
    80001fea:	e8a080e7          	jalr	-374(ra) # 80000e70 <_ZN5riscv8register4mepc4read17h81160901c815448bE>
    80001fee:	f5aa                	sd	a0,232(sp)
    80001ff0:	a009                	j	80001ff2 <.LBB9_75+0x8a>
    80001ff2:	4591                	li	a1,4
    80001ff4:	752e                	ld	a0,232(sp)
    80001ff6:	00003097          	auipc	ra,0x3
    80001ffa:	b92080e7          	jalr	-1134(ra) # 80004b88 <_ZN4core3num23_$LT$impl$u20$usize$GT$12wrapping_add17h548f5757d7601a71E>
    80001ffe:	f1aa                	sd	a0,224(sp)
    80002000:	a009                	j	80002002 <.LBB9_75+0x9a>
    80002002:	750e                	ld	a0,224(sp)
    80002004:	fffff097          	auipc	ra,0xfffff
    80002008:	e90080e7          	jalr	-368(ra) # 80000e94 <_ZN5riscv8register4mepc5write17h510ce1108a4c1362E>
    8000200c:	a009                	j	8000200e <.LBB9_75+0xa6>
    8000200e:	aef9                	j	800023ec <.LBB9_89+0x14>
    80002010:	ffffe097          	auipc	ra,0xffffe
    80002014:	178080e7          	jalr	376(ra) # 80000188 <_ZN5riscv8register3mip9set_ssoft17ha3755f42f6306752E>
    80002018:	a009                	j	8000201a <.LBB9_75+0xb2>
    8000201a:	00003097          	auipc	ra,0x3
    8000201e:	074080e7          	jalr	116(ra) # 8000508e <_ZN5riscv8register3mie11clear_msoft17hbe52cf92beed1b89E>
    80002022:	a009                	j	80002024 <.LBB9_75+0xbc>
    80002024:	a6e1                	j	800023ec <.LBB9_89+0x14>
    80002026:	ffffe097          	auipc	ra,0xffffe
    8000202a:	0fc080e7          	jalr	252(ra) # 80000122 <_ZN5riscv8register3mip10set_stimer17h5c60ba76c0efa414E>
    8000202e:	a009                	j	80002030 <.LBB9_75+0xc8>
    80002030:	00003097          	auipc	ra,0x3
    80002034:	074080e7          	jalr	116(ra) # 800050a4 <_ZN5riscv8register3mie12clear_mtimer17h36f941cf8e894a77E>
    80002038:	a009                	j	8000203a <.LBB9_75+0xd2>
    8000203a:	ae4d                	j	800023ec <.LBB9_89+0x14>
    8000203c:	fffff097          	auipc	ra,0xfffff
    80002040:	e34080e7          	jalr	-460(ra) # 80000e70 <_ZN5riscv8register4mepc4read17h81160901c815448bE>
    80002044:	85aa                	mv	a1,a0
    80002046:	2ca13c23          	sd	a0,728(sp)
    8000204a:	edae                	sd	a1,216(sp)
    8000204c:	a009                	j	8000204e <.LBB9_75+0xe6>
    8000204e:	656e                	ld	a0,216(sp)
    80002050:	00000097          	auipc	ra,0x0
    80002054:	3a6080e7          	jalr	934(ra) # 800023f6 <_ZN12rustsbi_qemu15start_trap_rust13get_vaddr_u3217h5f93907734a4a269E>
    80002058:	18a12623          	sw	a0,396(sp)
    8000205c:	a009                	j	8000205e <.LBB9_75+0xf6>
    8000205e:	18c16503          	lwu	a0,396(sp)
    80002062:	001005b7          	lui	a1,0x100
    80002066:	35fd                	addiw	a1,a1,-1
    80002068:	05b2                	slli	a1,a1,0xc
    8000206a:	07f58593          	addi	a1,a1,127 # 10007f <.Lline_table_start0+0xcb027>
    8000206e:	8d6d                	and	a0,a0,a1
    80002070:	000605b7          	lui	a1,0x60
    80002074:	0815859b          	addiw	a1,a1,129
    80002078:	05b6                	slli	a1,a1,0xd
    8000207a:	07358593          	addi	a1,a1,115 # 60073 <.Lline_table_start0+0x2b01b>
    8000207e:	00b50f63          	beq	a0,a1,8000209c <.LBB9_76+0x18>
    80002082:	a009                	j	80002084 <.LBB9_76>

0000000080002084 <.LBB9_76>:
    80002084:	00014517          	auipc	a0,0x14
    80002088:	87450513          	addi	a0,a0,-1932 # 800158f8 <.L__unnamed_26>
    8000208c:	610c                	ld	a1,0(a0)
    8000208e:	e9ae                	sd	a1,208(sp)
    80002090:	fffff097          	auipc	ra,0xfffff
    80002094:	de0080e7          	jalr	-544(ra) # 80000e70 <_ZN5riscv8register4mepc4read17h81160901c815448bE>
    80002098:	ffaa                	sd	a0,504(sp)
    8000209a:	aa41                	j	8000222a <.LBB9_78+0xb6>
    8000209c:	18c16503          	lwu	a0,396(sp)
    800020a0:	811d                	srli	a0,a0,0x7
    800020a2:	e5aa                	sd	a0,200(sp)
    800020a4:	a009                	j	800020a6 <.LBB9_76+0x22>
    800020a6:	652e                	ld	a0,200(sp)
    800020a8:	01f57593          	andi	a1,a0,31
    800020ac:	2eb103a3          	sb	a1,743(sp)
    800020b0:	02000537          	lui	a0,0x2000
    800020b4:	e1ae                	sd	a1,192(sp)
    800020b6:	00002097          	auipc	ra,0x2
    800020ba:	320080e7          	jalr	800(ra) # 800043d6 <_ZN12rustsbi_qemu3hal5clint5Clint3new17hc52a5531fa5adfb4E>
    800020be:	eb2a                	sd	a0,400(sp)
    800020c0:	a009                	j	800020c2 <.LBB9_76+0x3e>
    800020c2:	0b08                	addi	a0,sp,400
    800020c4:	00002097          	auipc	ra,0x2
    800020c8:	31c080e7          	jalr	796(ra) # 800043e0 <_ZN12rustsbi_qemu3hal5clint5Clint9get_mtime17hc460c4a56db244c0E>
    800020cc:	fd2a                	sd	a0,184(sp)
    800020ce:	a009                	j	800020d0 <.LBB9_76+0x4c>
    800020d0:	756a                	ld	a0,184(sp)
    800020d2:	2ea13423          	sd	a0,744(sp)
    800020d6:	4595                	li	a1,5
    800020d8:	660e                	ld	a2,192(sp)
    800020da:	0eb60763          	beq	a2,a1,800021c8 <.LBB9_78+0x54>
    800020de:	a009                	j	800020e0 <.LBB9_76+0x5c>
    800020e0:	4519                	li	a0,6
    800020e2:	658e                	ld	a1,192(sp)
    800020e4:	0ea58663          	beq	a1,a0,800021d0 <.LBB9_78+0x5c>
    800020e8:	a009                	j	800020ea <.LBB9_76+0x66>
    800020ea:	451d                	li	a0,7
    800020ec:	658e                	ld	a1,192(sp)
    800020ee:	0ea58563          	beq	a1,a0,800021d8 <.LBB9_78+0x64>
    800020f2:	a009                	j	800020f4 <.LBB9_76+0x70>
    800020f4:	4529                	li	a0,10
    800020f6:	658e                	ld	a1,192(sp)
    800020f8:	08a58863          	beq	a1,a0,80002188 <.LBB9_78+0x14>
    800020fc:	a009                	j	800020fe <.LBB9_76+0x7a>
    800020fe:	452d                	li	a0,11
    80002100:	658e                	ld	a1,192(sp)
    80002102:	08a58763          	beq	a1,a0,80002190 <.LBB9_78+0x1c>
    80002106:	a009                	j	80002108 <.LBB9_76+0x84>
    80002108:	4531                	li	a0,12
    8000210a:	658e                	ld	a1,192(sp)
    8000210c:	08a58663          	beq	a1,a0,80002198 <.LBB9_78+0x24>
    80002110:	a009                	j	80002112 <.LBB9_76+0x8e>
    80002112:	4535                	li	a0,13
    80002114:	658e                	ld	a1,192(sp)
    80002116:	08a58563          	beq	a1,a0,800021a0 <.LBB9_78+0x2c>
    8000211a:	a009                	j	8000211c <.LBB9_76+0x98>
    8000211c:	4539                	li	a0,14
    8000211e:	658e                	ld	a1,192(sp)
    80002120:	08a58463          	beq	a1,a0,800021a8 <.LBB9_78+0x34>
    80002124:	a009                	j	80002126 <.LBB9_76+0xa2>
    80002126:	453d                	li	a0,15
    80002128:	658e                	ld	a1,192(sp)
    8000212a:	08a58363          	beq	a1,a0,800021b0 <.LBB9_78+0x3c>
    8000212e:	a009                	j	80002130 <.LBB9_76+0xac>
    80002130:	4541                	li	a0,16
    80002132:	658e                	ld	a1,192(sp)
    80002134:	08a58263          	beq	a1,a0,800021b8 <.LBB9_78+0x44>
    80002138:	a009                	j	8000213a <.LBB9_76+0xb6>
    8000213a:	4545                	li	a0,17
    8000213c:	658e                	ld	a1,192(sp)
    8000213e:	08a58163          	beq	a1,a0,800021c0 <.LBB9_78+0x4c>
    80002142:	a009                	j	80002144 <.LBB9_76+0xc0>
    80002144:	4571                	li	a0,28
    80002146:	658e                	ld	a1,192(sp)
    80002148:	08a58c63          	beq	a1,a0,800021e0 <.LBB9_78+0x6c>
    8000214c:	a009                	j	8000214e <.LBB9_76+0xca>
    8000214e:	4575                	li	a0,29
    80002150:	658e                	ld	a1,192(sp)
    80002152:	08a58b63          	beq	a1,a0,800021e8 <.LBB9_78+0x74>
    80002156:	a009                	j	80002158 <.LBB9_76+0xd4>
    80002158:	4579                	li	a0,30
    8000215a:	658e                	ld	a1,192(sp)
    8000215c:	08a58a63          	beq	a1,a0,800021f0 <.LBB9_78+0x7c>
    80002160:	a009                	j	80002162 <.LBB9_76+0xde>
    80002162:	457d                	li	a0,31
    80002164:	658e                	ld	a1,192(sp)
    80002166:	08a58963          	beq	a1,a0,800021f8 <.LBB9_78+0x84>
    8000216a:	a009                	j	8000216c <.LBB9_77>

000000008000216c <.LBB9_77>:
    8000216c:	00013517          	auipc	a0,0x13
    80002170:	71050513          	addi	a0,a0,1808 # 8001587c <.L__unnamed_27>

0000000080002174 <.LBB9_78>:
    80002174:	00013617          	auipc	a2,0x13
    80002178:	71c60613          	addi	a2,a2,1820 # 80015890 <.L__unnamed_28>
    8000217c:	45b9                	li	a1,14
    8000217e:	00011097          	auipc	ra,0x11
    80002182:	a2a080e7          	jalr	-1494(ra) # 80012ba8 <_ZN4core9panicking5panic17h99ef985303ba2443E>
    80002186:	0000                	unimp
    80002188:	7532                	ld	a0,296(sp)
    8000218a:	75ea                	ld	a1,184(sp)
    8000218c:	e12c                	sd	a1,64(a0)
    8000218e:	a88d                	j	80002200 <.LBB9_78+0x8c>
    80002190:	7532                	ld	a0,296(sp)
    80002192:	75ea                	ld	a1,184(sp)
    80002194:	e52c                	sd	a1,72(a0)
    80002196:	a0ad                	j	80002200 <.LBB9_78+0x8c>
    80002198:	7532                	ld	a0,296(sp)
    8000219a:	75ea                	ld	a1,184(sp)
    8000219c:	e92c                	sd	a1,80(a0)
    8000219e:	a08d                	j	80002200 <.LBB9_78+0x8c>
    800021a0:	7532                	ld	a0,296(sp)
    800021a2:	75ea                	ld	a1,184(sp)
    800021a4:	ed2c                	sd	a1,88(a0)
    800021a6:	a8a9                	j	80002200 <.LBB9_78+0x8c>
    800021a8:	7532                	ld	a0,296(sp)
    800021aa:	75ea                	ld	a1,184(sp)
    800021ac:	f12c                	sd	a1,96(a0)
    800021ae:	a889                	j	80002200 <.LBB9_78+0x8c>
    800021b0:	7532                	ld	a0,296(sp)
    800021b2:	75ea                	ld	a1,184(sp)
    800021b4:	f52c                	sd	a1,104(a0)
    800021b6:	a0a9                	j	80002200 <.LBB9_78+0x8c>
    800021b8:	7532                	ld	a0,296(sp)
    800021ba:	75ea                	ld	a1,184(sp)
    800021bc:	f92c                	sd	a1,112(a0)
    800021be:	a089                	j	80002200 <.LBB9_78+0x8c>
    800021c0:	7532                	ld	a0,296(sp)
    800021c2:	75ea                	ld	a1,184(sp)
    800021c4:	fd2c                	sd	a1,120(a0)
    800021c6:	a82d                	j	80002200 <.LBB9_78+0x8c>
    800021c8:	7532                	ld	a0,296(sp)
    800021ca:	75ea                	ld	a1,184(sp)
    800021cc:	e50c                	sd	a1,8(a0)
    800021ce:	a80d                	j	80002200 <.LBB9_78+0x8c>
    800021d0:	7532                	ld	a0,296(sp)
    800021d2:	75ea                	ld	a1,184(sp)
    800021d4:	e90c                	sd	a1,16(a0)
    800021d6:	a02d                	j	80002200 <.LBB9_78+0x8c>
    800021d8:	7532                	ld	a0,296(sp)
    800021da:	75ea                	ld	a1,184(sp)
    800021dc:	ed0c                	sd	a1,24(a0)
    800021de:	a00d                	j	80002200 <.LBB9_78+0x8c>
    800021e0:	7532                	ld	a0,296(sp)
    800021e2:	75ea                	ld	a1,184(sp)
    800021e4:	f10c                	sd	a1,32(a0)
    800021e6:	a829                	j	80002200 <.LBB9_78+0x8c>
    800021e8:	7532                	ld	a0,296(sp)
    800021ea:	75ea                	ld	a1,184(sp)
    800021ec:	f50c                	sd	a1,40(a0)
    800021ee:	a809                	j	80002200 <.LBB9_78+0x8c>
    800021f0:	7532                	ld	a0,296(sp)
    800021f2:	75ea                	ld	a1,184(sp)
    800021f4:	f90c                	sd	a1,48(a0)
    800021f6:	a029                	j	80002200 <.LBB9_78+0x8c>
    800021f8:	7532                	ld	a0,296(sp)
    800021fa:	75ea                	ld	a1,184(sp)
    800021fc:	fd0c                	sd	a1,56(a0)
    800021fe:	a009                	j	80002200 <.LBB9_78+0x8c>
    80002200:	fffff097          	auipc	ra,0xfffff
    80002204:	c70080e7          	jalr	-912(ra) # 80000e70 <_ZN5riscv8register4mepc4read17h81160901c815448bE>
    80002208:	f92a                	sd	a0,176(sp)
    8000220a:	a009                	j	8000220c <.LBB9_78+0x98>
    8000220c:	4591                	li	a1,4
    8000220e:	754a                	ld	a0,176(sp)
    80002210:	00003097          	auipc	ra,0x3
    80002214:	978080e7          	jalr	-1672(ra) # 80004b88 <_ZN4core3num23_$LT$impl$u20$usize$GT$12wrapping_add17h548f5757d7601a71E>
    80002218:	f52a                	sd	a0,168(sp)
    8000221a:	a009                	j	8000221c <.LBB9_78+0xa8>
    8000221c:	752a                	ld	a0,168(sp)
    8000221e:	fffff097          	auipc	ra,0xfffff
    80002222:	c76080e7          	jalr	-906(ra) # 80000e94 <_ZN5riscv8register4mepc5write17h510ce1108a4c1362E>
    80002226:	a009                	j	80002228 <.LBB9_78+0xb4>
    80002228:	a2d1                	j	800023ec <.LBB9_89+0x14>
    8000222a:	1ba8                	addi	a0,sp,504
    8000222c:	f7aa                	sd	a0,488(sp)
    8000222e:	036c                	addi	a1,sp,396
    80002230:	fbae                	sd	a1,496(sp)
    80002232:	2ea13823          	sd	a0,752(sp)
    80002236:	2eb13c23          	sd	a1,760(sp)

000000008000223a <.LBB9_79>:
    8000223a:	00002617          	auipc	a2,0x2
    8000223e:	d5860613          	addi	a2,a2,-680 # 80003f92 <_ZN4core3fmt3num52_$LT$impl$u20$core..fmt..Debug$u20$for$u20$usize$GT$3fmt17h8e0adb484cb36005E>
    80002242:	f12e                	sd	a1,160(sp)
    80002244:	85b2                	mv	a1,a2
    80002246:	0000f097          	auipc	ra,0xf
    8000224a:	ea0080e7          	jalr	-352(ra) # 800110e6 <_ZN4core3fmt10ArgumentV13new17h139910a4747f5ab1E>
    8000224e:	ed2a                	sd	a0,152(sp)
    80002250:	e92e                	sd	a1,144(sp)
    80002252:	a009                	j	80002254 <.LBB9_80>

0000000080002254 <.LBB9_80>:
    80002254:	00002597          	auipc	a1,0x2
    80002258:	cc258593          	addi	a1,a1,-830 # 80003f16 <_ZN4core3fmt3num50_$LT$impl$u20$core..fmt..Debug$u20$for$u20$u32$GT$3fmt17hefa4a0470a7dcf10E>
    8000225c:	750a                	ld	a0,160(sp)
    8000225e:	0000f097          	auipc	ra,0xf
    80002262:	e66080e7          	jalr	-410(ra) # 800110c4 <_ZN4core3fmt10ArgumentV13new17h04318fa7d8d186f9E>
    80002266:	e52a                	sd	a0,136(sp)
    80002268:	e12e                	sd	a1,128(sp)
    8000226a:	a009                	j	8000226c <.LBB9_80+0x18>
    8000226c:	656a                	ld	a0,152(sp)
    8000226e:	e7aa                	sd	a0,456(sp)
    80002270:	65ca                	ld	a1,144(sp)
    80002272:	ebae                	sd	a1,464(sp)
    80002274:	662a                	ld	a2,136(sp)
    80002276:	efb2                	sd	a2,472(sp)
    80002278:	668a                	ld	a3,128(sp)
    8000227a:	f3b6                	sd	a3,480(sp)

000000008000227c <.LBB9_81>:
    8000227c:	00013717          	auipc	a4,0x13
    80002280:	6f470713          	addi	a4,a4,1780 # 80015970 <.L__unnamed_29>
    80002284:	631c                	ld	a5,0(a4)
    80002286:	0b28                	addi	a0,sp,408
    80002288:	03b4                	addi	a3,sp,456
    8000228a:	4709                	li	a4,2
    8000228c:	65ce                	ld	a1,208(sp)
    8000228e:	863a                	mv	a2,a4
    80002290:	fcba                	sd	a4,120(sp)
    80002292:	7866                	ld	a6,120(sp)
    80002294:	00003097          	auipc	ra,0x3
    80002298:	e70080e7          	jalr	-400(ra) # 80005104 <_ZN4core3fmt9Arguments16new_v1_formatted17hf932ab636b61ba33E>
    8000229c:	a009                	j	8000229e <.LBB9_82>

000000008000229e <.LBB9_82>:
    8000229e:	00013597          	auipc	a1,0x13
    800022a2:	6da58593          	addi	a1,a1,1754 # 80015978 <.L__unnamed_30>
    800022a6:	0b28                	addi	a0,sp,408
    800022a8:	00011097          	auipc	ra,0x11
    800022ac:	96c080e7          	jalr	-1684(ra) # 80012c14 <_ZN4core9panicking9panic_fmt17h5d7f9b8b243bcecfE>
    800022b0:	0000                	unimp
    800022b2:	ffffe097          	auipc	ra,0xffffe
    800022b6:	e4c080e7          	jalr	-436(ra) # 800000fe <_ZN5riscv8register5mtval4read17h3ed43d1bd572a56fE>
    800022ba:	2aa13c23          	sd	a0,696(sp)
    800022be:	a009                	j	800022c0 <.LBB9_82+0x22>
    800022c0:	1228                	addi	a0,sp,296
    800022c2:	2ca13023          	sd	a0,704(sp)
    800022c6:	040c                	addi	a1,sp,512
    800022c8:	28b13423          	sd	a1,648(sp)
    800022cc:	1d10                	addi	a2,sp,688
    800022ce:	28c13823          	sd	a2,656(sp)
    800022d2:	1d34                	addi	a3,sp,696
    800022d4:	28d13c23          	sd	a3,664(sp)
    800022d8:	0598                	addi	a4,sp,704
    800022da:	2ae13023          	sd	a4,672(sp)
    800022de:	2aa13423          	sd	a0,680(sp)
    800022e2:	30b13023          	sd	a1,768(sp)
    800022e6:	30c13423          	sd	a2,776(sp)
    800022ea:	30d13823          	sd	a3,784(sp)
    800022ee:	30e13c23          	sd	a4,792(sp)
    800022f2:	32a13023          	sd	a0,800(sp)

00000000800022f6 <.LBB9_83>:
    800022f6:	0000a797          	auipc	a5,0xa
    800022fa:	3ac78793          	addi	a5,a5,940 # 8000c6a2 <_ZN66_$LT$riscv..register..mcause..Trap$u20$as$u20$core..fmt..Debug$GT$3fmt17h63cea4bfc335cf1cE>
    800022fe:	f8aa                	sd	a0,112(sp)
    80002300:	852e                	mv	a0,a1
    80002302:	85be                	mv	a1,a5
    80002304:	f4b2                	sd	a2,104(sp)
    80002306:	f0b6                	sd	a3,96(sp)
    80002308:	ecba                	sd	a4,88(sp)
    8000230a:	00002097          	auipc	ra,0x2
    8000230e:	e94080e7          	jalr	-364(ra) # 8000419e <_ZN4core3fmt10ArgumentV13new17h3dae8cbcb05a71acE>
    80002312:	e8aa                	sd	a0,80(sp)
    80002314:	e4ae                	sd	a1,72(sp)
    80002316:	a009                	j	80002318 <.LBB9_84>

0000000080002318 <.LBB9_84>:
    80002318:	00002597          	auipc	a1,0x2
    8000231c:	c7a58593          	addi	a1,a1,-902 # 80003f92 <_ZN4core3fmt3num52_$LT$impl$u20$core..fmt..Debug$u20$for$u20$usize$GT$3fmt17h8e0adb484cb36005E>
    80002320:	7526                	ld	a0,104(sp)
    80002322:	0000f097          	auipc	ra,0xf
    80002326:	dc4080e7          	jalr	-572(ra) # 800110e6 <_ZN4core3fmt10ArgumentV13new17h139910a4747f5ab1E>
    8000232a:	e0aa                	sd	a0,64(sp)
    8000232c:	fc2e                	sd	a1,56(sp)
    8000232e:	a009                	j	80002330 <.LBB9_85>

0000000080002330 <.LBB9_85>:
    80002330:	00002597          	auipc	a1,0x2
    80002334:	c6258593          	addi	a1,a1,-926 # 80003f92 <_ZN4core3fmt3num52_$LT$impl$u20$core..fmt..Debug$u20$for$u20$usize$GT$3fmt17h8e0adb484cb36005E>
    80002338:	7506                	ld	a0,96(sp)
    8000233a:	0000f097          	auipc	ra,0xf
    8000233e:	dac080e7          	jalr	-596(ra) # 800110e6 <_ZN4core3fmt10ArgumentV13new17h139910a4747f5ab1E>
    80002342:	f82a                	sd	a0,48(sp)
    80002344:	f42e                	sd	a1,40(sp)
    80002346:	a009                	j	80002348 <.LBB9_86>

0000000080002348 <.LBB9_86>:
    80002348:	00003597          	auipc	a1,0x3
    8000234c:	4aa58593          	addi	a1,a1,1194 # 800057f2 <_ZN54_$LT$$BP$const$u20$T$u20$as$u20$core..fmt..Pointer$GT$3fmt17hb84493f5641f7fb2E>
    80002350:	6566                	ld	a0,88(sp)
    80002352:	00002097          	auipc	ra,0x2
    80002356:	e08080e7          	jalr	-504(ra) # 8000415a <_ZN4core3fmt10ArgumentV13new17h27dc88f4abc80c09E>
    8000235a:	f02a                	sd	a0,32(sp)
    8000235c:	ec2e                	sd	a1,24(sp)
    8000235e:	a009                	j	80002360 <.LBB9_87>

0000000080002360 <.LBB9_87>:
    80002360:	00003597          	auipc	a1,0x3
    80002364:	47458593          	addi	a1,a1,1140 # 800057d4 <_ZN50_$LT$$RF$mut$u20$T$u20$as$u20$core..fmt..Debug$GT$3fmt17h61c8f9c015358165E>
    80002368:	7546                	ld	a0,112(sp)
    8000236a:	00002097          	auipc	ra,0x2
    8000236e:	dce080e7          	jalr	-562(ra) # 80004138 <_ZN4core3fmt10ArgumentV13new17h23deffd4c9cb57d1E>
    80002372:	e82a                	sd	a0,16(sp)
    80002374:	e42e                	sd	a1,8(sp)
    80002376:	a009                	j	80002378 <.LBB9_87+0x18>
    80002378:	6546                	ld	a0,80(sp)
    8000237a:	22a13c23          	sd	a0,568(sp)
    8000237e:	65a6                	ld	a1,72(sp)
    80002380:	24b13023          	sd	a1,576(sp)
    80002384:	6606                	ld	a2,64(sp)
    80002386:	24c13423          	sd	a2,584(sp)
    8000238a:	76e2                	ld	a3,56(sp)
    8000238c:	24d13823          	sd	a3,592(sp)
    80002390:	7742                	ld	a4,48(sp)
    80002392:	24e13c23          	sd	a4,600(sp)
    80002396:	77a2                	ld	a5,40(sp)
    80002398:	26f13023          	sd	a5,608(sp)
    8000239c:	7802                	ld	a6,32(sp)
    8000239e:	27013423          	sd	a6,616(sp)
    800023a2:	68e2                	ld	a7,24(sp)
    800023a4:	27113823          	sd	a7,624(sp)
    800023a8:	62c2                	ld	t0,16(sp)
    800023aa:	26513c23          	sd	t0,632(sp)
    800023ae:	6322                	ld	t1,8(sp)
    800023b0:	28613023          	sd	t1,640(sp)

00000000800023b4 <.LBB9_88>:
    800023b4:	00013397          	auipc	t2,0x13
    800023b8:	7b438393          	addi	t2,t2,1972 # 80015b68 <.L__unnamed_31>
    800023bc:	0003b783          	ld	a5,0(t2)
    800023c0:	0428                	addi	a0,sp,520
    800023c2:	1c34                	addi	a3,sp,568
    800023c4:	4395                	li	t2,5
    800023c6:	65d2                	ld	a1,272(sp)
    800023c8:	861e                	mv	a2,t2
    800023ca:	871e                	mv	a4,t2
    800023cc:	881e                	mv	a6,t2
    800023ce:	00003097          	auipc	ra,0x3
    800023d2:	d36080e7          	jalr	-714(ra) # 80005104 <_ZN4core3fmt9Arguments16new_v1_formatted17hf932ab636b61ba33E>
    800023d6:	a009                	j	800023d8 <.LBB9_89>

00000000800023d8 <.LBB9_89>:
    800023d8:	00013597          	auipc	a1,0x13
    800023dc:	79858593          	addi	a1,a1,1944 # 80015b70 <.L__unnamed_32>
    800023e0:	0428                	addi	a0,sp,520
    800023e2:	00011097          	auipc	ra,0x11
    800023e6:	832080e7          	jalr	-1998(ra) # 80012c14 <_ZN4core9panicking9panic_fmt17h5d7f9b8b243bcecfE>
    800023ea:	0000                	unimp
    800023ec:	32813083          	ld	ra,808(sp)
    800023f0:	33010113          	addi	sp,sp,816
    800023f4:	8082                	ret

00000000800023f6 <_ZN12rustsbi_qemu15start_trap_rust13get_vaddr_u3217h5f93907734a4a269E>:
    800023f6:	1141                	addi	sp,sp,-16
    800023f8:	e42a                	sd	a0,8(sp)
    800023fa:	000202b7          	lui	t0,0x20
    800023fe:	832a                	mv	t1,a0
    80002400:	3002a2f3          	csrrs	t0,mstatus,t0
    80002404:	00036303          	lwu	t1,0(t1)
    80002408:	30029073          	csrw	mstatus,t0
    8000240c:	851a                	mv	a0,t1
    8000240e:	c22a                	sw	a0,4(sp)
    80002410:	0141                	addi	sp,sp,16
    80002412:	8082                	ret

0000000080002414 <__rg_alloc>:
    80002414:	7179                	addi	sp,sp,-48
    80002416:	f406                	sd	ra,40(sp)
    80002418:	ec2a                	sd	a0,24(sp)
    8000241a:	f02e                	sd	a1,32(sp)
    8000241c:	00003097          	auipc	ra,0x3
    80002420:	fa4080e7          	jalr	-92(ra) # 800053c0 <_ZN4core5alloc6layout6Layout25from_size_align_unchecked17h3b9a37ad7bf2e3afE>
    80002424:	e82a                	sd	a0,16(sp)
    80002426:	e42e                	sd	a1,8(sp)
    80002428:	a009                	j	8000242a <.LBB11_3>

000000008000242a <.LBB11_3>:
    8000242a:	00017517          	auipc	a0,0x17
    8000242e:	fbe50513          	addi	a0,a0,-66 # 800193e8 <_ZN12rustsbi_qemu9ALLOCATOR17h3765a4724dd2f87cE>
    80002432:	65c2                	ld	a1,16(sp)
    80002434:	6622                	ld	a2,8(sp)
    80002436:	0000b097          	auipc	ra,0xb
    8000243a:	be8080e7          	jalr	-1048(ra) # 8000d01e <_ZN86_$LT$linked_list_allocator..LockedHeap$u20$as$u20$core..alloc..global..GlobalAlloc$GT$5alloc17h68232df00b32701fE>
    8000243e:	e02a                	sd	a0,0(sp)
    80002440:	a009                	j	80002442 <.LBB11_3+0x18>
    80002442:	6502                	ld	a0,0(sp)
    80002444:	70a2                	ld	ra,40(sp)
    80002446:	6145                	addi	sp,sp,48
    80002448:	8082                	ret

000000008000244a <__rg_dealloc>:
    8000244a:	7139                	addi	sp,sp,-64
    8000244c:	fc06                	sd	ra,56(sp)
    8000244e:	f02a                	sd	a0,32(sp)
    80002450:	f42e                	sd	a1,40(sp)
    80002452:	f832                	sd	a2,48(sp)
    80002454:	ec2a                	sd	a0,24(sp)
    80002456:	852e                	mv	a0,a1
    80002458:	85b2                	mv	a1,a2
    8000245a:	00003097          	auipc	ra,0x3
    8000245e:	f66080e7          	jalr	-154(ra) # 800053c0 <_ZN4core5alloc6layout6Layout25from_size_align_unchecked17h3b9a37ad7bf2e3afE>
    80002462:	e82a                	sd	a0,16(sp)
    80002464:	e42e                	sd	a1,8(sp)
    80002466:	a009                	j	80002468 <.LBB12_3>

0000000080002468 <.LBB12_3>:
    80002468:	00017517          	auipc	a0,0x17
    8000246c:	f8050513          	addi	a0,a0,-128 # 800193e8 <_ZN12rustsbi_qemu9ALLOCATOR17h3765a4724dd2f87cE>
    80002470:	65e2                	ld	a1,24(sp)
    80002472:	6642                	ld	a2,16(sp)
    80002474:	66a2                	ld	a3,8(sp)
    80002476:	0000b097          	auipc	ra,0xb
    8000247a:	c34080e7          	jalr	-972(ra) # 8000d0aa <_ZN86_$LT$linked_list_allocator..LockedHeap$u20$as$u20$core..alloc..global..GlobalAlloc$GT$7dealloc17h3df57e250808397dE>
    8000247e:	a009                	j	80002480 <.LBB12_3+0x18>
    80002480:	70e2                	ld	ra,56(sp)
    80002482:	6121                	addi	sp,sp,64
    80002484:	8082                	ret

0000000080002486 <__rg_realloc>:
    80002486:	715d                	addi	sp,sp,-80
    80002488:	e486                	sd	ra,72(sp)
    8000248a:	f42a                	sd	a0,40(sp)
    8000248c:	f82e                	sd	a1,48(sp)
    8000248e:	fc32                	sd	a2,56(sp)
    80002490:	e0b6                	sd	a3,64(sp)
    80002492:	f02a                	sd	a0,32(sp)
    80002494:	852e                	mv	a0,a1
    80002496:	85b2                	mv	a1,a2
    80002498:	ec36                	sd	a3,24(sp)
    8000249a:	00003097          	auipc	ra,0x3
    8000249e:	f26080e7          	jalr	-218(ra) # 800053c0 <_ZN4core5alloc6layout6Layout25from_size_align_unchecked17h3b9a37ad7bf2e3afE>
    800024a2:	e82a                	sd	a0,16(sp)
    800024a4:	e42e                	sd	a1,8(sp)
    800024a6:	a009                	j	800024a8 <.LBB13_3>

00000000800024a8 <.LBB13_3>:
    800024a8:	00017517          	auipc	a0,0x17
    800024ac:	f4050513          	addi	a0,a0,-192 # 800193e8 <_ZN12rustsbi_qemu9ALLOCATOR17h3765a4724dd2f87cE>
    800024b0:	7582                	ld	a1,32(sp)
    800024b2:	6642                	ld	a2,16(sp)
    800024b4:	66a2                	ld	a3,8(sp)
    800024b6:	6762                	ld	a4,24(sp)
    800024b8:	fffff097          	auipc	ra,0xfffff
    800024bc:	900080e7          	jalr	-1792(ra) # 80000db8 <_ZN4core5alloc6global11GlobalAlloc7realloc17h65e537fc3016de65E>
    800024c0:	e02a                	sd	a0,0(sp)
    800024c2:	a009                	j	800024c4 <.LBB13_3+0x1c>
    800024c4:	6502                	ld	a0,0(sp)
    800024c6:	60a6                	ld	ra,72(sp)
    800024c8:	6161                	addi	sp,sp,80
    800024ca:	8082                	ret

00000000800024cc <__rg_alloc_zeroed>:
    800024cc:	7179                	addi	sp,sp,-48
    800024ce:	f406                	sd	ra,40(sp)
    800024d0:	ec2a                	sd	a0,24(sp)
    800024d2:	f02e                	sd	a1,32(sp)
    800024d4:	00003097          	auipc	ra,0x3
    800024d8:	eec080e7          	jalr	-276(ra) # 800053c0 <_ZN4core5alloc6layout6Layout25from_size_align_unchecked17h3b9a37ad7bf2e3afE>
    800024dc:	e82a                	sd	a0,16(sp)
    800024de:	e42e                	sd	a1,8(sp)
    800024e0:	a009                	j	800024e2 <.LBB14_3>

00000000800024e2 <.LBB14_3>:
    800024e2:	00017517          	auipc	a0,0x17
    800024e6:	f0650513          	addi	a0,a0,-250 # 800193e8 <_ZN12rustsbi_qemu9ALLOCATOR17h3765a4724dd2f87cE>
    800024ea:	65c2                	ld	a1,16(sp)
    800024ec:	6622                	ld	a2,8(sp)
    800024ee:	fffff097          	auipc	ra,0xfffff
    800024f2:	85a080e7          	jalr	-1958(ra) # 80000d48 <_ZN4core5alloc6global11GlobalAlloc12alloc_zeroed17h4bd58a632eb1c3ebE>
    800024f6:	e02a                	sd	a0,0(sp)
    800024f8:	a009                	j	800024fa <.LBB14_3+0x18>
    800024fa:	6502                	ld	a0,0(sp)
    800024fc:	70a2                	ld	ra,40(sp)
    800024fe:	6145                	addi	sp,sp,48
    80002500:	8082                	ret

0000000080002502 <_ZN69_$LT$rustsbi_qemu..MAX_HART_ID$u20$as$u20$core..ops..deref..Deref$GT$5deref17h1e03c209e0be5389E>:
    80002502:	1101                	addi	sp,sp,-32
    80002504:	ec06                	sd	ra,24(sp)
    80002506:	e42a                	sd	a0,8(sp)

0000000080002508 <.LBB15_2>:
    80002508:	00017517          	auipc	a0,0x17
    8000250c:	f1050513          	addi	a0,a0,-240 # 80019418 <_ZN69_$LT$rustsbi_qemu..MAX_HART_ID$u20$as$u20$core..ops..deref..Deref$GT$5deref11__stability4LAZY17he6c12ff16f4789b3E>
    80002510:	e82a                	sd	a0,16(sp)
    80002512:	00001097          	auipc	ra,0x1
    80002516:	3d0080e7          	jalr	976(ra) # 800038e2 <_ZN4spin4once13Once$LT$T$GT$9call_once17h25c4d273f475cd6dE>
    8000251a:	e02a                	sd	a0,0(sp)
    8000251c:	a009                	j	8000251e <.LBB15_2+0x16>
    8000251e:	6502                	ld	a0,0(sp)
    80002520:	60e2                	ld	ra,24(sp)
    80002522:	6105                	addi	sp,sp,32
    80002524:	8082                	ret

0000000080002526 <_ZN60_$LT$rustsbi_qemu..TrapFrame$u20$as$u20$core..fmt..Debug$GT$3fmt17hb01f6d0aac22e0d9E>:
    80002526:	7105                	addi	sp,sp,-480
    80002528:	ef86                	sd	ra,472(sp)
    8000252a:	eba2                	sd	s0,464(sp)
    8000252c:	e7a6                	sd	s1,456(sp)
    8000252e:	e3ca                	sd	s2,448(sp)
    80002530:	ff4e                	sd	s3,440(sp)
    80002532:	fb52                	sd	s4,432(sp)
    80002534:	f22a                	sd	a0,288(sp)
    80002536:	f62e                	sd	a1,296(sp)
    80002538:	862a                	mv	a2,a0
    8000253a:	fa2a                	sd	a0,304(sp)
    8000253c:	00850693          	addi	a3,a0,8
    80002540:	fe36                	sd	a3,312(sp)
    80002542:	01050713          	addi	a4,a0,16
    80002546:	e2ba                	sd	a4,320(sp)
    80002548:	01850793          	addi	a5,a0,24
    8000254c:	e6be                	sd	a5,328(sp)
    8000254e:	02050813          	addi	a6,a0,32
    80002552:	eac2                	sd	a6,336(sp)
    80002554:	02850893          	addi	a7,a0,40
    80002558:	eec6                	sd	a7,344(sp)
    8000255a:	03050293          	addi	t0,a0,48
    8000255e:	f296                	sd	t0,352(sp)
    80002560:	03850313          	addi	t1,a0,56
    80002564:	f69a                	sd	t1,360(sp)
    80002566:	04050393          	addi	t2,a0,64
    8000256a:	fa9e                	sd	t2,368(sp)
    8000256c:	04850e13          	addi	t3,a0,72
    80002570:	fef2                	sd	t3,376(sp)
    80002572:	05050e93          	addi	t4,a0,80
    80002576:	e376                	sd	t4,384(sp)
    80002578:	05850f13          	addi	t5,a0,88
    8000257c:	e77a                	sd	t5,392(sp)
    8000257e:	06050f93          	addi	t6,a0,96
    80002582:	eb7e                	sd	t6,400(sp)
    80002584:	06850413          	addi	s0,a0,104
    80002588:	ef22                	sd	s0,408(sp)
    8000258a:	07050493          	addi	s1,a0,112
    8000258e:	f326                	sd	s1,416(sp)
    80002590:	07850513          	addi	a0,a0,120
    80002594:	f72a                	sd	a0,424(sp)

0000000080002596 <.LBB16_19>:
    80002596:	00013917          	auipc	s2,0x13
    8000259a:	5f290913          	addi	s2,s2,1522 # 80015b88 <.L__unnamed_33>
    8000259e:	09010993          	addi	s3,sp,144
    800025a2:	4a25                	li	s4,9
    800025a4:	e52a                	sd	a0,136(sp)
    800025a6:	854e                	mv	a0,s3
    800025a8:	e132                	sd	a2,128(sp)
    800025aa:	864a                	mv	a2,s2
    800025ac:	fcb6                	sd	a3,120(sp)
    800025ae:	86d2                	mv	a3,s4
    800025b0:	f8ba                	sd	a4,112(sp)
    800025b2:	f4be                	sd	a5,104(sp)
    800025b4:	f0c2                	sd	a6,96(sp)
    800025b6:	ecc6                	sd	a7,88(sp)
    800025b8:	e896                	sd	t0,80(sp)
    800025ba:	e49a                	sd	t1,72(sp)
    800025bc:	e09e                	sd	t2,64(sp)
    800025be:	fc72                	sd	t3,56(sp)
    800025c0:	f876                	sd	t4,48(sp)
    800025c2:	f47a                	sd	t5,40(sp)
    800025c4:	f07e                	sd	t6,32(sp)
    800025c6:	ec22                	sd	s0,24(sp)
    800025c8:	e826                	sd	s1,16(sp)
    800025ca:	00011097          	auipc	ra,0x11
    800025ce:	456080e7          	jalr	1110(ra) # 80013a20 <_ZN4core3fmt9Formatter12debug_struct17h0d768d78a5f5592bE>
    800025d2:	a009                	j	800025d4 <.LBB16_19+0x3e>
    800025d4:	650a                	ld	a0,128(sp)
    800025d6:	f12a                	sd	a0,160(sp)

00000000800025d8 <.LBB16_20>:
    800025d8:	00013597          	auipc	a1,0x13
    800025dc:	5b958593          	addi	a1,a1,1465 # 80015b91 <.L__unnamed_34>

00000000800025e0 <.LBB16_21>:
    800025e0:	00013717          	auipc	a4,0x13
    800025e4:	5b870713          	addi	a4,a4,1464 # 80015b98 <.L__unnamed_1>
    800025e8:	0908                	addi	a0,sp,144
    800025ea:	4609                	li	a2,2
    800025ec:	1114                	addi	a3,sp,160
    800025ee:	00011097          	auipc	ra,0x11
    800025f2:	80a080e7          	jalr	-2038(ra) # 80012df8 <_ZN4core3fmt8builders11DebugStruct5field17h43bc8b1af120139aE>
    800025f6:	a009                	j	800025f8 <.LBB16_21+0x18>
    800025f8:	7566                	ld	a0,120(sp)
    800025fa:	f52a                	sd	a0,168(sp)

00000000800025fc <.LBB16_22>:
    800025fc:	00013597          	auipc	a1,0x13
    80002600:	5bc58593          	addi	a1,a1,1468 # 80015bb8 <.L__unnamed_35>

0000000080002604 <.LBB16_23>:
    80002604:	00013717          	auipc	a4,0x13
    80002608:	59470713          	addi	a4,a4,1428 # 80015b98 <.L__unnamed_1>
    8000260c:	0908                	addi	a0,sp,144
    8000260e:	4609                	li	a2,2
    80002610:	1134                	addi	a3,sp,168
    80002612:	00010097          	auipc	ra,0x10
    80002616:	7e6080e7          	jalr	2022(ra) # 80012df8 <_ZN4core3fmt8builders11DebugStruct5field17h43bc8b1af120139aE>
    8000261a:	a009                	j	8000261c <.LBB16_23+0x18>
    8000261c:	7546                	ld	a0,112(sp)
    8000261e:	f92a                	sd	a0,176(sp)

0000000080002620 <.LBB16_24>:
    80002620:	00013597          	auipc	a1,0x13
    80002624:	59a58593          	addi	a1,a1,1434 # 80015bba <.L__unnamed_36>

0000000080002628 <.LBB16_25>:
    80002628:	00013717          	auipc	a4,0x13
    8000262c:	57070713          	addi	a4,a4,1392 # 80015b98 <.L__unnamed_1>
    80002630:	0908                	addi	a0,sp,144
    80002632:	4609                	li	a2,2
    80002634:	1914                	addi	a3,sp,176
    80002636:	00010097          	auipc	ra,0x10
    8000263a:	7c2080e7          	jalr	1986(ra) # 80012df8 <_ZN4core3fmt8builders11DebugStruct5field17h43bc8b1af120139aE>
    8000263e:	a009                	j	80002640 <.LBB16_25+0x18>
    80002640:	7526                	ld	a0,104(sp)
    80002642:	fd2a                	sd	a0,184(sp)

0000000080002644 <.LBB16_26>:
    80002644:	00013597          	auipc	a1,0x13
    80002648:	57858593          	addi	a1,a1,1400 # 80015bbc <.L__unnamed_37>

000000008000264c <.LBB16_27>:
    8000264c:	00013717          	auipc	a4,0x13
    80002650:	54c70713          	addi	a4,a4,1356 # 80015b98 <.L__unnamed_1>
    80002654:	0908                	addi	a0,sp,144
    80002656:	4609                	li	a2,2
    80002658:	1934                	addi	a3,sp,184
    8000265a:	00010097          	auipc	ra,0x10
    8000265e:	79e080e7          	jalr	1950(ra) # 80012df8 <_ZN4core3fmt8builders11DebugStruct5field17h43bc8b1af120139aE>
    80002662:	a009                	j	80002664 <.LBB16_27+0x18>
    80002664:	7506                	ld	a0,96(sp)
    80002666:	e1aa                	sd	a0,192(sp)

0000000080002668 <.LBB16_28>:
    80002668:	00013597          	auipc	a1,0x13
    8000266c:	55658593          	addi	a1,a1,1366 # 80015bbe <.L__unnamed_38>

0000000080002670 <.LBB16_29>:
    80002670:	00013717          	auipc	a4,0x13
    80002674:	52870713          	addi	a4,a4,1320 # 80015b98 <.L__unnamed_1>
    80002678:	0908                	addi	a0,sp,144
    8000267a:	4609                	li	a2,2
    8000267c:	0194                	addi	a3,sp,192
    8000267e:	00010097          	auipc	ra,0x10
    80002682:	77a080e7          	jalr	1914(ra) # 80012df8 <_ZN4core3fmt8builders11DebugStruct5field17h43bc8b1af120139aE>
    80002686:	a009                	j	80002688 <.LBB16_29+0x18>
    80002688:	6566                	ld	a0,88(sp)
    8000268a:	e5aa                	sd	a0,200(sp)

000000008000268c <.LBB16_30>:
    8000268c:	00013597          	auipc	a1,0x13
    80002690:	53458593          	addi	a1,a1,1332 # 80015bc0 <.L__unnamed_39>

0000000080002694 <.LBB16_31>:
    80002694:	00013717          	auipc	a4,0x13
    80002698:	50470713          	addi	a4,a4,1284 # 80015b98 <.L__unnamed_1>
    8000269c:	0908                	addi	a0,sp,144
    8000269e:	4609                	li	a2,2
    800026a0:	01b4                	addi	a3,sp,200
    800026a2:	00010097          	auipc	ra,0x10
    800026a6:	756080e7          	jalr	1878(ra) # 80012df8 <_ZN4core3fmt8builders11DebugStruct5field17h43bc8b1af120139aE>
    800026aa:	a009                	j	800026ac <.LBB16_31+0x18>
    800026ac:	6546                	ld	a0,80(sp)
    800026ae:	e9aa                	sd	a0,208(sp)

00000000800026b0 <.LBB16_32>:
    800026b0:	00013597          	auipc	a1,0x13
    800026b4:	51258593          	addi	a1,a1,1298 # 80015bc2 <.L__unnamed_40>

00000000800026b8 <.LBB16_33>:
    800026b8:	00013717          	auipc	a4,0x13
    800026bc:	4e070713          	addi	a4,a4,1248 # 80015b98 <.L__unnamed_1>
    800026c0:	0908                	addi	a0,sp,144
    800026c2:	4609                	li	a2,2
    800026c4:	0994                	addi	a3,sp,208
    800026c6:	00010097          	auipc	ra,0x10
    800026ca:	732080e7          	jalr	1842(ra) # 80012df8 <_ZN4core3fmt8builders11DebugStruct5field17h43bc8b1af120139aE>
    800026ce:	a009                	j	800026d0 <.LBB16_33+0x18>
    800026d0:	6526                	ld	a0,72(sp)
    800026d2:	edaa                	sd	a0,216(sp)

00000000800026d4 <.LBB16_34>:
    800026d4:	00013597          	auipc	a1,0x13
    800026d8:	4f058593          	addi	a1,a1,1264 # 80015bc4 <.L__unnamed_41>

00000000800026dc <.LBB16_35>:
    800026dc:	00013717          	auipc	a4,0x13
    800026e0:	4bc70713          	addi	a4,a4,1212 # 80015b98 <.L__unnamed_1>
    800026e4:	0908                	addi	a0,sp,144
    800026e6:	4609                	li	a2,2
    800026e8:	09b4                	addi	a3,sp,216
    800026ea:	00010097          	auipc	ra,0x10
    800026ee:	70e080e7          	jalr	1806(ra) # 80012df8 <_ZN4core3fmt8builders11DebugStruct5field17h43bc8b1af120139aE>
    800026f2:	a009                	j	800026f4 <.LBB16_35+0x18>
    800026f4:	6506                	ld	a0,64(sp)
    800026f6:	f1aa                	sd	a0,224(sp)

00000000800026f8 <.LBB16_36>:
    800026f8:	00013597          	auipc	a1,0x13
    800026fc:	4ce58593          	addi	a1,a1,1230 # 80015bc6 <.L__unnamed_42>

0000000080002700 <.LBB16_37>:
    80002700:	00013717          	auipc	a4,0x13
    80002704:	49870713          	addi	a4,a4,1176 # 80015b98 <.L__unnamed_1>
    80002708:	0908                	addi	a0,sp,144
    8000270a:	4609                	li	a2,2
    8000270c:	1194                	addi	a3,sp,224
    8000270e:	00010097          	auipc	ra,0x10
    80002712:	6ea080e7          	jalr	1770(ra) # 80012df8 <_ZN4core3fmt8builders11DebugStruct5field17h43bc8b1af120139aE>
    80002716:	a009                	j	80002718 <.LBB16_37+0x18>
    80002718:	7562                	ld	a0,56(sp)
    8000271a:	f5aa                	sd	a0,232(sp)

000000008000271c <.LBB16_38>:
    8000271c:	00013597          	auipc	a1,0x13
    80002720:	4ac58593          	addi	a1,a1,1196 # 80015bc8 <.L__unnamed_43>

0000000080002724 <.LBB16_39>:
    80002724:	00013717          	auipc	a4,0x13
    80002728:	47470713          	addi	a4,a4,1140 # 80015b98 <.L__unnamed_1>
    8000272c:	0908                	addi	a0,sp,144
    8000272e:	4609                	li	a2,2
    80002730:	11b4                	addi	a3,sp,232
    80002732:	00010097          	auipc	ra,0x10
    80002736:	6c6080e7          	jalr	1734(ra) # 80012df8 <_ZN4core3fmt8builders11DebugStruct5field17h43bc8b1af120139aE>
    8000273a:	a009                	j	8000273c <.LBB16_39+0x18>
    8000273c:	7542                	ld	a0,48(sp)
    8000273e:	f9aa                	sd	a0,240(sp)

0000000080002740 <.LBB16_40>:
    80002740:	00013597          	auipc	a1,0x13
    80002744:	48a58593          	addi	a1,a1,1162 # 80015bca <.L__unnamed_44>

0000000080002748 <.LBB16_41>:
    80002748:	00013717          	auipc	a4,0x13
    8000274c:	45070713          	addi	a4,a4,1104 # 80015b98 <.L__unnamed_1>
    80002750:	0908                	addi	a0,sp,144
    80002752:	4609                	li	a2,2
    80002754:	1994                	addi	a3,sp,240
    80002756:	00010097          	auipc	ra,0x10
    8000275a:	6a2080e7          	jalr	1698(ra) # 80012df8 <_ZN4core3fmt8builders11DebugStruct5field17h43bc8b1af120139aE>
    8000275e:	a009                	j	80002760 <.LBB16_41+0x18>
    80002760:	7522                	ld	a0,40(sp)
    80002762:	fdaa                	sd	a0,248(sp)

0000000080002764 <.LBB16_42>:
    80002764:	00013597          	auipc	a1,0x13
    80002768:	46858593          	addi	a1,a1,1128 # 80015bcc <.L__unnamed_45>

000000008000276c <.LBB16_43>:
    8000276c:	00013717          	auipc	a4,0x13
    80002770:	42c70713          	addi	a4,a4,1068 # 80015b98 <.L__unnamed_1>
    80002774:	0908                	addi	a0,sp,144
    80002776:	4609                	li	a2,2
    80002778:	19b4                	addi	a3,sp,248
    8000277a:	00010097          	auipc	ra,0x10
    8000277e:	67e080e7          	jalr	1662(ra) # 80012df8 <_ZN4core3fmt8builders11DebugStruct5field17h43bc8b1af120139aE>
    80002782:	a009                	j	80002784 <.LBB16_43+0x18>
    80002784:	7502                	ld	a0,32(sp)
    80002786:	e22a                	sd	a0,256(sp)

0000000080002788 <.LBB16_44>:
    80002788:	00013597          	auipc	a1,0x13
    8000278c:	44658593          	addi	a1,a1,1094 # 80015bce <.L__unnamed_46>

0000000080002790 <.LBB16_45>:
    80002790:	00013717          	auipc	a4,0x13
    80002794:	40870713          	addi	a4,a4,1032 # 80015b98 <.L__unnamed_1>
    80002798:	0908                	addi	a0,sp,144
    8000279a:	4609                	li	a2,2
    8000279c:	0214                	addi	a3,sp,256
    8000279e:	00010097          	auipc	ra,0x10
    800027a2:	65a080e7          	jalr	1626(ra) # 80012df8 <_ZN4core3fmt8builders11DebugStruct5field17h43bc8b1af120139aE>
    800027a6:	a009                	j	800027a8 <.LBB16_45+0x18>
    800027a8:	6562                	ld	a0,24(sp)
    800027aa:	e62a                	sd	a0,264(sp)

00000000800027ac <.LBB16_46>:
    800027ac:	00013597          	auipc	a1,0x13
    800027b0:	42458593          	addi	a1,a1,1060 # 80015bd0 <.L__unnamed_47>

00000000800027b4 <.LBB16_47>:
    800027b4:	00013717          	auipc	a4,0x13
    800027b8:	3e470713          	addi	a4,a4,996 # 80015b98 <.L__unnamed_1>
    800027bc:	0908                	addi	a0,sp,144
    800027be:	4609                	li	a2,2
    800027c0:	0234                	addi	a3,sp,264
    800027c2:	00010097          	auipc	ra,0x10
    800027c6:	636080e7          	jalr	1590(ra) # 80012df8 <_ZN4core3fmt8builders11DebugStruct5field17h43bc8b1af120139aE>
    800027ca:	a009                	j	800027cc <.LBB16_47+0x18>
    800027cc:	6542                	ld	a0,16(sp)
    800027ce:	ea2a                	sd	a0,272(sp)

00000000800027d0 <.LBB16_48>:
    800027d0:	00013597          	auipc	a1,0x13
    800027d4:	40258593          	addi	a1,a1,1026 # 80015bd2 <.L__unnamed_48>

00000000800027d8 <.LBB16_49>:
    800027d8:	00013717          	auipc	a4,0x13
    800027dc:	3c070713          	addi	a4,a4,960 # 80015b98 <.L__unnamed_1>
    800027e0:	0908                	addi	a0,sp,144
    800027e2:	4609                	li	a2,2
    800027e4:	0a14                	addi	a3,sp,272
    800027e6:	00010097          	auipc	ra,0x10
    800027ea:	612080e7          	jalr	1554(ra) # 80012df8 <_ZN4core3fmt8builders11DebugStruct5field17h43bc8b1af120139aE>
    800027ee:	a009                	j	800027f0 <.LBB16_49+0x18>
    800027f0:	652a                	ld	a0,136(sp)
    800027f2:	ee2a                	sd	a0,280(sp)

00000000800027f4 <.LBB16_50>:
    800027f4:	00013597          	auipc	a1,0x13
    800027f8:	3e058593          	addi	a1,a1,992 # 80015bd4 <.L__unnamed_49>

00000000800027fc <.LBB16_51>:
    800027fc:	00013717          	auipc	a4,0x13
    80002800:	39c70713          	addi	a4,a4,924 # 80015b98 <.L__unnamed_1>
    80002804:	0908                	addi	a0,sp,144
    80002806:	4609                	li	a2,2
    80002808:	0a34                	addi	a3,sp,280
    8000280a:	00010097          	auipc	ra,0x10
    8000280e:	5ee080e7          	jalr	1518(ra) # 80012df8 <_ZN4core3fmt8builders11DebugStruct5field17h43bc8b1af120139aE>
    80002812:	a009                	j	80002814 <.LBB16_51+0x18>
    80002814:	0908                	addi	a0,sp,144
    80002816:	00010097          	auipc	ra,0x10
    8000281a:	73a080e7          	jalr	1850(ra) # 80012f50 <_ZN4core3fmt8builders11DebugStruct6finish17hbfdaa8bb55dd8075E>
    8000281e:	e42a                	sd	a0,8(sp)
    80002820:	a009                	j	80002822 <.LBB16_51+0x26>
    80002822:	6522                	ld	a0,8(sp)
    80002824:	7a5a                	ld	s4,432(sp)
    80002826:	79fa                	ld	s3,440(sp)
    80002828:	691e                	ld	s2,448(sp)
    8000282a:	64be                	ld	s1,456(sp)
    8000282c:	645e                	ld	s0,464(sp)
    8000282e:	60fe                	ld	ra,472(sp)
    80002830:	613d                	addi	sp,sp,480
    80002832:	8082                	ret

0000000080002834 <_ZN5riscv8register6mcause4read17h65bf6b5137dd275cE>:
    80002834:	1101                	addi	sp,sp,-32
    80002836:	ec06                	sd	ra,24(sp)
    80002838:	00000097          	auipc	ra,0x0
    8000283c:	016080e7          	jalr	22(ra) # 8000284e <_ZN5riscv8register6mcause5_read17hf0374bcfa5969549E>
    80002840:	e42a                	sd	a0,8(sp)
    80002842:	a009                	j	80002844 <_ZN5riscv8register6mcause4read17h65bf6b5137dd275cE+0x10>
    80002844:	6522                	ld	a0,8(sp)
    80002846:	e82a                	sd	a0,16(sp)
    80002848:	60e2                	ld	ra,24(sp)
    8000284a:	6105                	addi	sp,sp,32
    8000284c:	8082                	ret

000000008000284e <_ZN5riscv8register6mcause5_read17hf0374bcfa5969549E>:
    8000284e:	1141                	addi	sp,sp,-16
    80002850:	34202573          	csrr	a0,mcause
    80002854:	e42a                	sd	a0,8(sp)
    80002856:	0141                	addi	sp,sp,16
    80002858:	8082                	ret

000000008000285a <_ZN5riscv8register6mcause6Mcause12is_interrupt17he6054886c557eeb1E>:
    8000285a:	1141                	addi	sp,sp,-16
    8000285c:	e42a                	sd	a0,8(sp)
    8000285e:	6108                	ld	a0,0(a0)
    80002860:	917d                	srli	a0,a0,0x3f
    80002862:	00154513          	xori	a0,a0,1
    80002866:	00153513          	seqz	a0,a0
    8000286a:	0141                	addi	sp,sp,16
    8000286c:	8082                	ret

000000008000286e <_ZN5riscv8register6mcause6Mcause5cause17h7ed083f86b5c6943E>:
    8000286e:	715d                	addi	sp,sp,-80
    80002870:	e486                	sd	ra,72(sp)
    80002872:	e0aa                	sd	a0,64(sp)
    80002874:	f82a                	sd	a0,48(sp)
    80002876:	00000097          	auipc	ra,0x0
    8000287a:	fe4080e7          	jalr	-28(ra) # 8000285a <_ZN5riscv8register6mcause6Mcause12is_interrupt17he6054886c557eeb1E>
    8000287e:	f42a                	sd	a0,40(sp)
    80002880:	a009                	j	80002882 <_ZN5riscv8register6mcause6Mcause5cause17h7ed083f86b5c6943E+0x14>
    80002882:	7522                	ld	a0,40(sp)
    80002884:	e909                	bnez	a0,80002896 <_ZN5riscv8register6mcause6Mcause5cause17h7ed083f86b5c6943E+0x28>
    80002886:	a009                	j	80002888 <_ZN5riscv8register6mcause6Mcause5cause17h7ed083f86b5c6943E+0x1a>
    80002888:	7542                	ld	a0,48(sp)
    8000288a:	0000a097          	auipc	ra,0xa
    8000288e:	e06080e7          	jalr	-506(ra) # 8000c690 <_ZN5riscv8register6mcause6Mcause4code17h95827bd4b2c8729dE>
    80002892:	f02a                	sd	a0,32(sp)
    80002894:	a805                	j	800028c4 <_ZN5riscv8register6mcause6Mcause5cause17h7ed083f86b5c6943E+0x56>
    80002896:	7542                	ld	a0,48(sp)
    80002898:	0000a097          	auipc	ra,0xa
    8000289c:	df8080e7          	jalr	-520(ra) # 8000c690 <_ZN5riscv8register6mcause6Mcause4code17h95827bd4b2c8729dE>
    800028a0:	ec2a                	sd	a0,24(sp)
    800028a2:	a009                	j	800028a4 <_ZN5riscv8register6mcause6Mcause5cause17h7ed083f86b5c6943E+0x36>
    800028a4:	6562                	ld	a0,24(sp)
    800028a6:	0000a097          	auipc	ra,0xa
    800028aa:	c24080e7          	jalr	-988(ra) # 8000c4ca <_ZN5riscv8register6mcause9Interrupt4from17hfcda699c77efa53eE>
    800028ae:	0ff57513          	andi	a0,a0,255
    800028b2:	e82a                	sd	a0,16(sp)
    800028b4:	a009                	j	800028b6 <_ZN5riscv8register6mcause6Mcause5cause17h7ed083f86b5c6943E+0x48>
    800028b6:	6542                	ld	a0,16(sp)
    800028b8:	02a10ca3          	sb	a0,57(sp)
    800028bc:	4581                	li	a1,0
    800028be:	02b10c23          	sb	a1,56(sp)
    800028c2:	a00d                	j	800028e4 <_ZN5riscv8register6mcause6Mcause5cause17h7ed083f86b5c6943E+0x76>
    800028c4:	7502                	ld	a0,32(sp)
    800028c6:	0000a097          	auipc	ra,0xa
    800028ca:	cba080e7          	jalr	-838(ra) # 8000c580 <_ZN5riscv8register6mcause9Exception4from17h012ce9f08889b644E>
    800028ce:	0ff57513          	andi	a0,a0,255
    800028d2:	e42a                	sd	a0,8(sp)
    800028d4:	a009                	j	800028d6 <_ZN5riscv8register6mcause6Mcause5cause17h7ed083f86b5c6943E+0x68>
    800028d6:	6522                	ld	a0,8(sp)
    800028d8:	02a10ca3          	sb	a0,57(sp)
    800028dc:	4585                	li	a1,1
    800028de:	02b10c23          	sb	a1,56(sp)
    800028e2:	a009                	j	800028e4 <_ZN5riscv8register6mcause6Mcause5cause17h7ed083f86b5c6943E+0x76>
    800028e4:	03814503          	lbu	a0,56(sp)
    800028e8:	03910583          	lb	a1,57(sp)
    800028ec:	60a6                	ld	ra,72(sp)
    800028ee:	6161                	addi	sp,sp,80
    800028f0:	8082                	ret

00000000800028f2 <_ZN5riscv8register3mie10set_mtimer17he14f9ce126a52d06E>:
    800028f2:	1141                	addi	sp,sp,-16
    800028f4:	e406                	sd	ra,8(sp)
    800028f6:	08000513          	li	a0,128
    800028fa:	00000097          	auipc	ra,0x0
    800028fe:	028080e7          	jalr	40(ra) # 80002922 <_ZN5riscv8register3mie4_set17h97387aebb68e2300E>
    80002902:	a009                	j	80002904 <_ZN5riscv8register3mie10set_mtimer17he14f9ce126a52d06E+0x12>
    80002904:	60a2                	ld	ra,8(sp)
    80002906:	0141                	addi	sp,sp,16
    80002908:	8082                	ret

000000008000290a <_ZN5riscv8register3mie12clear_mtimer17h5c348dee8af72a28E>:
    8000290a:	1141                	addi	sp,sp,-16
    8000290c:	e406                	sd	ra,8(sp)
    8000290e:	08000513          	li	a0,128
    80002912:	00000097          	auipc	ra,0x0
    80002916:	026080e7          	jalr	38(ra) # 80002938 <_ZN5riscv8register3mie6_clear17h24a39f7032733e0dE>
    8000291a:	a009                	j	8000291c <_ZN5riscv8register3mie12clear_mtimer17h5c348dee8af72a28E+0x12>
    8000291c:	60a2                	ld	ra,8(sp)
    8000291e:	0141                	addi	sp,sp,16
    80002920:	8082                	ret

0000000080002922 <_ZN5riscv8register3mie4_set17h97387aebb68e2300E>:
    80002922:	1141                	addi	sp,sp,-16
    80002924:	e406                	sd	ra,8(sp)
    80002926:	e02a                	sd	a0,0(sp)
    80002928:	00010097          	auipc	ra,0x10
    8000292c:	c26080e7          	jalr	-986(ra) # 8001254e <__set_mie>
    80002930:	a009                	j	80002932 <_ZN5riscv8register3mie4_set17h97387aebb68e2300E+0x10>
    80002932:	60a2                	ld	ra,8(sp)
    80002934:	0141                	addi	sp,sp,16
    80002936:	8082                	ret

0000000080002938 <_ZN5riscv8register3mie6_clear17h24a39f7032733e0dE>:
    80002938:	1141                	addi	sp,sp,-16
    8000293a:	e406                	sd	ra,8(sp)
    8000293c:	e02a                	sd	a0,0(sp)
    8000293e:	00010097          	auipc	ra,0x10
    80002942:	c16080e7          	jalr	-1002(ra) # 80012554 <__clear_mie>
    80002946:	a009                	j	80002948 <_ZN5riscv8register3mie6_clear17h24a39f7032733e0dE+0x10>
    80002948:	60a2                	ld	ra,8(sp)
    8000294a:	0141                	addi	sp,sp,16
    8000294c:	8082                	ret

000000008000294e <_ZN12rustsbi_qemu3hal8ns16550a8Ns16550a3new17ha30eadead1fed128E>:
    8000294e:	7151                	addi	sp,sp,-240
    80002950:	f586                	sd	ra,232(sp)
    80002952:	e1aa                	sd	a0,192(sp)
    80002954:	e5ae                	sd	a1,200(sp)
    80002956:	e9b2                	sd	a2,208(sp)
    80002958:	edb6                	sd	a3,216(sp)
    8000295a:	fc05f713          	andi	a4,a1,-64
    8000295e:	478d                	li	a5,3
    80002960:	00b797b3          	sll	a5,a5,a1
    80002964:	4801                	li	a6,0
    80002966:	f536                	sd	a3,168(sp)
    80002968:	f132                	sd	a2,160(sp)
    8000296a:	ed2e                	sd	a1,152(sp)
    8000296c:	e92a                	sd	a0,144(sp)
    8000296e:	e53e                	sd	a5,136(sp)
    80002970:	1b071063          	bne	a4,a6,80002b10 <.LBB0_41>
    80002974:	a009                	j	80002976 <_ZN12rustsbi_qemu3hal8ns16550a8Ns16550a3new17ha30eadead1fed128E+0x28>
    80002976:	654a                	ld	a0,144(sp)
    80002978:	65aa                	ld	a1,136(sp)
    8000297a:	00b50633          	add	a2,a0,a1
    8000297e:	e132                	sd	a2,128(sp)
    80002980:	1aa66763          	bltu	a2,a0,80002b2e <.LBB0_43>
    80002984:	a009                	j	80002986 <_ZN12rustsbi_qemu3hal8ns16550a8Ns16550a3new17ha30eadead1fed128E+0x38>
    80002986:	08000593          	li	a1,128
    8000298a:	650a                	ld	a0,128(sp)
    8000298c:	00003097          	auipc	ra,0x3
    80002990:	80a080e7          	jalr	-2038(ra) # 80005196 <_ZN4core3ptr14write_volatile17hde48d740e30d12a0E>
    80002994:	a009                	j	80002996 <_ZN12rustsbi_qemu3hal8ns16550a8Ns16550a3new17ha30eadead1fed128E+0x48>
    80002996:	4505                	li	a0,1
    80002998:	1572                	slli	a0,a0,0x3c
    8000299a:	157d                	addi	a0,a0,-1
    8000299c:	75aa                	ld	a1,168(sp)
    8000299e:	8d6d                	and	a0,a0,a1
    800029a0:	00459613          	slli	a2,a1,0x4
    800029a4:	fcb2                	sd	a2,120(sp)
    800029a6:	1ab51263          	bne	a0,a1,80002b4a <.LBB0_45>
    800029aa:	a009                	j	800029ac <_ZN12rustsbi_qemu3hal8ns16550a8Ns16550a3new17ha30eadead1fed128E+0x5e>
    800029ac:	4501                	li	a0,0
    800029ae:	75e6                	ld	a1,120(sp)
    800029b0:	1aa58c63          	beq	a1,a0,80002b68 <.LBB0_47>
    800029b4:	a009                	j	800029b6 <_ZN12rustsbi_qemu3hal8ns16550a8Ns16550a3new17ha30eadead1fed128E+0x68>
    800029b6:	750a                	ld	a0,160(sp)
    800029b8:	75e6                	ld	a1,120(sp)
    800029ba:	02b55633          	divu	a2,a0,a1
    800029be:	f1b2                	sd	a2,224(sp)
    800029c0:	66ea                	ld	a3,152(sp)
    800029c2:	fc06f713          	andi	a4,a3,-64
    800029c6:	4781                	li	a5,0
    800029c8:	883e                	mv	a6,a5
