
../target/kernel:     file format elf64-littleriscv


Disassembly of section .text:

0000000080200000 <_entry>:
    80200000:	00150293          	addi	t0,a0,1
    80200004:	02ba                	slli	t0,t0,0xe
    80200006:	0000c117          	auipc	sp,0xc
    8020000a:	ffa10113          	addi	sp,sp,-6 # 8020c000 <boot_stack>
    8020000e:	9116                	add	sp,sp,t0
    80200010:	0f2000ef          	jal	ra,80200102 <main>

0000000080200014 <loop>:
    80200014:	a001                	j	80200014 <loop>

0000000080200016 <_Z10print_logov>:

static inline void inithartid(unsigned long hartid) { asm volatile("mv tp, %0" : : "r"(hartid & 0x1)); }

volatile static int started = 0;

void print_logo() {
    80200016:	1141                	addi	sp,sp,-16
    80200018:	e406                	sd	ra,8(sp)
    8020001a:	e022                	sd	s0,0(sp)
    8020001c:	0800                	addi	s0,sp,16
  printf("\n");
    8020001e:	0000a517          	auipc	a0,0xa
    80200022:	08250513          	addi	a0,a0,130 # 8020a0a0 <rodata_start+0xa0>
    80200026:	00001097          	auipc	ra,0x1
    8020002a:	82e080e7          	jalr	-2002(ra) # 80200854 <_Z6printfPKcz>
  printf("  _____   _                 _      ____     _____\n");
    8020002e:	0000a517          	auipc	a0,0xa
    80200032:	fd250513          	addi	a0,a0,-46 # 8020a000 <rodata_start>
    80200036:	00001097          	auipc	ra,0x1
    8020003a:	81e080e7          	jalr	-2018(ra) # 80200854 <_Z6printfPKcz>
  printf(" / ____| | |               | |    / __ \\   / ____|\n");
    8020003e:	0000a517          	auipc	a0,0xa
    80200042:	ffa50513          	addi	a0,a0,-6 # 8020a038 <rodata_start+0x38>
    80200046:	00001097          	auipc	ra,0x1
    8020004a:	80e080e7          	jalr	-2034(ra) # 80200854 <_Z6printfPKcz>
  printf("| (___   | |_   __ _  _ __ | |_  | |  | | | (___\n");
    8020004e:	0000a517          	auipc	a0,0xa
    80200052:	02250513          	addi	a0,a0,34 # 8020a070 <rodata_start+0x70>
    80200056:	00000097          	auipc	ra,0x0
    8020005a:	7fe080e7          	jalr	2046(ra) # 80200854 <_Z6printfPKcz>
  printf(" \\___  \\ | __| / _` || '__|| __| | |  | |  \\___ \\\n");
    8020005e:	0000a517          	auipc	a0,0xa
    80200062:	04a50513          	addi	a0,a0,74 # 8020a0a8 <rodata_start+0xa8>
    80200066:	00000097          	auipc	ra,0x0
    8020006a:	7ee080e7          	jalr	2030(ra) # 80200854 <_Z6printfPKcz>
  printf(" ____) | | |_ | (_| || |   | |_  | |__| |  ____) |\n");
    8020006e:	0000a517          	auipc	a0,0xa
    80200072:	07250513          	addi	a0,a0,114 # 8020a0e0 <rodata_start+0xe0>
    80200076:	00000097          	auipc	ra,0x0
    8020007a:	7de080e7          	jalr	2014(ra) # 80200854 <_Z6printfPKcz>
  printf("|_____/  \\__|  \\____||_|   \\___|  \\_____/ |_____/\n");
    8020007e:	0000a517          	auipc	a0,0xa
    80200082:	09a50513          	addi	a0,a0,154 # 8020a118 <rodata_start+0x118>
    80200086:	00000097          	auipc	ra,0x0
    8020008a:	7ce080e7          	jalr	1998(ra) # 80200854 <_Z6printfPKcz>
  printf("\n");
    8020008e:	0000a517          	auipc	a0,0xa
    80200092:	01250513          	addi	a0,a0,18 # 8020a0a0 <rodata_start+0xa0>
    80200096:	00000097          	auipc	ra,0x0
    8020009a:	7be080e7          	jalr	1982(ra) # 80200854 <_Z6printfPKcz>
}
    8020009e:	60a2                	ld	ra,8(sp)
    802000a0:	6402                	ld	s0,0(sp)
    802000a2:	0141                	addi	sp,sp,16
    802000a4:	8082                	ret

00000000802000a6 <__cxa_pure_virtual>:
extern "C" void _init();
extern "C" void __cxa_pure_virtual() { LOG_DEBUG("error"); }
    802000a6:	1141                	addi	sp,sp,-16
    802000a8:	e406                	sd	ra,8(sp)
    802000aa:	e022                	sd	s0,0(sp)
    802000ac:	0800                	addi	s0,sp,16
      type = "TRACE";
      break;
    default:
      type = "UNKWN";
  }
  printf("%s [%s:%d:%s] - ", type, file, line, func);
    802000ae:	0000a717          	auipc	a4,0xa
    802000b2:	0a270713          	addi	a4,a4,162 # 8020a150 <rodata_start+0x150>
    802000b6:	02c00693          	li	a3,44
    802000ba:	0000a617          	auipc	a2,0xa
    802000be:	0ae60613          	addi	a2,a2,174 # 8020a168 <rodata_start+0x168>
    802000c2:	0000a597          	auipc	a1,0xa
    802000c6:	0b658593          	addi	a1,a1,182 # 8020a178 <rodata_start+0x178>
    802000ca:	0000a517          	auipc	a0,0xa
    802000ce:	0b650513          	addi	a0,a0,182 # 8020a180 <rodata_start+0x180>
    802000d2:	00000097          	auipc	ra,0x0
    802000d6:	782080e7          	jalr	1922(ra) # 80200854 <_Z6printfPKcz>
    802000da:	0000a517          	auipc	a0,0xa
    802000de:	61650513          	addi	a0,a0,1558 # 8020a6f0 <_ZL6digits+0x3e8>
    802000e2:	00000097          	auipc	ra,0x0
    802000e6:	772080e7          	jalr	1906(ra) # 80200854 <_Z6printfPKcz>
    802000ea:	0000a517          	auipc	a0,0xa
    802000ee:	fb650513          	addi	a0,a0,-74 # 8020a0a0 <rodata_start+0xa0>
    802000f2:	00000097          	auipc	ra,0x0
    802000f6:	762080e7          	jalr	1890(ra) # 80200854 <_Z6printfPKcz>
    802000fa:	60a2                	ld	ra,8(sp)
    802000fc:	6402                	ld	s0,0(sp)
    802000fe:	0141                	addi	sp,sp,16
    80200100:	8082                	ret

0000000080200102 <main>:

extern "C" void main(unsigned long hartid, unsigned long dtb_pa) {
    80200102:	1101                	addi	sp,sp,-32
    80200104:	ec06                	sd	ra,24(sp)
    80200106:	e822                	sd	s0,16(sp)
    80200108:	1000                	addi	s0,sp,32
static inline void inithartid(unsigned long hartid) { asm volatile("mv tp, %0" : : "r"(hartid & 0x1)); }
    8020010a:	00157713          	andi	a4,a0,1
    8020010e:	823a                	mv	tp,a4
  inithartid(hartid);  // 将hartid保存在tp寄存器中
  if (hartid == 0) {
    80200110:	c121                	beqz	a0,80200150 <main+0x4e>

static inline uint64_t
r_sstatus()
{
  uint64_t x;
  asm volatile("csrr %0, sstatus" : "=r" (x) );
    80200112:	100027f3          	csrr	a5,sstatus

// disable device interrupts
static inline void
intr_off()
{
  w_sstatus(r_sstatus() & ~SSTATUS_SIE);
    80200116:	9bf5                	andi	a5,a5,-3
  asm volatile("csrw sstatus, %0" : : "r" (x));
    80200118:	10079073          	csrw	sstatus,a5
    __sync_synchronize();
    started = 1;
  } else {
    intr_off();
    // hart 1
    while (started == 0)
    8020011c:	00023717          	auipc	a4,0x23
    80200120:	82470713          	addi	a4,a4,-2012 # 80222940 <_ZL7started>
    80200124:	431c                	lw	a5,0(a4)
    80200126:	2781                	sext.w	a5,a5
    80200128:	dff5                	beqz	a5,80200124 <main+0x22>
      ;
    __sync_synchronize();
    8020012a:	0ff0000f          	fence
    initHartVm();     //  启用分页
    8020012e:	00007097          	auipc	ra,0x7
    80200132:	c04080e7          	jalr	-1020(ra) # 80206d32 <_Z10initHartVmv>
    trapinithart();   // 初始化trap
    80200136:	00001097          	auipc	ra,0x1
    8020013a:	e66080e7          	jalr	-410(ra) # 80200f9c <_Z12trapinithartv>
    plic.initHart();  // ask PLIC for device interrupts
    8020013e:	00023517          	auipc	a0,0x23
    80200142:	80a50513          	addi	a0,a0,-2038 # 80222948 <plic>
    80200146:	00001097          	auipc	ra,0x1
    8020014a:	488080e7          	jalr	1160(ra) # 802015ce <_ZN4Plic8initHartEv>
    // printf("hart %d finish init\n", r_tp());
    while(1){};
    8020014e:	a001                	j	8020014e <main+0x4c>
    console.init();  // 初始化控制台
    80200150:	00014517          	auipc	a0,0x14
    80200154:	eb050513          	addi	a0,a0,-336 # 80214000 <console>
    80200158:	00007097          	auipc	ra,0x7
    8020015c:	8dc080e7          	jalr	-1828(ra) # 80206a34 <_ZN7Console4initEv>
    printfinit();
    80200160:	00001097          	auipc	ra,0x1
    80200164:	9a8080e7          	jalr	-1624(ra) # 80200b08 <_Z10printfinitv>
    print_logo();
    80200168:	00000097          	auipc	ra,0x0
    8020016c:	eae080e7          	jalr	-338(ra) # 80200016 <_Z10print_logov>
    memAllocator.init();  // 初始化内存
    80200170:	00014517          	auipc	a0,0x14
    80200174:	f3050513          	addi	a0,a0,-208 # 802140a0 <memAllocator>
    80200178:	00007097          	auipc	ra,0x7
    8020017c:	4de080e7          	jalr	1246(ra) # 80207656 <_ZN12MemAllocator4initEv>
    initKernelVm();       // 初始化内核虚拟内存
    80200180:	00007097          	auipc	ra,0x7
    80200184:	da8080e7          	jalr	-600(ra) # 80206f28 <_Z12initKernelVmv>
    initHartVm();         // 启用分页
    80200188:	00007097          	auipc	ra,0x7
    8020018c:	baa080e7          	jalr	-1110(ra) # 80206d32 <_Z10initHartVmv>
    timer.init();
    80200190:	00014517          	auipc	a0,0x14
    80200194:	f3050513          	addi	a0,a0,-208 # 802140c0 <timer>
    80200198:	00001097          	auipc	ra,0x1
    8020019c:	5b6080e7          	jalr	1462(ra) # 8020174e <_ZN5Timer4initEv>
    trapinithart();  // 初始化trap
    802001a0:	00001097          	auipc	ra,0x1
    802001a4:	dfc080e7          	jalr	-516(ra) # 80200f9c <_Z12trapinithartv>
    syscall_init();  // 初始化系统调用
    802001a8:	00002097          	auipc	ra,0x2
    802001ac:	692080e7          	jalr	1682(ra) # 8020283a <_Z12syscall_initv>
    plic.init();     // 初始化plic
    802001b0:	00022517          	auipc	a0,0x22
    802001b4:	79850513          	addi	a0,a0,1944 # 80222948 <plic>
    802001b8:	00001097          	auipc	ra,0x1
    802001bc:	3fe080e7          	jalr	1022(ra) # 802015b6 <_ZN4Plic4initEv>
    plic.initHart();
    802001c0:	00022517          	auipc	a0,0x22
    802001c4:	78850513          	addi	a0,a0,1928 # 80222948 <plic>
    802001c8:	00001097          	auipc	ra,0x1
    802001cc:	406080e7          	jalr	1030(ra) # 802015ce <_ZN4Plic8initHartEv>
    disk_init();
    802001d0:	00006097          	auipc	ra,0x6
    802001d4:	b30080e7          	jalr	-1232(ra) # 80205d00 <_Z9disk_initv>
    bufferLayer.init();
    802001d8:	00014517          	auipc	a0,0x14
    802001dc:	f1050513          	addi	a0,a0,-240 # 802140e8 <bufferLayer>
    802001e0:	00003097          	auipc	ra,0x3
    802001e4:	314080e7          	jalr	788(ra) # 802034f4 <_ZN11BufferLayer4initEv>
    initTaskTable();
    802001e8:	00001097          	auipc	ra,0x1
    802001ec:	5da080e7          	jalr	1498(ra) # 802017c2 <_Z13initTaskTablev>
    initFirstTask();
    802001f0:	00001097          	auipc	ra,0x1
    802001f4:	79c080e7          	jalr	1948(ra) # 8020198c <_Z13initFirstTaskv>
      unsigned long mask = 1 << i;
    802001f8:	4789                	li	a5,2
    802001fa:	fef43423          	sd	a5,-24(s0)
	SBI_CALL_0(SBI_CLEAR_IPI);
}

static inline void sbi_send_ipi(const unsigned long *hart_mask)
{
	SBI_CALL_1(SBI_SEND_IPI, hart_mask);
    802001fe:	fe840513          	addi	a0,s0,-24
    80200202:	4581                	li	a1,0
    80200204:	4601                	li	a2,0
    80200206:	4681                	li	a3,0
    80200208:	4891                	li	a7,4
    8020020a:	00000073          	ecall
    __sync_synchronize();
    8020020e:	0ff0000f          	fence
    started = 1;
    80200212:	4785                	li	a5,1
    80200214:	00022717          	auipc	a4,0x22
    80200218:	72f72623          	sw	a5,1836(a4) # 80222940 <_ZL7started>
// this core's hartid (core number), the index into cpus[].
static inline uint64_t
r_tp()
{
  uint64_t x;
  asm volatile("mv %0, tp" : "=r" (x) );
    8020021c:	8592                	mv	a1,tp
  }
  printf("hart %d finish init\n", r_tp());
    8020021e:	0000a517          	auipc	a0,0xa
    80200222:	f7a50513          	addi	a0,a0,-134 # 8020a198 <rodata_start+0x198>
    80200226:	00000097          	auipc	ra,0x0
    8020022a:	62e080e7          	jalr	1582(ra) # 80200854 <_Z6printfPKcz>
  
  scheduler();
    8020022e:	00002097          	auipc	ra,0x2
    80200232:	b2c080e7          	jalr	-1236(ra) # 80201d5a <_Z9schedulerv>
}
    80200236:	60e2                	ld	ra,24(sp)
    80200238:	6442                	ld	s0,16(sp)
    8020023a:	6105                	addi	sp,sp,32
    8020023c:	8082                	ret

000000008020023e <_GLOBAL__sub_I_console>:
    8020023e:	1101                	addi	sp,sp,-32
    80200240:	ec06                	sd	ra,24(sp)
    80200242:	e822                	sd	s0,16(sp)
    80200244:	e426                	sd	s1,8(sp)
    80200246:	e04a                	sd	s2,0(sp)
    80200248:	1000                	addi	s0,sp,32
Console console;
    8020024a:	00014517          	auipc	a0,0x14
    8020024e:	db650513          	addi	a0,a0,-586 # 80214000 <console>
    80200252:	00007097          	auipc	ra,0x7
    80200256:	814080e7          	jalr	-2028(ra) # 80206a66 <_ZN7ConsoleC1Ev>
Timer timer(1000000);
    8020025a:	000f45b7          	lui	a1,0xf4
    8020025e:	24058593          	addi	a1,a1,576 # f4240 <_entry-0x8010bdc0>
    80200262:	00014517          	auipc	a0,0x14
    80200266:	e5e50513          	addi	a0,a0,-418 # 802140c0 <timer>
    8020026a:	00001097          	auipc	ra,0x1
    8020026e:	494080e7          	jalr	1172(ra) # 802016fe <_ZN5TimerC1Ej>

struct Node {
  struct Node *next;
};

class MemAllocator {
    80200272:	00014517          	auipc	a0,0x14
    80200276:	e2e50513          	addi	a0,a0,-466 # 802140a0 <memAllocator>
    8020027a:	00001097          	auipc	ra,0x1
    8020027e:	b4a080e7          	jalr	-1206(ra) # 80200dc4 <_ZN8SpinLockC1Ev>
  SleepLock sleeplock;
  uint_t refcnt;
  uchar_t data[BSIZE];
};

class BufferLayer {
    80200282:	00014497          	auipc	s1,0x14
    80200286:	e8648493          	addi	s1,s1,-378 # 80214108 <bufferLayer+0x20>
    8020028a:	00022917          	auipc	s2,0x22
    8020028e:	5be90913          	addi	s2,s2,1470 # 80222848 <cpus+0x8>
#define SLEEP_LOCK_HPP
#include "os/SpinLock.hpp"
#include "types.hpp"
#include "StartOS.hpp"

class SleepLock {
    80200292:	8526                	mv	a0,s1
    80200294:	00001097          	auipc	ra,0x1
    80200298:	b30080e7          	jalr	-1232(ra) # 80200dc4 <_ZN8SpinLockC1Ev>
    8020029c:	25048493          	addi	s1,s1,592
    802002a0:	ff2499e3          	bne	s1,s2,80200292 <_GLOBAL__sub_I_console+0x54>
    802002a4:	00022517          	auipc	a0,0x22
    802002a8:	58450513          	addi	a0,a0,1412 # 80222828 <bufferLayer+0xe740>
    802002ac:	00001097          	auipc	ra,0x1
    802002b0:	b18080e7          	jalr	-1256(ra) # 80200dc4 <_ZN8SpinLockC1Ev>
}
    802002b4:	60e2                	ld	ra,24(sp)
    802002b6:	6442                	ld	s0,16(sp)
    802002b8:	64a2                	ld	s1,8(sp)
    802002ba:	6902                	ld	s2,0(sp)
    802002bc:	6105                	addi	sp,sp,32
    802002be:	8082                	ret

00000000802002c0 <_Znwm>:
#include "memory/MemAllocator.hpp"
#include "common/logger.h"

extern MemAllocator memAllocator;

void* operator new(uint64_t size){
    802002c0:	1101                	addi	sp,sp,-32
    802002c2:	ec06                	sd	ra,24(sp)
    802002c4:	e822                	sd	s0,16(sp)
    802002c6:	1000                	addi	s0,sp,32
    802002c8:	fea43423          	sd	a0,-24(s0)
    return memAllocator.alloc();
    802002cc:	00014517          	auipc	a0,0x14
    802002d0:	dd450513          	addi	a0,a0,-556 # 802140a0 <memAllocator>
    802002d4:	00007097          	auipc	ra,0x7
    802002d8:	266080e7          	jalr	614(ra) # 8020753a <_ZN12MemAllocator5allocEv>
    802002dc:	87aa                	mv	a5,a0
}
    802002de:	853e                	mv	a0,a5
    802002e0:	60e2                	ld	ra,24(sp)
    802002e2:	6442                	ld	s0,16(sp)
    802002e4:	6105                	addi	sp,sp,32
    802002e6:	8082                	ret

00000000802002e8 <_ZdlPv>:

void operator delete(void* p){
    802002e8:	7179                	addi	sp,sp,-48
    802002ea:	f406                	sd	ra,40(sp)
    802002ec:	f022                	sd	s0,32(sp)
    802002ee:	1800                	addi	s0,sp,48
    802002f0:	fca43c23          	sd	a0,-40(s0)
    LOG_ERROR("not support delete");
    802002f4:	0000a797          	auipc	a5,0xa
    802002f8:	f0478793          	addi	a5,a5,-252 # 8020a1f8 <rodata_start+0x1f8>
    802002fc:	fef43423          	sd	a5,-24(s0)
    80200300:	0000a797          	auipc	a5,0xa
    80200304:	ef878793          	addi	a5,a5,-264 # 8020a1f8 <rodata_start+0x1f8>
    80200308:	1f400693          	li	a3,500
    8020030c:	0000a617          	auipc	a2,0xa
    80200310:	efc60613          	addi	a2,a2,-260 # 8020a208 <rodata_start+0x208>
    80200314:	45cd                	li	a1,19
    80200316:	853e                	mv	a0,a5
    80200318:	00000097          	auipc	ra,0x0
    8020031c:	2be080e7          	jalr	702(ra) # 802005d6 <_Z15OutputLogHeaderPKciS0_i>
    80200320:	0000a517          	auipc	a0,0xa
    80200324:	ef850513          	addi	a0,a0,-264 # 8020a218 <rodata_start+0x218>
    80200328:	00000097          	auipc	ra,0x0
    8020032c:	52c080e7          	jalr	1324(ra) # 80200854 <_Z6printfPKcz>
    80200330:	0000a517          	auipc	a0,0xa
    80200334:	f0050513          	addi	a0,a0,-256 # 8020a230 <rodata_start+0x230>
    80200338:	00000097          	auipc	ra,0x0
    8020033c:	51c080e7          	jalr	1308(ra) # 80200854 <_Z6printfPKcz>
}
    80200340:	0001                	nop
    80200342:	70a2                	ld	ra,40(sp)
    80200344:	7402                	ld	s0,32(sp)
    80200346:	6145                	addi	sp,sp,48
    80200348:	8082                	ret

000000008020034a <_Znam>:

void* operator new[](uint64_t size){
    8020034a:	7179                	addi	sp,sp,-48
    8020034c:	f406                	sd	ra,40(sp)
    8020034e:	f022                	sd	s0,32(sp)
    80200350:	1800                	addi	s0,sp,48
    80200352:	fca43c23          	sd	a0,-40(s0)
    LOG_ERROR("not support new[]");
    80200356:	0000a797          	auipc	a5,0xa
    8020035a:	ea278793          	addi	a5,a5,-350 # 8020a1f8 <rodata_start+0x1f8>
    8020035e:	fef43423          	sd	a5,-24(s0)
    80200362:	0000a797          	auipc	a5,0xa
    80200366:	e9678793          	addi	a5,a5,-362 # 8020a1f8 <rodata_start+0x1f8>
    8020036a:	1f400693          	li	a3,500
    8020036e:	0000a617          	auipc	a2,0xa
    80200372:	eca60613          	addi	a2,a2,-310 # 8020a238 <rodata_start+0x238>
    80200376:	45dd                	li	a1,23
    80200378:	853e                	mv	a0,a5
    8020037a:	00000097          	auipc	ra,0x0
    8020037e:	25c080e7          	jalr	604(ra) # 802005d6 <_Z15OutputLogHeaderPKciS0_i>
    80200382:	0000a517          	auipc	a0,0xa
    80200386:	ec650513          	addi	a0,a0,-314 # 8020a248 <rodata_start+0x248>
    8020038a:	00000097          	auipc	ra,0x0
    8020038e:	4ca080e7          	jalr	1226(ra) # 80200854 <_Z6printfPKcz>
    80200392:	0000a517          	auipc	a0,0xa
    80200396:	e9e50513          	addi	a0,a0,-354 # 8020a230 <rodata_start+0x230>
    8020039a:	00000097          	auipc	ra,0x0
    8020039e:	4ba080e7          	jalr	1210(ra) # 80200854 <_Z6printfPKcz>

    return NULL;
    802003a2:	4781                	li	a5,0
}
    802003a4:	853e                	mv	a0,a5
    802003a6:	70a2                	ld	ra,40(sp)
    802003a8:	7402                	ld	s0,32(sp)
    802003aa:	6145                	addi	sp,sp,48
    802003ac:	8082                	ret

00000000802003ae <_ZdaPv>:

void operator delete[](void* p){
    802003ae:	7179                	addi	sp,sp,-48
    802003b0:	f406                	sd	ra,40(sp)
    802003b2:	f022                	sd	s0,32(sp)
    802003b4:	1800                	addi	s0,sp,48
    802003b6:	fca43c23          	sd	a0,-40(s0)
    LOG_ERROR("not support delete[]");
    802003ba:	0000a797          	auipc	a5,0xa
    802003be:	e3e78793          	addi	a5,a5,-450 # 8020a1f8 <rodata_start+0x1f8>
    802003c2:	fef43423          	sd	a5,-24(s0)
    802003c6:	0000a797          	auipc	a5,0xa
    802003ca:	e3278793          	addi	a5,a5,-462 # 8020a1f8 <rodata_start+0x1f8>
    802003ce:	1f400693          	li	a3,500
    802003d2:	0000a617          	auipc	a2,0xa
    802003d6:	e8e60613          	addi	a2,a2,-370 # 8020a260 <rodata_start+0x260>
    802003da:	45f5                	li	a1,29
    802003dc:	853e                	mv	a0,a5
    802003de:	00000097          	auipc	ra,0x0
    802003e2:	1f8080e7          	jalr	504(ra) # 802005d6 <_Z15OutputLogHeaderPKciS0_i>
    802003e6:	0000a517          	auipc	a0,0xa
    802003ea:	e9250513          	addi	a0,a0,-366 # 8020a278 <rodata_start+0x278>
    802003ee:	00000097          	auipc	ra,0x0
    802003f2:	466080e7          	jalr	1126(ra) # 80200854 <_Z6printfPKcz>
    802003f6:	0000a517          	auipc	a0,0xa
    802003fa:	e3a50513          	addi	a0,a0,-454 # 8020a230 <rodata_start+0x230>
    802003fe:	00000097          	auipc	ra,0x0
    80200402:	456080e7          	jalr	1110(ra) # 80200854 <_Z6printfPKcz>

}
    80200406:	0001                	nop
    80200408:	70a2                	ld	ra,40(sp)
    8020040a:	7402                	ld	s0,32(sp)
    8020040c:	6145                	addi	sp,sp,48
    8020040e:	8082                	ret

0000000080200410 <__cxa_atexit>:
extern "C" {

atexit_func_entry_t __atexit_funcs[ATEXIT_MAX_FUNCS];
uarch_t __atexit_func_count = 0;

int __cxa_atexit(void (*f)(void *), void *objptr, void *dso){
    80200410:	7179                	addi	sp,sp,-48
    80200412:	f422                	sd	s0,40(sp)
    80200414:	1800                	addi	s0,sp,48
    80200416:	fea43423          	sd	a0,-24(s0)
    8020041a:	feb43023          	sd	a1,-32(s0)
    8020041e:	fcc43c23          	sd	a2,-40(s0)
    if (__atexit_func_count >= ATEXIT_MAX_FUNCS) {
    80200422:	00023797          	auipc	a5,0x23
    80200426:	82e78793          	addi	a5,a5,-2002 # 80222c50 <__atexit_func_count>
    8020042a:	439c                	lw	a5,0(a5)
    8020042c:	873e                	mv	a4,a5
    8020042e:	47fd                	li	a5,31
    80200430:	00e7d463          	bge	a5,a4,80200438 <__cxa_atexit+0x28>
        return -1;
    80200434:	57fd                	li	a5,-1
    80200436:	a051                	j	802004ba <__cxa_atexit+0xaa>
    }

    __atexit_funcs[__atexit_func_count].destructor_func = f;
    80200438:	00023797          	auipc	a5,0x23
    8020043c:	81878793          	addi	a5,a5,-2024 # 80222c50 <__atexit_func_count>
    80200440:	4398                	lw	a4,0(a5)
    80200442:	00022697          	auipc	a3,0x22
    80200446:	50e68693          	addi	a3,a3,1294 # 80222950 <__atexit_funcs>
    8020044a:	87ba                	mv	a5,a4
    8020044c:	0786                	slli	a5,a5,0x1
    8020044e:	97ba                	add	a5,a5,a4
    80200450:	078e                	slli	a5,a5,0x3
    80200452:	97b6                	add	a5,a5,a3
    80200454:	fe843703          	ld	a4,-24(s0)
    80200458:	e398                	sd	a4,0(a5)
    __atexit_funcs[__atexit_func_count].obj_ptr = objptr;
    8020045a:	00022797          	auipc	a5,0x22
    8020045e:	7f678793          	addi	a5,a5,2038 # 80222c50 <__atexit_func_count>
    80200462:	4398                	lw	a4,0(a5)
    80200464:	00022697          	auipc	a3,0x22
    80200468:	4ec68693          	addi	a3,a3,1260 # 80222950 <__atexit_funcs>
    8020046c:	87ba                	mv	a5,a4
    8020046e:	0786                	slli	a5,a5,0x1
    80200470:	97ba                	add	a5,a5,a4
    80200472:	078e                	slli	a5,a5,0x3
    80200474:	97b6                	add	a5,a5,a3
    80200476:	fe043703          	ld	a4,-32(s0)
    8020047a:	e798                	sd	a4,8(a5)
    __atexit_funcs[__atexit_func_count].dso_handle = dso;
    8020047c:	00022797          	auipc	a5,0x22
    80200480:	7d478793          	addi	a5,a5,2004 # 80222c50 <__atexit_func_count>
    80200484:	4398                	lw	a4,0(a5)
    80200486:	00022697          	auipc	a3,0x22
    8020048a:	4ca68693          	addi	a3,a3,1226 # 80222950 <__atexit_funcs>
    8020048e:	87ba                	mv	a5,a4
    80200490:	0786                	slli	a5,a5,0x1
    80200492:	97ba                	add	a5,a5,a4
    80200494:	078e                	slli	a5,a5,0x3
    80200496:	97b6                	add	a5,a5,a3
    80200498:	fd843703          	ld	a4,-40(s0)
    8020049c:	eb98                	sd	a4,16(a5)
    __atexit_func_count++;
    8020049e:	00022797          	auipc	a5,0x22
    802004a2:	7b278793          	addi	a5,a5,1970 # 80222c50 <__atexit_func_count>
    802004a6:	439c                	lw	a5,0(a5)
    802004a8:	2785                	addiw	a5,a5,1
    802004aa:	0007871b          	sext.w	a4,a5
    802004ae:	00022797          	auipc	a5,0x22
    802004b2:	7a278793          	addi	a5,a5,1954 # 80222c50 <__atexit_func_count>
    802004b6:	c398                	sw	a4,0(a5)

    return 0; /*I would prefer if functions returned 1 on success, but the ABI says...*/
    802004b8:	4781                	li	a5,0
}
    802004ba:	853e                	mv	a0,a5
    802004bc:	7422                	ld	s0,40(sp)
    802004be:	6145                	addi	sp,sp,48
    802004c0:	8082                	ret

00000000802004c2 <__cxa_finalize>:

void __cxa_finalize(void *f){
    802004c2:	7179                	addi	sp,sp,-48
    802004c4:	f406                	sd	ra,40(sp)
    802004c6:	f022                	sd	s0,32(sp)
    802004c8:	1800                	addi	s0,sp,48
    802004ca:	fca43c23          	sd	a0,-40(s0)
    uarch_t i = __atexit_func_count;
    802004ce:	00022797          	auipc	a5,0x22
    802004d2:	78278793          	addi	a5,a5,1922 # 80222c50 <__atexit_func_count>
    802004d6:	439c                	lw	a5,0(a5)
    802004d8:	fef42623          	sw	a5,-20(s0)
    if (!f){
    802004dc:	fd843783          	ld	a5,-40(s0)
    802004e0:	e7a5                	bnez	a5,80200548 <__cxa_finalize+0x86>
        while (i--){
    802004e2:	fec42783          	lw	a5,-20(s0)
    802004e6:	fff7871b          	addiw	a4,a5,-1
    802004ea:	fee42623          	sw	a4,-20(s0)
    802004ee:	00f037b3          	snez	a5,a5
    802004f2:	0ff7f793          	andi	a5,a5,255
    802004f6:	cbf9                	beqz	a5,802005cc <__cxa_finalize+0x10a>
            if (__atexit_funcs[i].destructor_func){
    802004f8:	00022697          	auipc	a3,0x22
    802004fc:	45868693          	addi	a3,a3,1112 # 80222950 <__atexit_funcs>
    80200500:	fec42703          	lw	a4,-20(s0)
    80200504:	87ba                	mv	a5,a4
    80200506:	0786                	slli	a5,a5,0x1
    80200508:	97ba                	add	a5,a5,a4
    8020050a:	078e                	slli	a5,a5,0x3
    8020050c:	97b6                	add	a5,a5,a3
    8020050e:	639c                	ld	a5,0(a5)
    80200510:	dbe9                	beqz	a5,802004e2 <__cxa_finalize+0x20>
                (*__atexit_funcs[i].destructor_func)(__atexit_funcs[i].obj_ptr);
    80200512:	00022697          	auipc	a3,0x22
    80200516:	43e68693          	addi	a3,a3,1086 # 80222950 <__atexit_funcs>
    8020051a:	fec42703          	lw	a4,-20(s0)
    8020051e:	87ba                	mv	a5,a4
    80200520:	0786                	slli	a5,a5,0x1
    80200522:	97ba                	add	a5,a5,a4
    80200524:	078e                	slli	a5,a5,0x3
    80200526:	97b6                	add	a5,a5,a3
    80200528:	6390                	ld	a2,0(a5)
    8020052a:	00022697          	auipc	a3,0x22
    8020052e:	42668693          	addi	a3,a3,1062 # 80222950 <__atexit_funcs>
    80200532:	fec42703          	lw	a4,-20(s0)
    80200536:	87ba                	mv	a5,a4
    80200538:	0786                	slli	a5,a5,0x1
    8020053a:	97ba                	add	a5,a5,a4
    8020053c:	078e                	slli	a5,a5,0x3
    8020053e:	97b6                	add	a5,a5,a3
    80200540:	679c                	ld	a5,8(a5)
    80200542:	853e                	mv	a0,a5
    80200544:	9602                	jalr	a2
        while (i--){
    80200546:	bf71                	j	802004e2 <__cxa_finalize+0x20>
            }
        }
        return;
    }

    for ( ; i >= 0; --i){
    80200548:	fec42783          	lw	a5,-20(s0)
    8020054c:	2781                	sext.w	a5,a5
    8020054e:	0807c063          	bltz	a5,802005ce <__cxa_finalize+0x10c>
#pragma GCC diagnostic push
#pragma GCC diagnostic ignored "-Wpedantic"
        if (__atexit_funcs[i].destructor_func == f){
    80200552:	00022697          	auipc	a3,0x22
    80200556:	3fe68693          	addi	a3,a3,1022 # 80222950 <__atexit_funcs>
    8020055a:	fec42703          	lw	a4,-20(s0)
    8020055e:	87ba                	mv	a5,a4
    80200560:	0786                	slli	a5,a5,0x1
    80200562:	97ba                	add	a5,a5,a4
    80200564:	078e                	slli	a5,a5,0x3
    80200566:	97b6                	add	a5,a5,a3
    80200568:	639c                	ld	a5,0(a5)
    8020056a:	fd843703          	ld	a4,-40(s0)
    8020056e:	04f71963          	bne	a4,a5,802005c0 <__cxa_finalize+0xfe>
            (*__atexit_funcs[i].destructor_func)(__atexit_funcs[i].obj_ptr);
    80200572:	00022697          	auipc	a3,0x22
    80200576:	3de68693          	addi	a3,a3,990 # 80222950 <__atexit_funcs>
    8020057a:	fec42703          	lw	a4,-20(s0)
    8020057e:	87ba                	mv	a5,a4
    80200580:	0786                	slli	a5,a5,0x1
    80200582:	97ba                	add	a5,a5,a4
    80200584:	078e                	slli	a5,a5,0x3
    80200586:	97b6                	add	a5,a5,a3
    80200588:	6390                	ld	a2,0(a5)
    8020058a:	00022697          	auipc	a3,0x22
    8020058e:	3c668693          	addi	a3,a3,966 # 80222950 <__atexit_funcs>
    80200592:	fec42703          	lw	a4,-20(s0)
    80200596:	87ba                	mv	a5,a4
    80200598:	0786                	slli	a5,a5,0x1
    8020059a:	97ba                	add	a5,a5,a4
    8020059c:	078e                	slli	a5,a5,0x3
    8020059e:	97b6                	add	a5,a5,a3
    802005a0:	679c                	ld	a5,8(a5)
    802005a2:	853e                	mv	a0,a5
    802005a4:	9602                	jalr	a2
            __atexit_funcs[i].destructor_func = 0;
    802005a6:	00022697          	auipc	a3,0x22
    802005aa:	3aa68693          	addi	a3,a3,938 # 80222950 <__atexit_funcs>
    802005ae:	fec42703          	lw	a4,-20(s0)
    802005b2:	87ba                	mv	a5,a4
    802005b4:	0786                	slli	a5,a5,0x1
    802005b6:	97ba                	add	a5,a5,a4
    802005b8:	078e                	slli	a5,a5,0x3
    802005ba:	97b6                	add	a5,a5,a3
    802005bc:	0007b023          	sd	zero,0(a5)
    for ( ; i >= 0; --i){
    802005c0:	fec42783          	lw	a5,-20(s0)
    802005c4:	37fd                	addiw	a5,a5,-1
    802005c6:	fef42623          	sw	a5,-20(s0)
    802005ca:	bfbd                	j	80200548 <__cxa_finalize+0x86>
        return;
    802005cc:	0001                	nop
        }
#pragma GCC diagnostic pop
    }
}
    802005ce:	70a2                	ld	ra,40(sp)
    802005d0:	7402                	ld	s0,32(sp)
    802005d2:	6145                	addi	sp,sp,48
    802005d4:	8082                	ret

00000000802005d6 <_Z15OutputLogHeaderPKciS0_i>:

    802005d6:	7139                	addi	sp,sp,-64
    802005d8:	fc06                	sd	ra,56(sp)
    802005da:	f822                	sd	s0,48(sp)
    802005dc:	0080                	addi	s0,sp,64
    802005de:	fca43c23          	sd	a0,-40(s0)
    802005e2:	87ae                	mv	a5,a1
    802005e4:	fcc43423          	sd	a2,-56(s0)
    802005e8:	8736                	mv	a4,a3
    802005ea:	fcf42a23          	sw	a5,-44(s0)
    802005ee:	87ba                	mv	a5,a4
    802005f0:	fcf42823          	sw	a5,-48(s0)
  const char *type;
    802005f4:	fd042783          	lw	a5,-48(s0)
    802005f8:	0007871b          	sext.w	a4,a5
    802005fc:	1f400793          	li	a5,500
    80200600:	06f70b63          	beq	a4,a5,80200676 <_Z15OutputLogHeaderPKciS0_i+0xa0>
    80200604:	fd042783          	lw	a5,-48(s0)
    80200608:	0007871b          	sext.w	a4,a5
    8020060c:	1f400793          	li	a5,500
    80200610:	0ae7c663          	blt	a5,a4,802006bc <_Z15OutputLogHeaderPKciS0_i+0xe6>
    80200614:	fd042783          	lw	a5,-48(s0)
    80200618:	0007871b          	sext.w	a4,a5
    8020061c:	19000793          	li	a5,400
    80200620:	06f70263          	beq	a4,a5,80200684 <_Z15OutputLogHeaderPKciS0_i+0xae>
    80200624:	fd042783          	lw	a5,-48(s0)
    80200628:	0007871b          	sext.w	a4,a5
    8020062c:	19000793          	li	a5,400
    80200630:	08e7c663          	blt	a5,a4,802006bc <_Z15OutputLogHeaderPKciS0_i+0xe6>
    80200634:	fd042783          	lw	a5,-48(s0)
    80200638:	0007871b          	sext.w	a4,a5
    8020063c:	12c00793          	li	a5,300
    80200640:	04f70963          	beq	a4,a5,80200692 <_Z15OutputLogHeaderPKciS0_i+0xbc>
    80200644:	fd042783          	lw	a5,-48(s0)
    80200648:	0007871b          	sext.w	a4,a5
    8020064c:	12c00793          	li	a5,300
    80200650:	06e7c663          	blt	a5,a4,802006bc <_Z15OutputLogHeaderPKciS0_i+0xe6>
    80200654:	fd042783          	lw	a5,-48(s0)
    80200658:	0007871b          	sext.w	a4,a5
    8020065c:	06400793          	li	a5,100
    80200660:	04f70763          	beq	a4,a5,802006ae <_Z15OutputLogHeaderPKciS0_i+0xd8>
    80200664:	fd042783          	lw	a5,-48(s0)
    80200668:	0007871b          	sext.w	a4,a5
    8020066c:	0c800793          	li	a5,200
    80200670:	02f70863          	beq	a4,a5,802006a0 <_Z15OutputLogHeaderPKciS0_i+0xca>
    80200674:	a0a1                	j	802006bc <_Z15OutputLogHeaderPKciS0_i+0xe6>
    case LOG_LEVEL_ERROR:
    80200676:	0000a797          	auipc	a5,0xa
    8020067a:	b3a78793          	addi	a5,a5,-1222 # 8020a1b0 <rodata_start+0x1b0>
    8020067e:	fef43423          	sd	a5,-24(s0)
      type = "ERROR";
    80200682:	a099                	j	802006c8 <_Z15OutputLogHeaderPKciS0_i+0xf2>
    case LOG_LEVEL_WARN:
    80200684:	0000a797          	auipc	a5,0xa
    80200688:	b3478793          	addi	a5,a5,-1228 # 8020a1b8 <rodata_start+0x1b8>
    8020068c:	fef43423          	sd	a5,-24(s0)
      type = "WARN ";
    80200690:	a825                	j	802006c8 <_Z15OutputLogHeaderPKciS0_i+0xf2>
    case LOG_LEVEL_INFO:
    80200692:	0000a797          	auipc	a5,0xa
    80200696:	b2e78793          	addi	a5,a5,-1234 # 8020a1c0 <rodata_start+0x1c0>
    8020069a:	fef43423          	sd	a5,-24(s0)
      type = "INFO ";
    8020069e:	a02d                	j	802006c8 <_Z15OutputLogHeaderPKciS0_i+0xf2>
    case LOG_LEVEL_DEBUG:
    802006a0:	0000a797          	auipc	a5,0xa
    802006a4:	b2878793          	addi	a5,a5,-1240 # 8020a1c8 <rodata_start+0x1c8>
    802006a8:	fef43423          	sd	a5,-24(s0)
      type = "DEBUG";
    802006ac:	a831                	j	802006c8 <_Z15OutputLogHeaderPKciS0_i+0xf2>
    case LOG_LEVEL_TRACE:
    802006ae:	0000a797          	auipc	a5,0xa
    802006b2:	b2278793          	addi	a5,a5,-1246 # 8020a1d0 <rodata_start+0x1d0>
    802006b6:	fef43423          	sd	a5,-24(s0)
      type = "TRACE";
    802006ba:	a039                	j	802006c8 <_Z15OutputLogHeaderPKciS0_i+0xf2>
    default:
    802006bc:	0000a797          	auipc	a5,0xa
    802006c0:	b1c78793          	addi	a5,a5,-1252 # 8020a1d8 <rodata_start+0x1d8>
    802006c4:	fef43423          	sd	a5,-24(s0)
  }
    802006c8:	fd442783          	lw	a5,-44(s0)
    802006cc:	fc843703          	ld	a4,-56(s0)
    802006d0:	86be                	mv	a3,a5
    802006d2:	fd843603          	ld	a2,-40(s0)
    802006d6:	fe843583          	ld	a1,-24(s0)
    802006da:	0000a517          	auipc	a0,0xa
    802006de:	b0650513          	addi	a0,a0,-1274 # 8020a1e0 <rodata_start+0x1e0>
    802006e2:	00000097          	auipc	ra,0x0
    802006e6:	172080e7          	jalr	370(ra) # 80200854 <_Z6printfPKcz>
  printf("%s [%s:%d:%s] - ", type, file, line, func);
    802006ea:	0001                	nop
    802006ec:	70e2                	ld	ra,56(sp)
    802006ee:	7442                	ld	s0,48(sp)
    802006f0:	6121                	addi	sp,sp,64
    802006f2:	8082                	ret

00000000802006f4 <_ZL8printintiii>:
  bool locking;
} pr;

static char digits[] = "0123456789abcdef";

static void printint(int xx, int base, int sign) {
    802006f4:	7139                	addi	sp,sp,-64
    802006f6:	fc06                	sd	ra,56(sp)
    802006f8:	f822                	sd	s0,48(sp)
    802006fa:	f426                	sd	s1,40(sp)
    802006fc:	f04a                	sd	s2,32(sp)
    802006fe:	ec4e                	sd	s3,24(sp)
    80200700:	0080                	addi	s0,sp,64
  char buf[16];
  int i;
  uint_t x;

  if (sign && (sign = xx < 0))
    80200702:	c219                	beqz	a2,80200708 <_ZL8printintiii+0x14>
    80200704:	08054c63          	bltz	a0,8020079c <_ZL8printintiii+0xa8>
    x = -xx;
  else
    x = xx;
    80200708:	2501                	sext.w	a0,a0
    8020070a:	4881                	li	a7,0
    8020070c:	fc040693          	addi	a3,s0,-64

  i = 0;
    80200710:	4701                	li	a4,0
  do {
    buf[i++] = digits[x % base];
    80200712:	2581                	sext.w	a1,a1
    80200714:	0000a617          	auipc	a2,0xa
    80200718:	bf460613          	addi	a2,a2,-1036 # 8020a308 <_ZL6digits>
    8020071c:	883a                	mv	a6,a4
    8020071e:	2705                	addiw	a4,a4,1
    80200720:	02b577bb          	remuw	a5,a0,a1
    80200724:	1782                	slli	a5,a5,0x20
    80200726:	9381                	srli	a5,a5,0x20
    80200728:	97b2                	add	a5,a5,a2
    8020072a:	0007c783          	lbu	a5,0(a5)
    8020072e:	00f68023          	sb	a5,0(a3)
  } while ((x /= base) != 0);
    80200732:	0005079b          	sext.w	a5,a0
    80200736:	02b5553b          	divuw	a0,a0,a1
    8020073a:	0685                	addi	a3,a3,1
    8020073c:	feb7f0e3          	bgeu	a5,a1,8020071c <_ZL8printintiii+0x28>

  if (sign) buf[i++] = '-';
    80200740:	00088b63          	beqz	a7,80200756 <_ZL8printintiii+0x62>
    80200744:	fd040793          	addi	a5,s0,-48
    80200748:	973e                	add	a4,a4,a5
    8020074a:	02d00793          	li	a5,45
    8020074e:	fef70823          	sb	a5,-16(a4)
    80200752:	0028071b          	addiw	a4,a6,2

  while (--i >= 0) console.putc(buf[i]);
    80200756:	02e05c63          	blez	a4,8020078e <_ZL8printintiii+0x9a>
    8020075a:	fc040793          	addi	a5,s0,-64
    8020075e:	00e784b3          	add	s1,a5,a4
    80200762:	fff78913          	addi	s2,a5,-1
    80200766:	993a                	add	s2,s2,a4
    80200768:	377d                	addiw	a4,a4,-1
    8020076a:	1702                	slli	a4,a4,0x20
    8020076c:	9301                	srli	a4,a4,0x20
    8020076e:	40e90933          	sub	s2,s2,a4
    80200772:	00014997          	auipc	s3,0x14
    80200776:	88e98993          	addi	s3,s3,-1906 # 80214000 <console>
    8020077a:	fff4c583          	lbu	a1,-1(s1)
    8020077e:	854e                	mv	a0,s3
    80200780:	00006097          	auipc	ra,0x6
    80200784:	302080e7          	jalr	770(ra) # 80206a82 <_ZN7Console4putcEi>
    80200788:	14fd                	addi	s1,s1,-1
    8020078a:	ff2498e3          	bne	s1,s2,8020077a <_ZL8printintiii+0x86>
}
    8020078e:	70e2                	ld	ra,56(sp)
    80200790:	7442                	ld	s0,48(sp)
    80200792:	74a2                	ld	s1,40(sp)
    80200794:	7902                	ld	s2,32(sp)
    80200796:	69e2                	ld	s3,24(sp)
    80200798:	6121                	addi	sp,sp,64
    8020079a:	8082                	ret
    x = -xx;
    8020079c:	40a0053b          	negw	a0,a0
  if (sign && (sign = xx < 0))
    802007a0:	4885                	li	a7,1
    802007a2:	b7ad                	j	8020070c <_ZL8printintiii+0x18>

00000000802007a4 <_Z8printstrPKc>:
  console.putc('x');
  for (i = 0; i < (sizeof(uint64_t) * 2); i++, x <<= 4) console.putc(digits[x >> (sizeof(uint64_t) * 8 - 4)]);
}

void printstr(const char *s) {
  for (int i = 0; s[i] != 0; i++) {
    802007a4:	00054583          	lbu	a1,0(a0)
    802007a8:	cd85                	beqz	a1,802007e0 <_Z8printstrPKc+0x3c>
void printstr(const char *s) {
    802007aa:	1101                	addi	sp,sp,-32
    802007ac:	ec06                	sd	ra,24(sp)
    802007ae:	e822                	sd	s0,16(sp)
    802007b0:	e426                	sd	s1,8(sp)
    802007b2:	e04a                	sd	s2,0(sp)
    802007b4:	1000                	addi	s0,sp,32
    802007b6:	00150493          	addi	s1,a0,1
    console.putc(s[i]);
    802007ba:	00014917          	auipc	s2,0x14
    802007be:	84690913          	addi	s2,s2,-1978 # 80214000 <console>
    802007c2:	854a                	mv	a0,s2
    802007c4:	00006097          	auipc	ra,0x6
    802007c8:	2be080e7          	jalr	702(ra) # 80206a82 <_ZN7Console4putcEi>
  for (int i = 0; s[i] != 0; i++) {
    802007cc:	0485                	addi	s1,s1,1
    802007ce:	fff4c583          	lbu	a1,-1(s1)
    802007d2:	f9e5                	bnez	a1,802007c2 <_Z8printstrPKc+0x1e>
  }
}
    802007d4:	60e2                	ld	ra,24(sp)
    802007d6:	6442                	ld	s0,16(sp)
    802007d8:	64a2                	ld	s1,8(sp)
    802007da:	6902                	ld	s2,0(sp)
    802007dc:	6105                	addi	sp,sp,32
    802007de:	8082                	ret
    802007e0:	8082                	ret

00000000802007e2 <_Z5panicPKc>:
  contextdump(&cpu->context);
  // if (cpu->task != reinterpret_cast<Task *>( -1)) trapframedump(cpu->task->trapframe);
}

extern int inkerneltrap;
void panic(const char *s) {
    802007e2:	1101                	addi	sp,sp,-32
    802007e4:	ec06                	sd	ra,24(sp)
    802007e6:	e822                	sd	s0,16(sp)
    802007e8:	e426                	sd	s1,8(sp)
    802007ea:	e04a                	sd	s2,0(sp)
    802007ec:	1000                	addi	s0,sp,32
    802007ee:	84aa                	mv	s1,a0
  pr.locking = false;
    802007f0:	00022797          	auipc	a5,0x22
    802007f4:	48078023          	sb	zero,1152(a5) # 80222c70 <_ZL2pr+0x18>
  // backtrace();
  printf("error cpuid=%d task=%p\n", Cpu::cpuid(), Cpu::mycpu()->task);
    802007f8:	00000097          	auipc	ra,0x0
    802007fc:	760080e7          	jalr	1888(ra) # 80200f58 <_ZN3Cpu5cpuidEv>
    80200800:	892a                	mv	s2,a0
    80200802:	00000097          	auipc	ra,0x0
    80200806:	766080e7          	jalr	1894(ra) # 80200f68 <_ZN3Cpu5mycpuEv>
    8020080a:	6110                	ld	a2,0(a0)
    8020080c:	85ca                	mv	a1,s2
    8020080e:	0000a517          	auipc	a0,0xa
    80200812:	a8250513          	addi	a0,a0,-1406 # 8020a290 <rodata_start+0x290>
    80200816:	00000097          	auipc	ra,0x0
    8020081a:	03e080e7          	jalr	62(ra) # 80200854 <_Z6printfPKcz>
  // cpudump(0);
  // cpudump(1);
  printf("panic: ");
    8020081e:	0000a517          	auipc	a0,0xa
    80200822:	a8a50513          	addi	a0,a0,-1398 # 8020a2a8 <rodata_start+0x2a8>
    80200826:	00000097          	auipc	ra,0x0
    8020082a:	02e080e7          	jalr	46(ra) # 80200854 <_Z6printfPKcz>
  printf(s);
    8020082e:	8526                	mv	a0,s1
    80200830:	00000097          	auipc	ra,0x0
    80200834:	024080e7          	jalr	36(ra) # 80200854 <_Z6printfPKcz>
  printf("\n");
    80200838:	0000a517          	auipc	a0,0xa
    8020083c:	86850513          	addi	a0,a0,-1944 # 8020a0a0 <rodata_start+0xa0>
    80200840:	00000097          	auipc	ra,0x0
    80200844:	014080e7          	jalr	20(ra) # 80200854 <_Z6printfPKcz>
  panicked = 1;  // freeze uart output from other CPUs
    80200848:	4785                	li	a5,1
    8020084a:	00022717          	auipc	a4,0x22
    8020084e:	42f72723          	sw	a5,1070(a4) # 80222c78 <panicked>
  for (;;)
    80200852:	a001                	j	80200852 <_Z5panicPKc+0x70>

0000000080200854 <_Z6printfPKcz>:
void printf(const char *fmt, ...) {
    80200854:	7131                	addi	sp,sp,-192
    80200856:	fc86                	sd	ra,120(sp)
    80200858:	f8a2                	sd	s0,112(sp)
    8020085a:	f4a6                	sd	s1,104(sp)
    8020085c:	f0ca                	sd	s2,96(sp)
    8020085e:	ecce                	sd	s3,88(sp)
    80200860:	e8d2                	sd	s4,80(sp)
    80200862:	e4d6                	sd	s5,72(sp)
    80200864:	e0da                	sd	s6,64(sp)
    80200866:	fc5e                	sd	s7,56(sp)
    80200868:	f862                	sd	s8,48(sp)
    8020086a:	f466                	sd	s9,40(sp)
    8020086c:	f06a                	sd	s10,32(sp)
    8020086e:	ec6e                	sd	s11,24(sp)
    80200870:	0100                	addi	s0,sp,128
    80200872:	8aaa                	mv	s5,a0
    80200874:	e40c                	sd	a1,8(s0)
    80200876:	e810                	sd	a2,16(s0)
    80200878:	ec14                	sd	a3,24(s0)
    8020087a:	f018                	sd	a4,32(s0)
    8020087c:	f41c                	sd	a5,40(s0)
    8020087e:	03043823          	sd	a6,48(s0)
    80200882:	03143c23          	sd	a7,56(s0)
  locking = pr.locking;
    80200886:	00022d97          	auipc	s11,0x22
    8020088a:	3eadcd83          	lbu	s11,1002(s11) # 80222c70 <_ZL2pr+0x18>
  if (locking) pr.lock.lock();
    8020088e:	020d9e63          	bnez	s11,802008ca <_Z6printfPKcz+0x76>
  if (fmt == 0) panic("null fmt");
    80200892:	040a8563          	beqz	s5,802008dc <_Z6printfPKcz+0x88>
  va_start(ap, fmt);
    80200896:	00840793          	addi	a5,s0,8
    8020089a:	f8f43423          	sd	a5,-120(s0)
  for (i = 0; (c = fmt[i] & 0xff) != 0; i++) {
    8020089e:	000ac583          	lbu	a1,0(s5)
    802008a2:	16058e63          	beqz	a1,80200a1e <_Z6printfPKcz+0x1ca>
    802008a6:	4481                	li	s1,0
    if (c != '%') {
    802008a8:	02500b13          	li	s6,37
    switch (c) {
    802008ac:	07000b93          	li	s7,112
  console.putc('0');
    802008b0:	00013a17          	auipc	s4,0x13
    802008b4:	750a0a13          	addi	s4,s4,1872 # 80214000 <console>
  for (i = 0; i < (sizeof(uint64_t) * 2); i++, x <<= 4) console.putc(digits[x >> (sizeof(uint64_t) * 8 - 4)]);
    802008b8:	0000ac17          	auipc	s8,0xa
    802008bc:	a50c0c13          	addi	s8,s8,-1456 # 8020a308 <_ZL6digits>
    switch (c) {
    802008c0:	07300d13          	li	s10,115
    802008c4:	06400c93          	li	s9,100
    802008c8:	a835                	j	80200904 <_Z6printfPKcz+0xb0>
  if (locking) pr.lock.lock();
    802008ca:	00022517          	auipc	a0,0x22
    802008ce:	38e50513          	addi	a0,a0,910 # 80222c58 <_ZL2pr>
    802008d2:	00000097          	auipc	ra,0x0
    802008d6:	57a080e7          	jalr	1402(ra) # 80200e4c <_ZN8SpinLock4lockEv>
    802008da:	bf65                	j	80200892 <_Z6printfPKcz+0x3e>
  if (fmt == 0) panic("null fmt");
    802008dc:	0000a517          	auipc	a0,0xa
    802008e0:	9dc50513          	addi	a0,a0,-1572 # 8020a2b8 <rodata_start+0x2b8>
    802008e4:	00000097          	auipc	ra,0x0
    802008e8:	efe080e7          	jalr	-258(ra) # 802007e2 <_Z5panicPKc>
      console.putc(c);
    802008ec:	8552                	mv	a0,s4
    802008ee:	00006097          	auipc	ra,0x6
    802008f2:	194080e7          	jalr	404(ra) # 80206a82 <_ZN7Console4putcEi>
  for (i = 0; (c = fmt[i] & 0xff) != 0; i++) {
    802008f6:	2485                	addiw	s1,s1,1
    802008f8:	009a87b3          	add	a5,s5,s1
    802008fc:	0007c583          	lbu	a1,0(a5)
    80200900:	10058f63          	beqz	a1,80200a1e <_Z6printfPKcz+0x1ca>
    if (c != '%') {
    80200904:	ff6594e3          	bne	a1,s6,802008ec <_Z6printfPKcz+0x98>
    c = fmt[++i] & 0xff;
    80200908:	2485                	addiw	s1,s1,1
    8020090a:	009a87b3          	add	a5,s5,s1
    8020090e:	0007c783          	lbu	a5,0(a5)
    80200912:	0007891b          	sext.w	s2,a5
    if (c == 0) break;
    80200916:	10078463          	beqz	a5,80200a1e <_Z6printfPKcz+0x1ca>
    switch (c) {
    8020091a:	05778a63          	beq	a5,s7,8020096e <_Z6printfPKcz+0x11a>
    8020091e:	02fbf663          	bgeu	s7,a5,8020094a <_Z6printfPKcz+0xf6>
    80200922:	09a78c63          	beq	a5,s10,802009ba <_Z6printfPKcz+0x166>
    80200926:	07800713          	li	a4,120
    8020092a:	0ce79d63          	bne	a5,a4,80200a04 <_Z6printfPKcz+0x1b0>
        printint(va_arg(ap, int), 16, 1);
    8020092e:	f8843783          	ld	a5,-120(s0)
    80200932:	00878713          	addi	a4,a5,8
    80200936:	f8e43423          	sd	a4,-120(s0)
    8020093a:	4605                	li	a2,1
    8020093c:	45c1                	li	a1,16
    8020093e:	4388                	lw	a0,0(a5)
    80200940:	00000097          	auipc	ra,0x0
    80200944:	db4080e7          	jalr	-588(ra) # 802006f4 <_ZL8printintiii>
        break;
    80200948:	b77d                	j	802008f6 <_Z6printfPKcz+0xa2>
    switch (c) {
    8020094a:	0b678663          	beq	a5,s6,802009f6 <_Z6printfPKcz+0x1a2>
    8020094e:	0b979b63          	bne	a5,s9,80200a04 <_Z6printfPKcz+0x1b0>
        printint(va_arg(ap, int), 10, 1);
    80200952:	f8843783          	ld	a5,-120(s0)
    80200956:	00878713          	addi	a4,a5,8
    8020095a:	f8e43423          	sd	a4,-120(s0)
    8020095e:	4605                	li	a2,1
    80200960:	45a9                	li	a1,10
    80200962:	4388                	lw	a0,0(a5)
    80200964:	00000097          	auipc	ra,0x0
    80200968:	d90080e7          	jalr	-624(ra) # 802006f4 <_ZL8printintiii>
        break;
    8020096c:	b769                	j	802008f6 <_Z6printfPKcz+0xa2>
        printptr(va_arg(ap, uint64_t));
    8020096e:	f8843783          	ld	a5,-120(s0)
    80200972:	00878713          	addi	a4,a5,8
    80200976:	f8e43423          	sd	a4,-120(s0)
    8020097a:	0007b983          	ld	s3,0(a5)
  console.putc('0');
    8020097e:	03000593          	li	a1,48
    80200982:	8552                	mv	a0,s4
    80200984:	00006097          	auipc	ra,0x6
    80200988:	0fe080e7          	jalr	254(ra) # 80206a82 <_ZN7Console4putcEi>
  console.putc('x');
    8020098c:	07800593          	li	a1,120
    80200990:	8552                	mv	a0,s4
    80200992:	00006097          	auipc	ra,0x6
    80200996:	0f0080e7          	jalr	240(ra) # 80206a82 <_ZN7Console4putcEi>
    8020099a:	4941                	li	s2,16
  for (i = 0; i < (sizeof(uint64_t) * 2); i++, x <<= 4) console.putc(digits[x >> (sizeof(uint64_t) * 8 - 4)]);
    8020099c:	03c9d793          	srli	a5,s3,0x3c
    802009a0:	97e2                	add	a5,a5,s8
    802009a2:	0007c583          	lbu	a1,0(a5)
    802009a6:	8552                	mv	a0,s4
    802009a8:	00006097          	auipc	ra,0x6
    802009ac:	0da080e7          	jalr	218(ra) # 80206a82 <_ZN7Console4putcEi>
    802009b0:	0992                	slli	s3,s3,0x4
    802009b2:	197d                	addi	s2,s2,-1
    802009b4:	fe0914e3          	bnez	s2,8020099c <_Z6printfPKcz+0x148>
    802009b8:	bf3d                	j	802008f6 <_Z6printfPKcz+0xa2>
        if ((s = va_arg(ap, char *)) == 0) s = "(null)";
    802009ba:	f8843783          	ld	a5,-120(s0)
    802009be:	00878713          	addi	a4,a5,8
    802009c2:	f8e43423          	sd	a4,-120(s0)
    802009c6:	0007b903          	ld	s2,0(a5)
    802009ca:	00090f63          	beqz	s2,802009e8 <_Z6printfPKcz+0x194>
        for (; *s; s++) console.putc(*s);
    802009ce:	00094583          	lbu	a1,0(s2)
    802009d2:	d195                	beqz	a1,802008f6 <_Z6printfPKcz+0xa2>
    802009d4:	8552                	mv	a0,s4
    802009d6:	00006097          	auipc	ra,0x6
    802009da:	0ac080e7          	jalr	172(ra) # 80206a82 <_ZN7Console4putcEi>
    802009de:	0905                	addi	s2,s2,1
    802009e0:	00094583          	lbu	a1,0(s2)
    802009e4:	f9e5                	bnez	a1,802009d4 <_Z6printfPKcz+0x180>
    802009e6:	bf01                	j	802008f6 <_Z6printfPKcz+0xa2>
        if ((s = va_arg(ap, char *)) == 0) s = "(null)";
    802009e8:	0000a917          	auipc	s2,0xa
    802009ec:	8c890913          	addi	s2,s2,-1848 # 8020a2b0 <rodata_start+0x2b0>
        for (; *s; s++) console.putc(*s);
    802009f0:	02800593          	li	a1,40
    802009f4:	b7c5                	j	802009d4 <_Z6printfPKcz+0x180>
        console.putc('%');
    802009f6:	85da                	mv	a1,s6
    802009f8:	8552                	mv	a0,s4
    802009fa:	00006097          	auipc	ra,0x6
    802009fe:	088080e7          	jalr	136(ra) # 80206a82 <_ZN7Console4putcEi>
        break;
    80200a02:	bdd5                	j	802008f6 <_Z6printfPKcz+0xa2>
        console.putc('%');
    80200a04:	85da                	mv	a1,s6
    80200a06:	8552                	mv	a0,s4
    80200a08:	00006097          	auipc	ra,0x6
    80200a0c:	07a080e7          	jalr	122(ra) # 80206a82 <_ZN7Console4putcEi>
        console.putc(c);
    80200a10:	85ca                	mv	a1,s2
    80200a12:	8552                	mv	a0,s4
    80200a14:	00006097          	auipc	ra,0x6
    80200a18:	06e080e7          	jalr	110(ra) # 80206a82 <_ZN7Console4putcEi>
        break;
    80200a1c:	bde9                	j	802008f6 <_Z6printfPKcz+0xa2>
  if (locking) pr.lock.unlock();
    80200a1e:	020d9163          	bnez	s11,80200a40 <_Z6printfPKcz+0x1ec>
}
    80200a22:	70e6                	ld	ra,120(sp)
    80200a24:	7446                	ld	s0,112(sp)
    80200a26:	74a6                	ld	s1,104(sp)
    80200a28:	7906                	ld	s2,96(sp)
    80200a2a:	69e6                	ld	s3,88(sp)
    80200a2c:	6a46                	ld	s4,80(sp)
    80200a2e:	6aa6                	ld	s5,72(sp)
    80200a30:	6b06                	ld	s6,64(sp)
    80200a32:	7be2                	ld	s7,56(sp)
    80200a34:	7c42                	ld	s8,48(sp)
    80200a36:	7ca2                	ld	s9,40(sp)
    80200a38:	7d02                	ld	s10,32(sp)
    80200a3a:	6de2                	ld	s11,24(sp)
    80200a3c:	6129                	addi	sp,sp,192
    80200a3e:	8082                	ret
  if (locking) pr.lock.unlock();
    80200a40:	00022517          	auipc	a0,0x22
    80200a44:	21850513          	addi	a0,a0,536 # 80222c58 <_ZL2pr>
    80200a48:	00000097          	auipc	ra,0x0
    80200a4c:	480080e7          	jalr	1152(ra) # 80200ec8 <_ZN8SpinLock6unlockEv>
}
    80200a50:	bfc9                	j	80200a22 <_Z6printfPKcz+0x1ce>

0000000080200a52 <_Z9backtracev>:
void backtrace() {
    80200a52:	7179                	addi	sp,sp,-48
    80200a54:	f406                	sd	ra,40(sp)
    80200a56:	f022                	sd	s0,32(sp)
    80200a58:	ec26                	sd	s1,24(sp)
    80200a5a:	e84a                	sd	s2,16(sp)
    80200a5c:	e44e                	sd	s3,8(sp)
    80200a5e:	e052                	sd	s4,0(sp)
    80200a60:	1800                	addi	s0,sp,48

static inline uint64_t
r_fp()
{
    uint64_t x;
    asm volatile("mv %0, s0" : "=r" (x) );
    80200a62:	84a2                	mv	s1,s0
  uint64_t stack_top = PGROUNDUP(s0);
    80200a64:	6905                	lui	s2,0x1
    80200a66:	197d                	addi	s2,s2,-1
    80200a68:	9926                	add	s2,s2,s1
    80200a6a:	79fd                	lui	s3,0xfffff
    80200a6c:	01397933          	and	s2,s2,s3
  uint64_t stack_bottom = PGROUNDDOWN(s0);
    80200a70:	0134f9b3          	and	s3,s1,s3
  printf("backtrace:\n");
    80200a74:	0000a517          	auipc	a0,0xa
    80200a78:	85450513          	addi	a0,a0,-1964 # 8020a2c8 <rodata_start+0x2c8>
    80200a7c:	00000097          	auipc	ra,0x0
    80200a80:	dd8080e7          	jalr	-552(ra) # 80200854 <_Z6printfPKcz>
  while (fp != stack_top && fp != stack_bottom) {
    80200a84:	02990563          	beq	s2,s1,80200aae <_Z9backtracev+0x5c>
    80200a88:	02998363          	beq	s3,s1,80200aae <_Z9backtracev+0x5c>
    printf("%p\n", *(uint64_t *)(fp - 8));
    80200a8c:	0000aa17          	auipc	s4,0xa
    80200a90:	85ca0a13          	addi	s4,s4,-1956 # 8020a2e8 <rodata_start+0x2e8>
    80200a94:	ff84b583          	ld	a1,-8(s1)
    80200a98:	8552                	mv	a0,s4
    80200a9a:	00000097          	auipc	ra,0x0
    80200a9e:	dba080e7          	jalr	-582(ra) # 80200854 <_Z6printfPKcz>
    fp = *(uint64_t *)(fp - 16);
    80200aa2:	ff04b483          	ld	s1,-16(s1)
  while (fp != stack_top && fp != stack_bottom) {
    80200aa6:	00990463          	beq	s2,s1,80200aae <_Z9backtracev+0x5c>
    80200aaa:	fe9995e3          	bne	s3,s1,80200a94 <_Z9backtracev+0x42>
}
    80200aae:	70a2                	ld	ra,40(sp)
    80200ab0:	7402                	ld	s0,32(sp)
    80200ab2:	64e2                	ld	s1,24(sp)
    80200ab4:	6942                	ld	s2,16(sp)
    80200ab6:	69a2                	ld	s3,8(sp)
    80200ab8:	6a02                	ld	s4,0(sp)
    80200aba:	6145                	addi	sp,sp,48
    80200abc:	8082                	ret

0000000080200abe <_Z7cpudumpi>:
void cpudump(int cpuid) {
    80200abe:	1101                	addi	sp,sp,-32
    80200ac0:	ec06                	sd	ra,24(sp)
    80200ac2:	e822                	sd	s0,16(sp)
    80200ac4:	e426                	sd	s1,8(sp)
    80200ac6:	1000                	addi	s0,sp,32
    80200ac8:	85aa                	mv	a1,a0
  Cpu *cpu = cpus + cpuid;
    80200aca:	00751493          	slli	s1,a0,0x7
    80200ace:	00022797          	auipc	a5,0x22
    80200ad2:	d7278793          	addi	a5,a5,-654 # 80222840 <cpus>
    80200ad6:	94be                	add	s1,s1,a5
  printf("cpu id=%d, task=%p\n", cpuid, cpu->task);
    80200ad8:	6090                	ld	a2,0(s1)
    80200ada:	00009517          	auipc	a0,0x9
    80200ade:	7fe50513          	addi	a0,a0,2046 # 8020a2d8 <rodata_start+0x2d8>
    80200ae2:	00000097          	auipc	ra,0x0
    80200ae6:	d72080e7          	jalr	-654(ra) # 80200854 <_Z6printfPKcz>
static void contextdump(struct context *ctx) { printf("ra=%p sp=%p\n", ctx->ra, ctx->sp); }
    80200aea:	6890                	ld	a2,16(s1)
    80200aec:	648c                	ld	a1,8(s1)
    80200aee:	0000a517          	auipc	a0,0xa
    80200af2:	80250513          	addi	a0,a0,-2046 # 8020a2f0 <rodata_start+0x2f0>
    80200af6:	00000097          	auipc	ra,0x0
    80200afa:	d5e080e7          	jalr	-674(ra) # 80200854 <_Z6printfPKcz>
}
    80200afe:	60e2                	ld	ra,24(sp)
    80200b00:	6442                	ld	s0,16(sp)
    80200b02:	64a2                	ld	s1,8(sp)
    80200b04:	6105                	addi	sp,sp,32
    80200b06:	8082                	ret

0000000080200b08 <_Z10printfinitv>:
    ;
}

void printfinit(void) {
    80200b08:	1101                	addi	sp,sp,-32
    80200b0a:	ec06                	sd	ra,24(sp)
    80200b0c:	e822                	sd	s0,16(sp)
    80200b0e:	e426                	sd	s1,8(sp)
    80200b10:	1000                	addi	s0,sp,32
  pr.lock.init("pr");
    80200b12:	00022497          	auipc	s1,0x22
    80200b16:	14648493          	addi	s1,s1,326 # 80222c58 <_ZL2pr>
    80200b1a:	00009597          	auipc	a1,0x9
    80200b1e:	7e658593          	addi	a1,a1,2022 # 8020a300 <rodata_start+0x300>
    80200b22:	8526                	mv	a0,s1
    80200b24:	00000097          	auipc	ra,0x0
    80200b28:	2d2080e7          	jalr	722(ra) # 80200df6 <_ZN8SpinLock4initEPKc>
  pr.locking = true;
    80200b2c:	4785                	li	a5,1
    80200b2e:	00f48c23          	sb	a5,24(s1)
}
    80200b32:	60e2                	ld	ra,24(sp)
    80200b34:	6442                	ld	s0,16(sp)
    80200b36:	64a2                	ld	s1,8(sp)
    80200b38:	6105                	addi	sp,sp,32
    80200b3a:	8082                	ret

0000000080200b3c <_GLOBAL__sub_I_panicked>:
    80200b3c:	1141                	addi	sp,sp,-16
    80200b3e:	e406                	sd	ra,8(sp)
    80200b40:	e022                	sd	s0,0(sp)
    80200b42:	0800                	addi	s0,sp,16
static struct {
    80200b44:	00022517          	auipc	a0,0x22
    80200b48:	11450513          	addi	a0,a0,276 # 80222c58 <_ZL2pr>
    80200b4c:	00000097          	auipc	ra,0x0
    80200b50:	278080e7          	jalr	632(ra) # 80200dc4 <_ZN8SpinLockC1Ev>
}
    80200b54:	60a2                	ld	ra,8(sp)
    80200b56:	6402                	ld	s0,0(sp)
    80200b58:	0141                	addi	sp,sp,16
    80200b5a:	8082                	ret

0000000080200b5c <_Z6memsetPvij>:
#include "types.hpp"
#include "StartOS.hpp"

void *memset(void *dst, int c, uint_t n) {
    80200b5c:	1141                	addi	sp,sp,-16
    80200b5e:	e422                	sd	s0,8(sp)
    80200b60:	0800                	addi	s0,sp,16
  char *cdst = (char *)dst;
  size_t i;
  for (i = 0; i < n; i++) {
    80200b62:	1602                	slli	a2,a2,0x20
    80200b64:	9201                	srli	a2,a2,0x20
    80200b66:	ca01                	beqz	a2,80200b76 <_Z6memsetPvij+0x1a>
    80200b68:	87aa                	mv	a5,a0
    80200b6a:	962a                	add	a2,a2,a0
    cdst[i] = c;
    80200b6c:	00b78023          	sb	a1,0(a5)
  for (i = 0; i < n; i++) {
    80200b70:	0785                	addi	a5,a5,1
    80200b72:	fec79de3          	bne	a5,a2,80200b6c <_Z6memsetPvij+0x10>
  }
  return dst;
}
    80200b76:	6422                	ld	s0,8(sp)
    80200b78:	0141                	addi	sp,sp,16
    80200b7a:	8082                	ret

0000000080200b7c <_Z6memcmpPKvS0_j>:

int memcmp(const void *v1, const void *v2, uint_t n) {
    80200b7c:	1141                	addi	sp,sp,-16
    80200b7e:	e422                	sd	s0,8(sp)
    80200b80:	0800                	addi	s0,sp,16
  const uchar_t *s1, *s2;

  s1 = static_cast<const uchar_t *>(v1);
  s2 = static_cast<const uchar_t *>(v2);
  while (n-- > 0) {
    80200b82:	ca05                	beqz	a2,80200bb2 <_Z6memcmpPKvS0_j+0x36>
    80200b84:	fff6069b          	addiw	a3,a2,-1
    80200b88:	1682                	slli	a3,a3,0x20
    80200b8a:	9281                	srli	a3,a3,0x20
    80200b8c:	0685                	addi	a3,a3,1
    80200b8e:	96aa                	add	a3,a3,a0
    if (*s1 != *s2) return *s1 - *s2;
    80200b90:	00054783          	lbu	a5,0(a0)
    80200b94:	0005c703          	lbu	a4,0(a1)
    80200b98:	00e79863          	bne	a5,a4,80200ba8 <_Z6memcmpPKvS0_j+0x2c>
    s1++, s2++;
    80200b9c:	0505                	addi	a0,a0,1
    80200b9e:	0585                	addi	a1,a1,1
  while (n-- > 0) {
    80200ba0:	fed518e3          	bne	a0,a3,80200b90 <_Z6memcmpPKvS0_j+0x14>
  }

  return 0;
    80200ba4:	4501                	li	a0,0
    80200ba6:	a019                	j	80200bac <_Z6memcmpPKvS0_j+0x30>
    if (*s1 != *s2) return *s1 - *s2;
    80200ba8:	40e7853b          	subw	a0,a5,a4
}
    80200bac:	6422                	ld	s0,8(sp)
    80200bae:	0141                	addi	sp,sp,16
    80200bb0:	8082                	ret
  return 0;
    80200bb2:	4501                	li	a0,0
    80200bb4:	bfe5                	j	80200bac <_Z6memcmpPKvS0_j+0x30>

0000000080200bb6 <_Z7memmovePvPKvj>:

void *memmove(void *dst, const void *src, uint_t n) {
    80200bb6:	1141                	addi	sp,sp,-16
    80200bb8:	e422                	sd	s0,8(sp)
    80200bba:	0800                	addi	s0,sp,16
  const char *s;
  char *d;

  s = static_cast<const char *>(src);
  d = static_cast<char *>(dst);
  if (s < d && s + n > d) {
    80200bbc:	02a5e563          	bltu	a1,a0,80200be6 <_Z7memmovePvPKvj+0x30>
    s += n;
    d += n;
    while (n-- > 0) *--d = *--s;
  } else
    while (n-- > 0) *d++ = *s++;
    80200bc0:	fff6069b          	addiw	a3,a2,-1
    80200bc4:	ce11                	beqz	a2,80200be0 <_Z7memmovePvPKvj+0x2a>
    80200bc6:	1682                	slli	a3,a3,0x20
    80200bc8:	9281                	srli	a3,a3,0x20
    80200bca:	0685                	addi	a3,a3,1
    80200bcc:	96ae                	add	a3,a3,a1
    80200bce:	87aa                	mv	a5,a0
    80200bd0:	0585                	addi	a1,a1,1
    80200bd2:	0785                	addi	a5,a5,1
    80200bd4:	fff5c703          	lbu	a4,-1(a1)
    80200bd8:	fee78fa3          	sb	a4,-1(a5)
    80200bdc:	feb69ae3          	bne	a3,a1,80200bd0 <_Z7memmovePvPKvj+0x1a>

  return dst;
}
    80200be0:	6422                	ld	s0,8(sp)
    80200be2:	0141                	addi	sp,sp,16
    80200be4:	8082                	ret
  if (s < d && s + n > d) {
    80200be6:	02061713          	slli	a4,a2,0x20
    80200bea:	9301                	srli	a4,a4,0x20
    80200bec:	00e587b3          	add	a5,a1,a4
    80200bf0:	fcf578e3          	bgeu	a0,a5,80200bc0 <_Z7memmovePvPKvj+0xa>
    d += n;
    80200bf4:	972a                	add	a4,a4,a0
    while (n-- > 0) *--d = *--s;
    80200bf6:	fff6069b          	addiw	a3,a2,-1
    80200bfa:	d27d                	beqz	a2,80200be0 <_Z7memmovePvPKvj+0x2a>
    80200bfc:	02069613          	slli	a2,a3,0x20
    80200c00:	9201                	srli	a2,a2,0x20
    80200c02:	fff64613          	not	a2,a2
    80200c06:	963e                	add	a2,a2,a5
    80200c08:	17fd                	addi	a5,a5,-1
    80200c0a:	177d                	addi	a4,a4,-1
    80200c0c:	0007c683          	lbu	a3,0(a5)
    80200c10:	00d70023          	sb	a3,0(a4)
    80200c14:	fec79ae3          	bne	a5,a2,80200c08 <_Z7memmovePvPKvj+0x52>
    80200c18:	b7e1                	j	80200be0 <_Z7memmovePvPKvj+0x2a>

0000000080200c1a <_Z6memcpyPvPKvj>:

// memcpy exists to placate GCC.  Use memmove.
void *memcpy(void *dst, const void *src, uint_t n) { return memmove(dst, src, n); }
    80200c1a:	1141                	addi	sp,sp,-16
    80200c1c:	e406                	sd	ra,8(sp)
    80200c1e:	e022                	sd	s0,0(sp)
    80200c20:	0800                	addi	s0,sp,16
    80200c22:	00000097          	auipc	ra,0x0
    80200c26:	f94080e7          	jalr	-108(ra) # 80200bb6 <_Z7memmovePvPKvj>
    80200c2a:	60a2                	ld	ra,8(sp)
    80200c2c:	6402                	ld	s0,0(sp)
    80200c2e:	0141                	addi	sp,sp,16
    80200c30:	8082                	ret

0000000080200c32 <_Z7strncmpPKcS0_j>:

int strncmp(const char *p, const char *q, uint_t n) {
    80200c32:	1141                	addi	sp,sp,-16
    80200c34:	e422                	sd	s0,8(sp)
    80200c36:	0800                	addi	s0,sp,16
  while (n > 0 && *p && *p == *q) n--, p++, q++;
    80200c38:	c61d                	beqz	a2,80200c66 <_Z7strncmpPKcS0_j+0x34>
    80200c3a:	00054783          	lbu	a5,0(a0)
    80200c3e:	cb99                	beqz	a5,80200c54 <_Z7strncmpPKcS0_j+0x22>
    80200c40:	0005c703          	lbu	a4,0(a1)
    80200c44:	00f71863          	bne	a4,a5,80200c54 <_Z7strncmpPKcS0_j+0x22>
    80200c48:	367d                	addiw	a2,a2,-1
    80200c4a:	0505                	addi	a0,a0,1
    80200c4c:	0585                	addi	a1,a1,1
    80200c4e:	f675                	bnez	a2,80200c3a <_Z7strncmpPKcS0_j+0x8>
  if (n == 0) return 0;
    80200c50:	4501                	li	a0,0
    80200c52:	a039                	j	80200c60 <_Z7strncmpPKcS0_j+0x2e>
    80200c54:	ca19                	beqz	a2,80200c6a <_Z7strncmpPKcS0_j+0x38>
  return (uchar_t)*p - (uchar_t)*q;
    80200c56:	00054503          	lbu	a0,0(a0)
    80200c5a:	0005c783          	lbu	a5,0(a1)
    80200c5e:	9d1d                	subw	a0,a0,a5
}
    80200c60:	6422                	ld	s0,8(sp)
    80200c62:	0141                	addi	sp,sp,16
    80200c64:	8082                	ret
  if (n == 0) return 0;
    80200c66:	4501                	li	a0,0
    80200c68:	bfe5                	j	80200c60 <_Z7strncmpPKcS0_j+0x2e>
    80200c6a:	4501                	li	a0,0
    80200c6c:	bfd5                	j	80200c60 <_Z7strncmpPKcS0_j+0x2e>

0000000080200c6e <_Z11strncasecmpPKcS0_m>:
  return c;
}


int strncasecmp(const char *s1, const char *s2, size_t n)
{
    80200c6e:	1141                	addi	sp,sp,-16
    80200c70:	e422                	sd	s0,8(sp)
    80200c72:	0800                	addi	s0,sp,16
  const unsigned char *p1 = (const unsigned char *)s1;
  const unsigned char *p2 = (const unsigned char *)s2;
  int result;

  if (p1 == p2 || n == 0)
    80200c74:	04b50e63          	beq	a0,a1,80200cd0 <_Z11strncasecmpPKcS0_m+0x62>
    80200c78:	882a                	mv	a6,a0
    return 0;
    80200c7a:	4501                	li	a0,0
  if (p1 == p2 || n == 0)
    80200c7c:	ca39                	beqz	a2,80200cd2 <_Z11strncasecmpPKcS0_m+0x64>
    80200c7e:	00c58333          	add	t1,a1,a2
  if (c >= 'A' && c <= 'Z')
    80200c82:	48e5                	li	a7,25
    80200c84:	a831                	j	80200ca0 <_Z11strncasecmpPKcS0_m+0x32>
    return c + 32;
    80200c86:	0206879b          	addiw	a5,a3,32
    80200c8a:	0ff7f793          	andi	a5,a5,255
    80200c8e:	a015                	j	80200cb2 <_Z11strncasecmpPKcS0_m+0x44>

  while ((result = toLowCase(*p1) - toLowCase(*p2++)) == 0)
    80200c90:	40e7853b          	subw	a0,a5,a4
    80200c94:	02e79f63          	bne	a5,a4,80200cd2 <_Z11strncasecmpPKcS0_m+0x64>
    if (*p1++ == '\0' || --n == 0)
    80200c98:	0805                	addi	a6,a6,1
    80200c9a:	ce85                	beqz	a3,80200cd2 <_Z11strncasecmpPKcS0_m+0x64>
    80200c9c:	02b30b63          	beq	t1,a1,80200cd2 <_Z11strncasecmpPKcS0_m+0x64>
  while ((result = toLowCase(*p1) - toLowCase(*p2++)) == 0)
    80200ca0:	00084683          	lbu	a3,0(a6)
  if (c >= 'A' && c <= 'Z')
    80200ca4:	fbf6871b          	addiw	a4,a3,-65
    80200ca8:	0ff77713          	andi	a4,a4,255
  return c;
    80200cac:	87b6                	mv	a5,a3
  if (c >= 'A' && c <= 'Z')
    80200cae:	fce8fce3          	bgeu	a7,a4,80200c86 <_Z11strncasecmpPKcS0_m+0x18>
  while ((result = toLowCase(*p1) - toLowCase(*p2++)) == 0)
    80200cb2:	2781                	sext.w	a5,a5
    80200cb4:	0585                	addi	a1,a1,1
    80200cb6:	fff5c703          	lbu	a4,-1(a1)
  if (c >= 'A' && c <= 'Z')
    80200cba:	fbf7061b          	addiw	a2,a4,-65
    80200cbe:	0ff67613          	andi	a2,a2,255
    80200cc2:	fcc8e7e3          	bltu	a7,a2,80200c90 <_Z11strncasecmpPKcS0_m+0x22>
    return c + 32;
    80200cc6:	0207071b          	addiw	a4,a4,32
    80200cca:	0ff77713          	andi	a4,a4,255
    80200cce:	b7c9                	j	80200c90 <_Z11strncasecmpPKcS0_m+0x22>
    return 0;
    80200cd0:	4501                	li	a0,0
      break;
  return result;
}
    80200cd2:	6422                	ld	s0,8(sp)
    80200cd4:	0141                	addi	sp,sp,16
    80200cd6:	8082                	ret

0000000080200cd8 <_Z7strncpyPcPKci>:

char *strncpy(char *s, const char *t, int n) {
    80200cd8:	1141                	addi	sp,sp,-16
    80200cda:	e422                	sd	s0,8(sp)
    80200cdc:	0800                	addi	s0,sp,16
    80200cde:	872a                	mv	a4,a0
    80200ce0:	a801                	j	80200cf0 <_Z7strncpyPcPKci+0x18>
  char *os;

  os = s;
  while (n-- > 0 && (*s++ = *t++) != 0)
    80200ce2:	0705                	addi	a4,a4,1
    80200ce4:	0005c783          	lbu	a5,0(a1)
    80200ce8:	fef70fa3          	sb	a5,-1(a4)
    80200cec:	0585                	addi	a1,a1,1
    80200cee:	c789                	beqz	a5,80200cf8 <_Z7strncpyPcPKci+0x20>
    80200cf0:	8832                	mv	a6,a2
    80200cf2:	367d                	addiw	a2,a2,-1
    80200cf4:	ff0047e3          	bgtz	a6,80200ce2 <_Z7strncpyPcPKci+0xa>
    ;
  while (n-- > 0) *s++ = 0;
    80200cf8:	00c05d63          	blez	a2,80200d12 <_Z7strncpyPcPKci+0x3a>
    80200cfc:	86ba                	mv	a3,a4
    80200cfe:	0685                	addi	a3,a3,1
    80200d00:	fe068fa3          	sb	zero,-1(a3)
    80200d04:	fff6c793          	not	a5,a3
    80200d08:	9fb9                	addw	a5,a5,a4
    80200d0a:	010787bb          	addw	a5,a5,a6
    80200d0e:	fef048e3          	bgtz	a5,80200cfe <_Z7strncpyPcPKci+0x26>
  return os;
}
    80200d12:	6422                	ld	s0,8(sp)
    80200d14:	0141                	addi	sp,sp,16
    80200d16:	8082                	ret

0000000080200d18 <_Z10safestrcpyPcPKci>:

// Like strncpy but guaranteed to NUL-terminate.
char *safestrcpy(char *s, const char *t, int n) {
    80200d18:	1141                	addi	sp,sp,-16
    80200d1a:	e422                	sd	s0,8(sp)
    80200d1c:	0800                	addi	s0,sp,16
  char *os;

  os = s;
  if (n <= 0) return os;
    80200d1e:	02c05463          	blez	a2,80200d46 <_Z10safestrcpyPcPKci+0x2e>
    80200d22:	fff6069b          	addiw	a3,a2,-1
    80200d26:	1682                	slli	a3,a3,0x20
    80200d28:	9281                	srli	a3,a3,0x20
    80200d2a:	96ae                	add	a3,a3,a1
    80200d2c:	87aa                	mv	a5,a0
    80200d2e:	a801                	j	80200d3e <_Z10safestrcpyPcPKci+0x26>
  while (--n > 0 && (*s++ = *t++) != 0)
    80200d30:	0585                	addi	a1,a1,1
    80200d32:	0785                	addi	a5,a5,1
    80200d34:	fff5c703          	lbu	a4,-1(a1)
    80200d38:	fee78fa3          	sb	a4,-1(a5)
    80200d3c:	c319                	beqz	a4,80200d42 <_Z10safestrcpyPcPKci+0x2a>
    80200d3e:	fed599e3          	bne	a1,a3,80200d30 <_Z10safestrcpyPcPKci+0x18>
    ;
  *s = 0;
    80200d42:	00078023          	sb	zero,0(a5)
  return os;
}
    80200d46:	6422                	ld	s0,8(sp)
    80200d48:	0141                	addi	sp,sp,16
    80200d4a:	8082                	ret

0000000080200d4c <_Z6strlenPKc>:

int strlen(const char *s) {
    80200d4c:	1141                	addi	sp,sp,-16
    80200d4e:	e422                	sd	s0,8(sp)
    80200d50:	0800                	addi	s0,sp,16
  int n;

  for (n = 0; s[n]; n++)
    80200d52:	00054783          	lbu	a5,0(a0)
    80200d56:	cf91                	beqz	a5,80200d72 <_Z6strlenPKc+0x26>
    80200d58:	0505                	addi	a0,a0,1
    80200d5a:	87aa                	mv	a5,a0
    80200d5c:	4685                	li	a3,1
    80200d5e:	9e89                	subw	a3,a3,a0
    80200d60:	00f6853b          	addw	a0,a3,a5
    80200d64:	0785                	addi	a5,a5,1
    80200d66:	fff7c703          	lbu	a4,-1(a5)
    80200d6a:	fb7d                	bnez	a4,80200d60 <_Z6strlenPKc+0x14>
    ;
  return n;
}
    80200d6c:	6422                	ld	s0,8(sp)
    80200d6e:	0141                	addi	sp,sp,16
    80200d70:	8082                	ret
  for (n = 0; s[n]; n++)
    80200d72:	4501                	li	a0,0
    80200d74:	bfe5                	j	80200d6c <_Z6strlenPKc+0x20>

0000000080200d76 <_Z6strchrPKcc>:

char *strchr(const char *s, char c) {
    80200d76:	1141                	addi	sp,sp,-16
    80200d78:	e422                	sd	s0,8(sp)
    80200d7a:	0800                	addi	s0,sp,16
  for (; *s; s++)
    80200d7c:	00054783          	lbu	a5,0(a0)
    80200d80:	cb99                	beqz	a5,80200d96 <_Z6strchrPKcc+0x20>
    if (*s == c) return (char *)s;
    80200d82:	00f58763          	beq	a1,a5,80200d90 <_Z6strchrPKcc+0x1a>
  for (; *s; s++)
    80200d86:	0505                	addi	a0,a0,1
    80200d88:	00054783          	lbu	a5,0(a0)
    80200d8c:	fbfd                	bnez	a5,80200d82 <_Z6strchrPKcc+0xc>
  return 0;
    80200d8e:	4501                	li	a0,0
}
    80200d90:	6422                	ld	s0,8(sp)
    80200d92:	0141                	addi	sp,sp,16
    80200d94:	8082                	ret
  return 0;
    80200d96:	4501                	li	a0,0
    80200d98:	bfe5                	j	80200d90 <_Z6strchrPKcc+0x1a>

0000000080200d9a <_Z7strrchrPKcc>:

char *strrchr(const char *s, char c) {
    80200d9a:	1141                	addi	sp,sp,-16
    80200d9c:	e422                	sd	s0,8(sp)
    80200d9e:	0800                	addi	s0,sp,16
  char *ans = 0;
  for (; *s; s++)
    80200da0:	00054703          	lbu	a4,0(a0)
    80200da4:	cf01                	beqz	a4,80200dbc <_Z7strrchrPKcc+0x22>
    80200da6:	87aa                	mv	a5,a0
  char *ans = 0;
    80200da8:	4501                	li	a0,0
    80200daa:	a029                	j	80200db4 <_Z7strrchrPKcc+0x1a>
  for (; *s; s++)
    80200dac:	0785                	addi	a5,a5,1
    80200dae:	0007c703          	lbu	a4,0(a5)
    80200db2:	c711                	beqz	a4,80200dbe <_Z7strrchrPKcc+0x24>
    if (*s == c) ans = (char *)s;
    80200db4:	fee59ce3          	bne	a1,a4,80200dac <_Z7strrchrPKcc+0x12>
    80200db8:	853e                	mv	a0,a5
    80200dba:	bfcd                	j	80200dac <_Z7strrchrPKcc+0x12>
  char *ans = 0;
    80200dbc:	4501                	li	a0,0
  return ans;
    80200dbe:	6422                	ld	s0,8(sp)
    80200dc0:	0141                	addi	sp,sp,16
    80200dc2:	8082                	ret

0000000080200dc4 <_ZN8SpinLockC1Ev>:
// #include "os/SpinLock.hpp"
#include "common/printk.hpp"
#include "os/Cpu.hpp"
// #include "os/SpinLock.hpp"
#include "os/Intr.hpp"
SpinLock::SpinLock() {}
    80200dc4:	1141                	addi	sp,sp,-16
    80200dc6:	e422                	sd	s0,8(sp)
    80200dc8:	0800                	addi	s0,sp,16
    80200dca:	6422                	ld	s0,8(sp)
    80200dcc:	0141                	addi	sp,sp,16
    80200dce:	8082                	ret

0000000080200dd0 <_ZN8SpinLockC1EPKc>:
SpinLock::SpinLock(const char *name) {
    80200dd0:	1101                	addi	sp,sp,-32
    80200dd2:	ec06                	sd	ra,24(sp)
    80200dd4:	e822                	sd	s0,16(sp)
    80200dd6:	e426                	sd	s1,8(sp)
    80200dd8:	1000                	addi	s0,sp,32
    80200dda:	84aa                	mv	s1,a0
  this->name = name;
    80200ddc:	e50c                	sd	a1,8(a0)
  locked = false;
    80200dde:	00050023          	sb	zero,0(a0)
  this->cpuid = Cpu::cpuid();
    80200de2:	00000097          	auipc	ra,0x0
    80200de6:	176080e7          	jalr	374(ra) # 80200f58 <_ZN3Cpu5cpuidEv>
    80200dea:	c888                	sw	a0,16(s1)
}
    80200dec:	60e2                	ld	ra,24(sp)
    80200dee:	6442                	ld	s0,16(sp)
    80200df0:	64a2                	ld	s1,8(sp)
    80200df2:	6105                	addi	sp,sp,32
    80200df4:	8082                	ret

0000000080200df6 <_ZN8SpinLock4initEPKc>:

void SpinLock::init(const char *name) {
    80200df6:	1101                	addi	sp,sp,-32
    80200df8:	ec06                	sd	ra,24(sp)
    80200dfa:	e822                	sd	s0,16(sp)
    80200dfc:	e426                	sd	s1,8(sp)
    80200dfe:	1000                	addi	s0,sp,32
    80200e00:	84aa                	mv	s1,a0
  this->name = name;
    80200e02:	e50c                	sd	a1,8(a0)
  locked = false;
    80200e04:	00050023          	sb	zero,0(a0)
  this->cpuid = Cpu::cpuid();
    80200e08:	00000097          	auipc	ra,0x0
    80200e0c:	150080e7          	jalr	336(ra) # 80200f58 <_ZN3Cpu5cpuidEv>
    80200e10:	c888                	sw	a0,16(s1)
}
    80200e12:	60e2                	ld	ra,24(sp)
    80200e14:	6442                	ld	s0,16(sp)
    80200e16:	64a2                	ld	s1,8(sp)
    80200e18:	6105                	addi	sp,sp,32
    80200e1a:	8082                	ret

0000000080200e1c <_ZN8SpinLock7holdingEv>:
  __sync_lock_release(&locked);

  Intr::pop_off();
}

bool SpinLock::holding() {
    80200e1c:	87aa                	mv	a5,a0
  int r;
  r = (this->locked && this->cpuid == Cpu::cpuid());
    80200e1e:	00054503          	lbu	a0,0(a0)
    80200e22:	e111                	bnez	a0,80200e26 <_ZN8SpinLock7holdingEv+0xa>
  return r;
}
    80200e24:	8082                	ret
bool SpinLock::holding() {
    80200e26:	1101                	addi	sp,sp,-32
    80200e28:	ec06                	sd	ra,24(sp)
    80200e2a:	e822                	sd	s0,16(sp)
    80200e2c:	e426                	sd	s1,8(sp)
    80200e2e:	1000                	addi	s0,sp,32
  r = (this->locked && this->cpuid == Cpu::cpuid());
    80200e30:	4b84                	lw	s1,16(a5)
    80200e32:	00000097          	auipc	ra,0x0
    80200e36:	126080e7          	jalr	294(ra) # 80200f58 <_ZN3Cpu5cpuidEv>
    80200e3a:	40a48533          	sub	a0,s1,a0
    80200e3e:	00153513          	seqz	a0,a0
}
    80200e42:	60e2                	ld	ra,24(sp)
    80200e44:	6442                	ld	s0,16(sp)
    80200e46:	64a2                	ld	s1,8(sp)
    80200e48:	6105                	addi	sp,sp,32
    80200e4a:	8082                	ret

0000000080200e4c <_ZN8SpinLock4lockEv>:
void SpinLock::lock() {
    80200e4c:	1101                	addi	sp,sp,-32
    80200e4e:	ec06                	sd	ra,24(sp)
    80200e50:	e822                	sd	s0,16(sp)
    80200e52:	e426                	sd	s1,8(sp)
    80200e54:	1000                	addi	s0,sp,32
    80200e56:	84aa                	mv	s1,a0
  Intr::push_off();  // 禁用中断以避免死锁。
    80200e58:	00002097          	auipc	ra,0x2
    80200e5c:	5e0080e7          	jalr	1504(ra) # 80203438 <_ZN4Intr8push_offEv>
  if (holding()) {
    80200e60:	8526                	mv	a0,s1
    80200e62:	00000097          	auipc	ra,0x0
    80200e66:	fba080e7          	jalr	-70(ra) # 80200e1c <_ZN8SpinLock7holdingEv>
    80200e6a:	ed0d                	bnez	a0,80200ea4 <_ZN8SpinLock4lockEv+0x58>
  while (__sync_lock_test_and_set(&(this->locked), 1) != 0)
    80200e6c:	ffc4f713          	andi	a4,s1,-4
    80200e70:	0034f693          	andi	a3,s1,3
    80200e74:	0036969b          	slliw	a3,a3,0x3
    80200e78:	4605                	li	a2,1
    80200e7a:	00d6163b          	sllw	a2,a2,a3
    80200e7e:	44c727af          	amoor.w.aq	a5,a2,(a4)
    80200e82:	00d7d7bb          	srlw	a5,a5,a3
    80200e86:	0ff7f793          	andi	a5,a5,255
    80200e8a:	fbf5                	bnez	a5,80200e7e <_ZN8SpinLock4lockEv+0x32>
  __sync_synchronize();
    80200e8c:	0ff0000f          	fence
  cpuid = Cpu::cpuid();
    80200e90:	00000097          	auipc	ra,0x0
    80200e94:	0c8080e7          	jalr	200(ra) # 80200f58 <_ZN3Cpu5cpuidEv>
    80200e98:	c888                	sw	a0,16(s1)
}
    80200e9a:	60e2                	ld	ra,24(sp)
    80200e9c:	6442                	ld	s0,16(sp)
    80200e9e:	64a2                	ld	s1,8(sp)
    80200ea0:	6105                	addi	sp,sp,32
    80200ea2:	8082                	ret
    printf("%s ", this->name);
    80200ea4:	648c                	ld	a1,8(s1)
    80200ea6:	00009517          	auipc	a0,0x9
    80200eaa:	47a50513          	addi	a0,a0,1146 # 8020a320 <_ZL6digits+0x18>
    80200eae:	00000097          	auipc	ra,0x0
    80200eb2:	9a6080e7          	jalr	-1626(ra) # 80200854 <_Z6printfPKcz>
    panic("re-acquire");
    80200eb6:	00009517          	auipc	a0,0x9
    80200eba:	47250513          	addi	a0,a0,1138 # 8020a328 <_ZL6digits+0x20>
    80200ebe:	00000097          	auipc	ra,0x0
    80200ec2:	924080e7          	jalr	-1756(ra) # 802007e2 <_Z5panicPKc>
    80200ec6:	b75d                	j	80200e6c <_ZN8SpinLock4lockEv+0x20>

0000000080200ec8 <_ZN8SpinLock6unlockEv>:
void SpinLock::unlock() {
    80200ec8:	1101                	addi	sp,sp,-32
    80200eca:	ec06                	sd	ra,24(sp)
    80200ecc:	e822                	sd	s0,16(sp)
    80200ece:	e426                	sd	s1,8(sp)
    80200ed0:	1000                	addi	s0,sp,32
    80200ed2:	84aa                	mv	s1,a0
  if (!holding()) {
    80200ed4:	00000097          	auipc	ra,0x0
    80200ed8:	f48080e7          	jalr	-184(ra) # 80200e1c <_ZN8SpinLock7holdingEv>
    80200edc:	c115                	beqz	a0,80200f00 <_ZN8SpinLock6unlockEv+0x38>
  this->cpuid = -1;
    80200ede:	57fd                	li	a5,-1
    80200ee0:	c89c                	sw	a5,16(s1)
  __sync_synchronize();
    80200ee2:	0ff0000f          	fence
  __sync_lock_release(&locked);
    80200ee6:	0ff0000f          	fence
    80200eea:	00048023          	sb	zero,0(s1)
  Intr::pop_off();
    80200eee:	00002097          	auipc	ra,0x2
    80200ef2:	598080e7          	jalr	1432(ra) # 80203486 <_ZN4Intr7pop_offEv>
}
    80200ef6:	60e2                	ld	ra,24(sp)
    80200ef8:	6442                	ld	s0,16(sp)
    80200efa:	64a2                	ld	s1,8(sp)
    80200efc:	6105                	addi	sp,sp,32
    80200efe:	8082                	ret
    printf("%s ",this->name);
    80200f00:	648c                	ld	a1,8(s1)
    80200f02:	00009517          	auipc	a0,0x9
    80200f06:	41e50513          	addi	a0,a0,1054 # 8020a320 <_ZL6digits+0x18>
    80200f0a:	00000097          	auipc	ra,0x0
    80200f0e:	94a080e7          	jalr	-1718(ra) # 80200854 <_Z6printfPKcz>
    panic("unlock");
    80200f12:	00009517          	auipc	a0,0x9
    80200f16:	42650513          	addi	a0,a0,1062 # 8020a338 <_ZL6digits+0x30>
    80200f1a:	00000097          	auipc	ra,0x0
    80200f1e:	8c8080e7          	jalr	-1848(ra) # 802007e2 <_Z5panicPKc>
    80200f22:	bf75                	j	80200ede <_ZN8SpinLock6unlockEv+0x16>

0000000080200f24 <_ZN3Cpu4initEv>:
#include "common/string.hpp"
#include "common/printk.hpp"

extern "C" Cpu cpus[];  // cpu数组，定义在boot/main.c

void Cpu::init() {
    80200f24:	1101                	addi	sp,sp,-32
    80200f26:	ec06                	sd	ra,24(sp)
    80200f28:	e822                	sd	s0,16(sp)
    80200f2a:	e426                	sd	s1,8(sp)
    80200f2c:	1000                	addi	s0,sp,32
    80200f2e:	84aa                	mv	s1,a0
  memset(cpus, 0, sizeof(Cpu) * NCPU);
    80200f30:	10000613          	li	a2,256
    80200f34:	4581                	li	a1,0
    80200f36:	00022517          	auipc	a0,0x22
    80200f3a:	90a50513          	addi	a0,a0,-1782 # 80222840 <cpus>
    80200f3e:	00000097          	auipc	ra,0x0
    80200f42:	c1e080e7          	jalr	-994(ra) # 80200b5c <_Z6memsetPvij>
  this->intr_enable = false;
    80200f46:	06048e23          	sb	zero,124(s1)
  this->noff = 0;
    80200f4a:	0604ac23          	sw	zero,120(s1)
}
    80200f4e:	60e2                	ld	ra,24(sp)
    80200f50:	6442                	ld	s0,16(sp)
    80200f52:	64a2                	ld	s1,8(sp)
    80200f54:	6105                	addi	sp,sp,32
    80200f56:	8082                	ret

0000000080200f58 <_ZN3Cpu5cpuidEv>:

int Cpu::cpuid() {
    80200f58:	1141                	addi	sp,sp,-16
    80200f5a:	e422                	sd	s0,8(sp)
    80200f5c:	0800                	addi	s0,sp,16
  asm volatile("mv %0, tp" : "=r" (x) );
    80200f5e:	8512                	mv	a0,tp
  int id = r_tp();
  return id;
}
    80200f60:	2501                	sext.w	a0,a0
    80200f62:	6422                	ld	s0,8(sp)
    80200f64:	0141                	addi	sp,sp,16
    80200f66:	8082                	ret

0000000080200f68 <_ZN3Cpu5mycpuEv>:

Cpu *Cpu::mycpu() {
    80200f68:	1141                	addi	sp,sp,-16
    80200f6a:	e422                	sd	s0,8(sp)
    80200f6c:	0800                	addi	s0,sp,16
    80200f6e:	8792                	mv	a5,tp
  int id = cpuid();
  Cpu *c = &cpus[id];
    80200f70:	2781                	sext.w	a5,a5
    80200f72:	079e                	slli	a5,a5,0x7
  return c;
    80200f74:	00022517          	auipc	a0,0x22
    80200f78:	8cc50513          	addi	a0,a0,-1844 # 80222840 <cpus>
    80200f7c:	953e                	add	a0,a0,a5
    80200f7e:	6422                	ld	s0,8(sp)
    80200f80:	0141                	addi	sp,sp,16
    80200f82:	8082                	ret

0000000080200f84 <_Z8trapinitv>:
extern Timer timer;

extern "C" char trampoline[], uservec[], userret[];

// 配置中断处理程序
void trapinit(void) { w_stvec((uint64_t)kernelvec); }
    80200f84:	1141                	addi	sp,sp,-16
    80200f86:	e422                	sd	s0,8(sp)
    80200f88:	0800                	addi	s0,sp,16
  asm volatile("csrw stvec, %0" : : "r" (x));
    80200f8a:	00000797          	auipc	a5,0x0
    80200f8e:	6e678793          	addi	a5,a5,1766 # 80201670 <kernelvec>
    80200f92:	10579073          	csrw	stvec,a5
    80200f96:	6422                	ld	s0,8(sp)
    80200f98:	0141                	addi	sp,sp,16
    80200f9a:	8082                	ret

0000000080200f9c <_Z12trapinithartv>:

void trapinithart(void) {
    80200f9c:	1141                	addi	sp,sp,-16
    80200f9e:	e406                	sd	ra,8(sp)
    80200fa0:	e022                	sd	s0,0(sp)
    80200fa2:	0800                	addi	s0,sp,16
    80200fa4:	00000797          	auipc	a5,0x0
    80200fa8:	6cc78793          	addi	a5,a5,1740 # 80201670 <kernelvec>
    80200fac:	10579073          	csrw	stvec,a5
  asm volatile("csrr %0, sstatus" : "=r" (x) );
    80200fb0:	100027f3          	csrr	a5,sstatus
  w_stvec((uint64_t)kernelvec);
  w_sstatus(r_sstatus() | SSTATUS_SIE);
    80200fb4:	0027e793          	ori	a5,a5,2
  asm volatile("csrw sstatus, %0" : : "r" (x));
    80200fb8:	10079073          	csrw	sstatus,a5
  asm volatile("csrr %0, sie" : "=r" (x) );
    80200fbc:	104027f3          	csrr	a5,sie
  // enable supervisor-mode timer interrupts.
  w_sie(r_sie() | SIE_SEIE | SIE_SSIE | SIE_STIE);
    80200fc0:	2227e793          	ori	a5,a5,546
  asm volatile("csrw sie, %0" : : "r" (x));
    80200fc4:	10479073          	csrw	sie,a5
  timer.setTimeout();
    80200fc8:	00013517          	auipc	a0,0x13
    80200fcc:	0f850513          	addi	a0,a0,248 # 802140c0 <timer>
    80200fd0:	00000097          	auipc	ra,0x0
    80200fd4:	758080e7          	jalr	1880(ra) # 80201728 <_ZN5Timer10setTimeoutEv>
}
    80200fd8:	60a2                	ld	ra,8(sp)
    80200fda:	6402                	ld	s0,0(sp)
    80200fdc:	0141                	addi	sp,sp,16
    80200fde:	8082                	ret

0000000080200fe0 <_Z11usertrapretv>:
  }

  usertrapret();
}

void usertrapret() {
    80200fe0:	1141                	addi	sp,sp,-16
    80200fe2:	e406                	sd	ra,8(sp)
    80200fe4:	e022                	sd	s0,0(sp)
    80200fe6:	0800                	addi	s0,sp,16
  Task *task = myTask();
    80200fe8:	00001097          	auipc	ra,0x1
    80200fec:	a24080e7          	jalr	-1500(ra) # 80201a0c <_Z6myTaskv>
  asm volatile("csrr %0, sstatus" : "=r" (x) );
    80200ff0:	100027f3          	csrr	a5,sstatus
  w_sstatus(r_sstatus() & ~SSTATUS_SIE);
    80200ff4:	9bf5                	andi	a5,a5,-3
  asm volatile("csrw sstatus, %0" : : "r" (x));
    80200ff6:	10079073          	csrw	sstatus,a5
  // 现在将trap处理程序从kerneltrap()切换为usertrap(), 因此需要
  // 禁用中断直到我们返回用户空间。
  intr_off();

  // 现在返回用户空间，设置中断处理函数为trampoline.S的uservec()
  w_stvec(TRAMPOLINE + ((uint64_t)uservec - (uint64_t)trampoline));
    80200ffa:	00007697          	auipc	a3,0x7
    80200ffe:	00668693          	addi	a3,a3,6 # 80208000 <trampoline>
    80201002:	040007b7          	lui	a5,0x4000
    80201006:	17fd                	addi	a5,a5,-1
    80201008:	07b2                	slli	a5,a5,0xc
    8020100a:	00007717          	auipc	a4,0x7
    8020100e:	ff670713          	addi	a4,a4,-10 # 80208000 <trampoline>
    80201012:	973e                	add	a4,a4,a5
    80201014:	8f15                	sub	a4,a4,a3
  asm volatile("csrw stvec, %0" : : "r" (x));
    80201016:	10571073          	csrw	stvec,a4

  // 设置trapframe, 以便下次的trap能够正常运行
  task->trapframe->kernel_satp = r_satp();             // 内核页表
    8020101a:	6138                	ld	a4,64(a0)
  asm volatile("csrr %0, satp" : "=r" (x) );
    8020101c:	18002673          	csrr	a2,satp
    80201020:	e310                	sd	a2,0(a4)
  task->trapframe->kernel_sp = task->kstack + PGSIZE;  // 进程的内核栈
    80201022:	6130                	ld	a2,64(a0)
    80201024:	6d78                	ld	a4,216(a0)
    80201026:	6585                	lui	a1,0x1
    80201028:	972e                	add	a4,a4,a1
    8020102a:	e618                	sd	a4,8(a2)
  task->trapframe->kernel_trap = (uint64_t)usertrap;
    8020102c:	6138                	ld	a4,64(a0)
    8020102e:	00000617          	auipc	a2,0x0
    80201032:	11a60613          	addi	a2,a2,282 # 80201148 <_Z8usertrapv>
    80201036:	eb10                	sd	a2,16(a4)
  task->trapframe->kernel_hartid = r_tp();  // cpu id
    80201038:	6138                	ld	a4,64(a0)
  asm volatile("mv %0, tp" : "=r" (x) );
    8020103a:	8612                	mv	a2,tp
    8020103c:	f310                	sd	a2,32(a4)
  asm volatile("csrr %0, sstatus" : "=r" (x) );
    8020103e:	10002773          	csrr	a4,sstatus

  // 设置trampoline.S中的sret返回用户空间所需要的寄存器

  // 设置S Previous Privilege(SPP)为User
  unsigned long x = r_sstatus();
  x &= ~SSTATUS_SPP;  // 为用户模式清除SPP
    80201042:	eff77713          	andi	a4,a4,-257
  x |= SSTATUS_SPIE;  // 允许用户模式下的中断
    80201046:	02076713          	ori	a4,a4,32
  asm volatile("csrw sstatus, %0" : : "r" (x));
    8020104a:	10071073          	csrw	sstatus,a4
  w_sstatus(x);

  // 设置S的Exception Program Counter(epc)为保存的pc
  w_sepc(task->trapframe->epc);
    8020104e:	6138                	ld	a4,64(a0)
  asm volatile("csrw sepc, %0" : : "r" (x));
    80201050:	6f18                	ld	a4,24(a4)
    80201052:	14171073          	csrw	sepc,a4

  // 将用户页表转换为satp寄存器需要的格式
  uint64_t satp = MAKE_SATP(task->pagetable);
    80201056:	652c                	ld	a1,72(a0)
    80201058:	81b1                	srli	a1,a1,0xc

  // 跳转到虚拟内存顶端的trampoline.S, 它会切换页表为用户页表, 恢复用户
  // 寄存器, 并通过sret切换到用户模式。

  uint64_t fn = TRAMPOLINE + ((uint64_t)userret - (uint64_t)trampoline);
    8020105a:	00007717          	auipc	a4,0x7
    8020105e:	03670713          	addi	a4,a4,54 # 80208090 <userret>
    80201062:	97ba                	add	a5,a5,a4
    80201064:	8f95                	sub	a5,a5,a3
  ((void (*)(uint64_t, uint64_t))fn)(TRAPFRAME, satp);
    80201066:	577d                	li	a4,-1
    80201068:	177e                	slli	a4,a4,0x3f
    8020106a:	8dd9                	or	a1,a1,a4
    8020106c:	02000537          	lui	a0,0x2000
    80201070:	157d                	addi	a0,a0,-1
    80201072:	0536                	slli	a0,a0,0xd
    80201074:	9782                	jalr	a5
}
    80201076:	60a2                	ld	ra,8(sp)
    80201078:	6402                	ld	s0,0(sp)
    8020107a:	0141                	addi	sp,sp,16
    8020107c:	8082                	ret

000000008020107e <_Z11device_intrv>:
// 设备中断处理程序
// 用于判断中断是否为外部和软件中断，并处理它
// 2: 时钟中断
// 1: 其他设备中断
// 0: 无法识别的中断
int device_intr() {
    8020107e:	1101                	addi	sp,sp,-32
    80201080:	ec06                	sd	ra,24(sp)
    80201082:	e822                	sd	s0,16(sp)
    80201084:	e426                	sd	s1,8(sp)
    80201086:	1000                	addi	s0,sp,32
  asm volatile("csrr %0, scause" : "=r" (x) );
    80201088:	14202773          	csrr	a4,scause
  uint64_t scause = r_scause();
#ifdef QEMU
  // handle external interrupt
  if ((0x8000000000000000L & scause) && 9 == (scause & 0xff))
    8020108c:	00074d63          	bltz	a4,802010a6 <_Z11device_intrv+0x28>
    w_sip(r_sip() & ~2);  // clear pending bit
    sbi_set_mie();
#endif

    return 1;
  } else if (0x8000000000000005L == scause) {
    80201090:	57fd                	li	a5,-1
    80201092:	17fe                	slli	a5,a5,0x3f
    80201094:	0795                	addi	a5,a5,5
    timer.handleIntr();
    return 2;
  } else {
    return 0;
    80201096:	4501                	li	a0,0
  } else if (0x8000000000000005L == scause) {
    80201098:	08f70e63          	beq	a4,a5,80201134 <_Z11device_intrv+0xb6>
  }
}
    8020109c:	60e2                	ld	ra,24(sp)
    8020109e:	6442                	ld	s0,16(sp)
    802010a0:	64a2                	ld	s1,8(sp)
    802010a2:	6105                	addi	sp,sp,32
    802010a4:	8082                	ret
  if ((0x8000000000000000L & scause) && 9 == (scause & 0xff))
    802010a6:	0ff77793          	andi	a5,a4,255
    802010aa:	46a5                	li	a3,9
    802010ac:	fed792e3          	bne	a5,a3,80201090 <_Z11device_intrv+0x12>
    int irq = plic.claim();
    802010b0:	00022517          	auipc	a0,0x22
    802010b4:	89850513          	addi	a0,a0,-1896 # 80222948 <plic>
    802010b8:	00000097          	auipc	ra,0x0
    802010bc:	558080e7          	jalr	1368(ra) # 80201610 <_ZN4Plic5claimEv>
    802010c0:	84aa                	mv	s1,a0
    if (UART_IRQ == irq) {
    802010c2:	47a9                	li	a5,10
    802010c4:	02f50163          	beq	a0,a5,802010e6 <_Z11device_intrv+0x68>
    } else if (DISK_IRQ == irq) {
    802010c8:	4785                	li	a5,1
    802010ca:	06f50063          	beq	a0,a5,8020112a <_Z11device_intrv+0xac>
    return 1;
    802010ce:	4505                	li	a0,1
    } else if (irq) {
    802010d0:	d4f1                	beqz	s1,8020109c <_Z11device_intrv+0x1e>
      printf("unexpected interrupt irq = %d\n", irq);
    802010d2:	85a6                	mv	a1,s1
    802010d4:	00009517          	auipc	a0,0x9
    802010d8:	26c50513          	addi	a0,a0,620 # 8020a340 <_ZL6digits+0x38>
    802010dc:	fffff097          	auipc	ra,0xfffff
    802010e0:	778080e7          	jalr	1912(ra) # 80200854 <_Z6printfPKcz>
    802010e4:	a829                	j	802010fe <_Z11device_intrv+0x80>
	return SBI_CALL_0(SBI_CONSOLE_GETCHAR);
    802010e6:	4501                	li	a0,0
    802010e8:	4581                	li	a1,0
    802010ea:	4601                	li	a2,0
    802010ec:	4681                	li	a3,0
    802010ee:	4889                	li	a7,2
    802010f0:	00000073          	ecall
      if (-1 != c) {
    802010f4:	0005071b          	sext.w	a4,a0
    802010f8:	57fd                	li	a5,-1
    802010fa:	00f71d63          	bne	a4,a5,80201114 <_Z11device_intrv+0x96>
      plic.complete(irq);
    802010fe:	85a6                	mv	a1,s1
    80201100:	00022517          	auipc	a0,0x22
    80201104:	84850513          	addi	a0,a0,-1976 # 80222948 <plic>
    80201108:	00000097          	auipc	ra,0x0
    8020110c:	532080e7          	jalr	1330(ra) # 8020163a <_ZN4Plic8completeEi>
    return 1;
    80201110:	4505                	li	a0,1
    80201112:	b769                	j	8020109c <_Z11device_intrv+0x1e>
        console.console_intr(c);
    80201114:	0ff57593          	andi	a1,a0,255
    80201118:	00013517          	auipc	a0,0x13
    8020111c:	ee850513          	addi	a0,a0,-280 # 80214000 <console>
    80201120:	00006097          	auipc	ra,0x6
    80201124:	b40080e7          	jalr	-1216(ra) # 80206c60 <_ZN7Console12console_intrEc>
    80201128:	bfd9                	j	802010fe <_Z11device_intrv+0x80>
      disk_intr();
    8020112a:	00005097          	auipc	ra,0x5
    8020112e:	c1e080e7          	jalr	-994(ra) # 80205d48 <_Z9disk_intrv>
    80201132:	b7f1                	j	802010fe <_Z11device_intrv+0x80>
    timer.handleIntr();
    80201134:	00013517          	auipc	a0,0x13
    80201138:	f8c50513          	addi	a0,a0,-116 # 802140c0 <timer>
    8020113c:	00000097          	auipc	ra,0x0
    80201140:	644080e7          	jalr	1604(ra) # 80201780 <_ZN5Timer10handleIntrEv>
    return 2;
    80201144:	4509                	li	a0,2
    80201146:	bf99                	j	8020109c <_Z11device_intrv+0x1e>

0000000080201148 <_Z8usertrapv>:
void usertrap(void) {
    80201148:	1101                	addi	sp,sp,-32
    8020114a:	ec06                	sd	ra,24(sp)
    8020114c:	e822                	sd	s0,16(sp)
    8020114e:	e426                	sd	s1,8(sp)
    80201150:	e04a                	sd	s2,0(sp)
    80201152:	1000                	addi	s0,sp,32
  asm volatile("csrr %0, sstatus" : "=r" (x) );
    80201154:	100027f3          	csrr	a5,sstatus
  if ((r_sstatus() & SSTATUS_SPP) != 0) panic("usertrap: not from user mode");
    80201158:	1007f793          	andi	a5,a5,256
    8020115c:	e3ad                	bnez	a5,802011be <_Z8usertrapv+0x76>
  asm volatile("csrw stvec, %0" : : "r" (x));
    8020115e:	00000797          	auipc	a5,0x0
    80201162:	51278793          	addi	a5,a5,1298 # 80201670 <kernelvec>
    80201166:	10579073          	csrw	stvec,a5
  Task *task = myTask();
    8020116a:	00001097          	auipc	ra,0x1
    8020116e:	8a2080e7          	jalr	-1886(ra) # 80201a0c <_Z6myTaskv>
    80201172:	84aa                	mv	s1,a0
  task->trapframe->epc = r_sepc();
    80201174:	613c                	ld	a5,64(a0)
  asm volatile("csrr %0, sepc" : "=r" (x) );
    80201176:	14102773          	csrr	a4,sepc
    8020117a:	ef98                	sd	a4,24(a5)
  asm volatile("csrr %0, scause" : "=r" (x) );
    8020117c:	14202773          	csrr	a4,scause
  if (r_scause() == 8) {
    80201180:	47a1                	li	a5,8
    80201182:	0af71363          	bne	a4,a5,80201228 <_Z8usertrapv+0xe0>
    if (task->killed) {
    80201186:	591c                	lw	a5,48(a0)
    80201188:	e7a1                	bnez	a5,802011d0 <_Z8usertrapv+0x88>
    task->trapframe->epc += 4;
    8020118a:	60b8                	ld	a4,64(s1)
    8020118c:	6f1c                	ld	a5,24(a4)
    8020118e:	0791                	addi	a5,a5,4
    80201190:	ef1c                	sd	a5,24(a4)
  asm volatile("csrr %0, sstatus" : "=r" (x) );
    80201192:	100027f3          	csrr	a5,sstatus
  w_sstatus(r_sstatus() | SSTATUS_SIE);
    80201196:	0027e793          	ori	a5,a5,2
  asm volatile("csrw sstatus, %0" : : "r" (x));
    8020119a:	10079073          	csrw	sstatus,a5
    syscall();
    8020119e:	00001097          	auipc	ra,0x1
    802011a2:	768080e7          	jalr	1896(ra) # 80202906 <_Z7syscallv>
  if (task->killed) exit(-1);
    802011a6:	589c                	lw	a5,48(s1)
    802011a8:	eff9                	bnez	a5,80201286 <_Z8usertrapv+0x13e>
  usertrapret();
    802011aa:	00000097          	auipc	ra,0x0
    802011ae:	e36080e7          	jalr	-458(ra) # 80200fe0 <_Z11usertrapretv>
}
    802011b2:	60e2                	ld	ra,24(sp)
    802011b4:	6442                	ld	s0,16(sp)
    802011b6:	64a2                	ld	s1,8(sp)
    802011b8:	6902                	ld	s2,0(sp)
    802011ba:	6105                	addi	sp,sp,32
    802011bc:	8082                	ret
  if ((r_sstatus() & SSTATUS_SPP) != 0) panic("usertrap: not from user mode");
    802011be:	00009517          	auipc	a0,0x9
    802011c2:	1a250513          	addi	a0,a0,418 # 8020a360 <_ZL6digits+0x58>
    802011c6:	fffff097          	auipc	ra,0xfffff
    802011ca:	61c080e7          	jalr	1564(ra) # 802007e2 <_Z5panicPKc>
    802011ce:	bf41                	j	8020115e <_Z8usertrapv+0x16>
    802011d0:	00009717          	auipc	a4,0x9
    802011d4:	1b070713          	addi	a4,a4,432 # 8020a380 <_ZL6digits+0x78>
    802011d8:	03f00693          	li	a3,63
    802011dc:	00009617          	auipc	a2,0x9
    802011e0:	1b460613          	addi	a2,a2,436 # 8020a390 <_ZL6digits+0x88>
    802011e4:	00009597          	auipc	a1,0x9
    802011e8:	f9458593          	addi	a1,a1,-108 # 8020a178 <rodata_start+0x178>
    802011ec:	00009517          	auipc	a0,0x9
    802011f0:	f9450513          	addi	a0,a0,-108 # 8020a180 <rodata_start+0x180>
    802011f4:	fffff097          	auipc	ra,0xfffff
    802011f8:	660080e7          	jalr	1632(ra) # 80200854 <_Z6printfPKcz>
      LOG_DEBUG("usertrap killed");
    802011fc:	00009517          	auipc	a0,0x9
    80201200:	1a450513          	addi	a0,a0,420 # 8020a3a0 <_ZL6digits+0x98>
    80201204:	fffff097          	auipc	ra,0xfffff
    80201208:	650080e7          	jalr	1616(ra) # 80200854 <_Z6printfPKcz>
    8020120c:	00009517          	auipc	a0,0x9
    80201210:	e9450513          	addi	a0,a0,-364 # 8020a0a0 <rodata_start+0xa0>
    80201214:	fffff097          	auipc	ra,0xfffff
    80201218:	640080e7          	jalr	1600(ra) # 80200854 <_Z6printfPKcz>
      exit(-1);
    8020121c:	557d                	li	a0,-1
    8020121e:	00001097          	auipc	ra,0x1
    80201222:	ffa080e7          	jalr	-6(ra) # 80202218 <_Z4exiti>
    80201226:	b795                	j	8020118a <_Z8usertrapv+0x42>
  } else if ((which_dev = device_intr()) != 0) {
    80201228:	00000097          	auipc	ra,0x0
    8020122c:	e56080e7          	jalr	-426(ra) # 8020107e <_Z11device_intrv>
    80201230:	892a                	mv	s2,a0
    80201232:	c501                	beqz	a0,8020123a <_Z8usertrapv+0xf2>
  if (task->killed) exit(-1);
    80201234:	589c                	lw	a5,48(s1)
    80201236:	c3a1                	beqz	a5,80201276 <_Z8usertrapv+0x12e>
    80201238:	a815                	j	8020126c <_Z8usertrapv+0x124>
  asm volatile("csrr %0, scause" : "=r" (x) );
    8020123a:	142025f3          	csrr	a1,scause
    printf("usertrap(): unexpected scause %p pid=%d\n", r_scause(), task->pid);
    8020123e:	5c90                	lw	a2,56(s1)
    80201240:	00009517          	auipc	a0,0x9
    80201244:	17050513          	addi	a0,a0,368 # 8020a3b0 <_ZL6digits+0xa8>
    80201248:	fffff097          	auipc	ra,0xfffff
    8020124c:	60c080e7          	jalr	1548(ra) # 80200854 <_Z6printfPKcz>
  asm volatile("csrr %0, sepc" : "=r" (x) );
    80201250:	141025f3          	csrr	a1,sepc
  asm volatile("csrr %0, stval" : "=r" (x) );
    80201254:	14302673          	csrr	a2,stval
    printf("            sepc=%p stval=%p\n", r_sepc(), r_stval());
    80201258:	00009517          	auipc	a0,0x9
    8020125c:	18850513          	addi	a0,a0,392 # 8020a3e0 <_ZL6digits+0xd8>
    80201260:	fffff097          	auipc	ra,0xfffff
    80201264:	5f4080e7          	jalr	1524(ra) # 80200854 <_Z6printfPKcz>
    task->killed = 1;
    80201268:	4785                	li	a5,1
    8020126a:	d89c                	sw	a5,48(s1)
  if (task->killed) exit(-1);
    8020126c:	557d                	li	a0,-1
    8020126e:	00001097          	auipc	ra,0x1
    80201272:	faa080e7          	jalr	-86(ra) # 80202218 <_Z4exiti>
  if (which_dev == 2) {
    80201276:	4789                	li	a5,2
    80201278:	f2f919e3          	bne	s2,a5,802011aa <_Z8usertrapv+0x62>
    yield();
    8020127c:	00001097          	auipc	ra,0x1
    80201280:	0f6080e7          	jalr	246(ra) # 80202372 <_Z5yieldv>
    80201284:	b71d                	j	802011aa <_Z8usertrapv+0x62>
  int which_dev = 0;
    80201286:	4901                	li	s2,0
    80201288:	b7d5                	j	8020126c <_Z8usertrapv+0x124>

000000008020128a <kerneltrap>:
extern "C" void kerneltrap() {
    8020128a:	7179                	addi	sp,sp,-48
    8020128c:	f406                	sd	ra,40(sp)
    8020128e:	f022                	sd	s0,32(sp)
    80201290:	ec26                	sd	s1,24(sp)
    80201292:	e84a                	sd	s2,16(sp)
    80201294:	e44e                	sd	s3,8(sp)
    80201296:	e052                	sd	s4,0(sp)
    80201298:	1800                	addi	s0,sp,48
  Task *task = myTask();
    8020129a:	00000097          	auipc	ra,0x0
    8020129e:	772080e7          	jalr	1906(ra) # 80201a0c <_Z6myTaskv>
    802012a2:	84aa                	mv	s1,a0
  asm volatile("csrr %0, sepc" : "=r" (x) );
    802012a4:	141029f3          	csrr	s3,sepc
  asm volatile("csrr %0, sstatus" : "=r" (x) );
    802012a8:	10002973          	csrr	s2,sstatus
  asm volatile("csrr %0, scause" : "=r" (x) );
    802012ac:	14202a73          	csrr	s4,scause
  if ((sstatus & SSTATUS_SPP) == 0) panic("kerneltrap: not from supervisor mode");
    802012b0:	10097793          	andi	a5,s2,256
    802012b4:	c79d                	beqz	a5,802012e2 <kerneltrap+0x58>
  asm volatile("csrr %0, sstatus" : "=r" (x) );
    802012b6:	100027f3          	csrr	a5,sstatus
  return (x & SSTATUS_SIE) != 0;
    802012ba:	8b89                	andi	a5,a5,2
  if (intr_get() != 0) panic("kerneltrap: interrupts enabled");
    802012bc:	ef85                	bnez	a5,802012f4 <kerneltrap+0x6a>
  which_dev = device_intr();
    802012be:	00000097          	auipc	ra,0x0
    802012c2:	dc0080e7          	jalr	-576(ra) # 8020107e <_Z11device_intrv>
  if (which_dev == 0) {  // 未知来源
    802012c6:	c121                	beqz	a0,80201306 <kerneltrap+0x7c>
  if (which_dev == 2 && task != 0 && task->state == RUNNING) {  // 时钟中断
    802012c8:	4789                	li	a5,2
    802012ca:	06f51b63          	bne	a0,a5,80201340 <kerneltrap+0xb6>
    802012ce:	c8ad                	beqz	s1,80201340 <kerneltrap+0xb6>
    802012d0:	4c98                	lw	a4,24(s1)
    802012d2:	478d                	li	a5,3
    802012d4:	06f71663          	bne	a4,a5,80201340 <kerneltrap+0xb6>
    yield();
    802012d8:	00001097          	auipc	ra,0x1
    802012dc:	09a080e7          	jalr	154(ra) # 80202372 <_Z5yieldv>
    802012e0:	a085                	j	80201340 <kerneltrap+0xb6>
  if ((sstatus & SSTATUS_SPP) == 0) panic("kerneltrap: not from supervisor mode");
    802012e2:	00009517          	auipc	a0,0x9
    802012e6:	11e50513          	addi	a0,a0,286 # 8020a400 <_ZL6digits+0xf8>
    802012ea:	fffff097          	auipc	ra,0xfffff
    802012ee:	4f8080e7          	jalr	1272(ra) # 802007e2 <_Z5panicPKc>
    802012f2:	b7d1                	j	802012b6 <kerneltrap+0x2c>
  if (intr_get() != 0) panic("kerneltrap: interrupts enabled");
    802012f4:	00009517          	auipc	a0,0x9
    802012f8:	13450513          	addi	a0,a0,308 # 8020a428 <_ZL6digits+0x120>
    802012fc:	fffff097          	auipc	ra,0xfffff
    80201300:	4e6080e7          	jalr	1254(ra) # 802007e2 <_Z5panicPKc>
    80201304:	bf6d                	j	802012be <kerneltrap+0x34>
    printf("scause %p\n", scause);
    80201306:	85d2                	mv	a1,s4
    80201308:	00009517          	auipc	a0,0x9
    8020130c:	14050513          	addi	a0,a0,320 # 8020a448 <_ZL6digits+0x140>
    80201310:	fffff097          	auipc	ra,0xfffff
    80201314:	544080e7          	jalr	1348(ra) # 80200854 <_Z6printfPKcz>
  asm volatile("csrr %0, sepc" : "=r" (x) );
    80201318:	141025f3          	csrr	a1,sepc
  asm volatile("csrr %0, stval" : "=r" (x) );
    8020131c:	14302673          	csrr	a2,stval
    printf("sepc=%p stval=%p\n", r_sepc(), r_stval());
    80201320:	00009517          	auipc	a0,0x9
    80201324:	13850513          	addi	a0,a0,312 # 8020a458 <_ZL6digits+0x150>
    80201328:	fffff097          	auipc	ra,0xfffff
    8020132c:	52c080e7          	jalr	1324(ra) # 80200854 <_Z6printfPKcz>
    panic("kerneltrap");
    80201330:	00009517          	auipc	a0,0x9
    80201334:	14050513          	addi	a0,a0,320 # 8020a470 <_ZL6digits+0x168>
    80201338:	fffff097          	auipc	ra,0xfffff
    8020133c:	4aa080e7          	jalr	1194(ra) # 802007e2 <_Z5panicPKc>
  asm volatile("csrw sepc, %0" : : "r" (x));
    80201340:	14199073          	csrw	sepc,s3
  asm volatile("csrw sstatus, %0" : : "r" (x));
    80201344:	10091073          	csrw	sstatus,s2
}
    80201348:	70a2                	ld	ra,40(sp)
    8020134a:	7402                	ld	s0,32(sp)
    8020134c:	64e2                	ld	s1,24(sp)
    8020134e:	6942                	ld	s2,16(sp)
    80201350:	69a2                	ld	s3,8(sp)
    80201352:	6a02                	ld	s4,0(sp)
    80201354:	6145                	addi	sp,sp,48
    80201356:	8082                	ret

0000000080201358 <_Z13trapframedumpP9trapframe>:
void trapframedump(struct trapframe *tf) {
    80201358:	1101                	addi	sp,sp,-32
    8020135a:	ec06                	sd	ra,24(sp)
    8020135c:	e822                	sd	s0,16(sp)
    8020135e:	e426                	sd	s1,8(sp)
    80201360:	1000                	addi	s0,sp,32
    80201362:	84aa                	mv	s1,a0
  printf("a0: %p\t", tf->a0);
    80201364:	792c                	ld	a1,112(a0)
    80201366:	00009517          	auipc	a0,0x9
    8020136a:	11a50513          	addi	a0,a0,282 # 8020a480 <_ZL6digits+0x178>
    8020136e:	fffff097          	auipc	ra,0xfffff
    80201372:	4e6080e7          	jalr	1254(ra) # 80200854 <_Z6printfPKcz>
  printf("a1: %p\t", tf->a1);
    80201376:	7cac                	ld	a1,120(s1)
    80201378:	00009517          	auipc	a0,0x9
    8020137c:	11050513          	addi	a0,a0,272 # 8020a488 <_ZL6digits+0x180>
    80201380:	fffff097          	auipc	ra,0xfffff
    80201384:	4d4080e7          	jalr	1236(ra) # 80200854 <_Z6printfPKcz>
  printf("a2: %p\t", tf->a2);
    80201388:	60cc                	ld	a1,128(s1)
    8020138a:	00009517          	auipc	a0,0x9
    8020138e:	10650513          	addi	a0,a0,262 # 8020a490 <_ZL6digits+0x188>
    80201392:	fffff097          	auipc	ra,0xfffff
    80201396:	4c2080e7          	jalr	1218(ra) # 80200854 <_Z6printfPKcz>
  printf("a3: %p\n", tf->a3);
    8020139a:	64cc                	ld	a1,136(s1)
    8020139c:	00009517          	auipc	a0,0x9
    802013a0:	0fc50513          	addi	a0,a0,252 # 8020a498 <_ZL6digits+0x190>
    802013a4:	fffff097          	auipc	ra,0xfffff
    802013a8:	4b0080e7          	jalr	1200(ra) # 80200854 <_Z6printfPKcz>
  printf("a4: %p\t", tf->a4);
    802013ac:	68cc                	ld	a1,144(s1)
    802013ae:	00009517          	auipc	a0,0x9
    802013b2:	0f250513          	addi	a0,a0,242 # 8020a4a0 <_ZL6digits+0x198>
    802013b6:	fffff097          	auipc	ra,0xfffff
    802013ba:	49e080e7          	jalr	1182(ra) # 80200854 <_Z6printfPKcz>
  printf("a5: %p\t", tf->a5);
    802013be:	6ccc                	ld	a1,152(s1)
    802013c0:	00009517          	auipc	a0,0x9
    802013c4:	0e850513          	addi	a0,a0,232 # 8020a4a8 <_ZL6digits+0x1a0>
    802013c8:	fffff097          	auipc	ra,0xfffff
    802013cc:	48c080e7          	jalr	1164(ra) # 80200854 <_Z6printfPKcz>
  printf("a6: %p\t", tf->a6);
    802013d0:	70cc                	ld	a1,160(s1)
    802013d2:	00009517          	auipc	a0,0x9
    802013d6:	0de50513          	addi	a0,a0,222 # 8020a4b0 <_ZL6digits+0x1a8>
    802013da:	fffff097          	auipc	ra,0xfffff
    802013de:	47a080e7          	jalr	1146(ra) # 80200854 <_Z6printfPKcz>
  printf("a7: %p\n", tf->a7);
    802013e2:	74cc                	ld	a1,168(s1)
    802013e4:	00009517          	auipc	a0,0x9
    802013e8:	0d450513          	addi	a0,a0,212 # 8020a4b8 <_ZL6digits+0x1b0>
    802013ec:	fffff097          	auipc	ra,0xfffff
    802013f0:	468080e7          	jalr	1128(ra) # 80200854 <_Z6printfPKcz>
  printf("t0: %p\t", tf->t0);
    802013f4:	64ac                	ld	a1,72(s1)
    802013f6:	00009517          	auipc	a0,0x9
    802013fa:	0ca50513          	addi	a0,a0,202 # 8020a4c0 <_ZL6digits+0x1b8>
    802013fe:	fffff097          	auipc	ra,0xfffff
    80201402:	456080e7          	jalr	1110(ra) # 80200854 <_Z6printfPKcz>
  printf("t1: %p\t", tf->t1);
    80201406:	68ac                	ld	a1,80(s1)
    80201408:	00009517          	auipc	a0,0x9
    8020140c:	0c050513          	addi	a0,a0,192 # 8020a4c8 <_ZL6digits+0x1c0>
    80201410:	fffff097          	auipc	ra,0xfffff
    80201414:	444080e7          	jalr	1092(ra) # 80200854 <_Z6printfPKcz>
  printf("t2: %p\t", tf->t2);
    80201418:	6cac                	ld	a1,88(s1)
    8020141a:	00009517          	auipc	a0,0x9
    8020141e:	0b650513          	addi	a0,a0,182 # 8020a4d0 <_ZL6digits+0x1c8>
    80201422:	fffff097          	auipc	ra,0xfffff
    80201426:	432080e7          	jalr	1074(ra) # 80200854 <_Z6printfPKcz>
  printf("t3: %p\n", tf->t3);
    8020142a:	1004b583          	ld	a1,256(s1)
    8020142e:	00009517          	auipc	a0,0x9
    80201432:	0aa50513          	addi	a0,a0,170 # 8020a4d8 <_ZL6digits+0x1d0>
    80201436:	fffff097          	auipc	ra,0xfffff
    8020143a:	41e080e7          	jalr	1054(ra) # 80200854 <_Z6printfPKcz>
  printf("t4: %p\t", tf->t4);
    8020143e:	1084b583          	ld	a1,264(s1)
    80201442:	00009517          	auipc	a0,0x9
    80201446:	09e50513          	addi	a0,a0,158 # 8020a4e0 <_ZL6digits+0x1d8>
    8020144a:	fffff097          	auipc	ra,0xfffff
    8020144e:	40a080e7          	jalr	1034(ra) # 80200854 <_Z6printfPKcz>
  printf("t5: %p\t", tf->t5);
    80201452:	1104b583          	ld	a1,272(s1)
    80201456:	00009517          	auipc	a0,0x9
    8020145a:	09250513          	addi	a0,a0,146 # 8020a4e8 <_ZL6digits+0x1e0>
    8020145e:	fffff097          	auipc	ra,0xfffff
    80201462:	3f6080e7          	jalr	1014(ra) # 80200854 <_Z6printfPKcz>
  printf("t6: %p\t", tf->t6);
    80201466:	1184b583          	ld	a1,280(s1)
    8020146a:	00009517          	auipc	a0,0x9
    8020146e:	08650513          	addi	a0,a0,134 # 8020a4f0 <_ZL6digits+0x1e8>
    80201472:	fffff097          	auipc	ra,0xfffff
    80201476:	3e2080e7          	jalr	994(ra) # 80200854 <_Z6printfPKcz>
  printf("s0: %p\n", tf->s0);
    8020147a:	70ac                	ld	a1,96(s1)
    8020147c:	00009517          	auipc	a0,0x9
    80201480:	07c50513          	addi	a0,a0,124 # 8020a4f8 <_ZL6digits+0x1f0>
    80201484:	fffff097          	auipc	ra,0xfffff
    80201488:	3d0080e7          	jalr	976(ra) # 80200854 <_Z6printfPKcz>
  printf("s1: %p\t", tf->s1);
    8020148c:	74ac                	ld	a1,104(s1)
    8020148e:	00009517          	auipc	a0,0x9
    80201492:	07250513          	addi	a0,a0,114 # 8020a500 <_ZL6digits+0x1f8>
    80201496:	fffff097          	auipc	ra,0xfffff
    8020149a:	3be080e7          	jalr	958(ra) # 80200854 <_Z6printfPKcz>
  printf("s2: %p\t", tf->s2);
    8020149e:	78cc                	ld	a1,176(s1)
    802014a0:	00009517          	auipc	a0,0x9
    802014a4:	06850513          	addi	a0,a0,104 # 8020a508 <_ZL6digits+0x200>
    802014a8:	fffff097          	auipc	ra,0xfffff
    802014ac:	3ac080e7          	jalr	940(ra) # 80200854 <_Z6printfPKcz>
  printf("s3: %p\t", tf->s3);
    802014b0:	7ccc                	ld	a1,184(s1)
    802014b2:	00009517          	auipc	a0,0x9
    802014b6:	05e50513          	addi	a0,a0,94 # 8020a510 <_ZL6digits+0x208>
    802014ba:	fffff097          	auipc	ra,0xfffff
    802014be:	39a080e7          	jalr	922(ra) # 80200854 <_Z6printfPKcz>
  printf("s4: %p\n", tf->s4);
    802014c2:	60ec                	ld	a1,192(s1)
    802014c4:	00009517          	auipc	a0,0x9
    802014c8:	05450513          	addi	a0,a0,84 # 8020a518 <_ZL6digits+0x210>
    802014cc:	fffff097          	auipc	ra,0xfffff
    802014d0:	388080e7          	jalr	904(ra) # 80200854 <_Z6printfPKcz>
  printf("s5: %p\t", tf->s5);
    802014d4:	64ec                	ld	a1,200(s1)
    802014d6:	00009517          	auipc	a0,0x9
    802014da:	04a50513          	addi	a0,a0,74 # 8020a520 <_ZL6digits+0x218>
    802014de:	fffff097          	auipc	ra,0xfffff
    802014e2:	376080e7          	jalr	886(ra) # 80200854 <_Z6printfPKcz>
  printf("s6: %p\t", tf->s6);
    802014e6:	68ec                	ld	a1,208(s1)
    802014e8:	00009517          	auipc	a0,0x9
    802014ec:	04050513          	addi	a0,a0,64 # 8020a528 <_ZL6digits+0x220>
    802014f0:	fffff097          	auipc	ra,0xfffff
    802014f4:	364080e7          	jalr	868(ra) # 80200854 <_Z6printfPKcz>
  printf("s7: %p\t", tf->s7);
    802014f8:	6cec                	ld	a1,216(s1)
    802014fa:	00009517          	auipc	a0,0x9
    802014fe:	03650513          	addi	a0,a0,54 # 8020a530 <_ZL6digits+0x228>
    80201502:	fffff097          	auipc	ra,0xfffff
    80201506:	352080e7          	jalr	850(ra) # 80200854 <_Z6printfPKcz>
  printf("s8: %p\n", tf->s8);
    8020150a:	70ec                	ld	a1,224(s1)
    8020150c:	00009517          	auipc	a0,0x9
    80201510:	02c50513          	addi	a0,a0,44 # 8020a538 <_ZL6digits+0x230>
    80201514:	fffff097          	auipc	ra,0xfffff
    80201518:	340080e7          	jalr	832(ra) # 80200854 <_Z6printfPKcz>
  printf("s9: %p\t", tf->s9);
    8020151c:	74ec                	ld	a1,232(s1)
    8020151e:	00009517          	auipc	a0,0x9
    80201522:	02250513          	addi	a0,a0,34 # 8020a540 <_ZL6digits+0x238>
    80201526:	fffff097          	auipc	ra,0xfffff
    8020152a:	32e080e7          	jalr	814(ra) # 80200854 <_Z6printfPKcz>
  printf("s10: %p\t", tf->s10);
    8020152e:	78ec                	ld	a1,240(s1)
    80201530:	00009517          	auipc	a0,0x9
    80201534:	01850513          	addi	a0,a0,24 # 8020a548 <_ZL6digits+0x240>
    80201538:	fffff097          	auipc	ra,0xfffff
    8020153c:	31c080e7          	jalr	796(ra) # 80200854 <_Z6printfPKcz>
  printf("s11: %p\t", tf->s11);
    80201540:	7cec                	ld	a1,248(s1)
    80201542:	00009517          	auipc	a0,0x9
    80201546:	01650513          	addi	a0,a0,22 # 8020a558 <_ZL6digits+0x250>
    8020154a:	fffff097          	auipc	ra,0xfffff
    8020154e:	30a080e7          	jalr	778(ra) # 80200854 <_Z6printfPKcz>
  printf("ra: %p\n", tf->ra);
    80201552:	748c                	ld	a1,40(s1)
    80201554:	00009517          	auipc	a0,0x9
    80201558:	01450513          	addi	a0,a0,20 # 8020a568 <_ZL6digits+0x260>
    8020155c:	fffff097          	auipc	ra,0xfffff
    80201560:	2f8080e7          	jalr	760(ra) # 80200854 <_Z6printfPKcz>
  printf("sp: %p\t", tf->sp);
    80201564:	788c                	ld	a1,48(s1)
    80201566:	00009517          	auipc	a0,0x9
    8020156a:	00a50513          	addi	a0,a0,10 # 8020a570 <_ZL6digits+0x268>
    8020156e:	fffff097          	auipc	ra,0xfffff
    80201572:	2e6080e7          	jalr	742(ra) # 80200854 <_Z6printfPKcz>
  printf("gp: %p\t", tf->gp);
    80201576:	7c8c                	ld	a1,56(s1)
    80201578:	00009517          	auipc	a0,0x9
    8020157c:	00050513          	mv	a0,a0
    80201580:	fffff097          	auipc	ra,0xfffff
    80201584:	2d4080e7          	jalr	724(ra) # 80200854 <_Z6printfPKcz>
  printf("tp: %p\t", tf->tp);
    80201588:	60ac                	ld	a1,64(s1)
    8020158a:	00009517          	auipc	a0,0x9
    8020158e:	ff650513          	addi	a0,a0,-10 # 8020a580 <_ZL6digits+0x278>
    80201592:	fffff097          	auipc	ra,0xfffff
    80201596:	2c2080e7          	jalr	706(ra) # 80200854 <_Z6printfPKcz>
  printf("epc: %p\n", tf->epc);
    8020159a:	6c8c                	ld	a1,24(s1)
    8020159c:	00009517          	auipc	a0,0x9
    802015a0:	fec50513          	addi	a0,a0,-20 # 8020a588 <_ZL6digits+0x280>
    802015a4:	fffff097          	auipc	ra,0xfffff
    802015a8:	2b0080e7          	jalr	688(ra) # 80200854 <_Z6printfPKcz>
}
    802015ac:	60e2                	ld	ra,24(sp)
    802015ae:	6442                	ld	s0,16(sp)
    802015b0:	64a2                	ld	s1,8(sp)
    802015b2:	6105                	addi	sp,sp,32
    802015b4:	8082                	ret

00000000802015b6 <_ZN4Plic4initEv>:
#include "memlayout.hpp"
#include "os/Cpu.hpp"
#include "types.hpp"
#include "StartOS.hpp"

void Plic::init() {
    802015b6:	1141                	addi	sp,sp,-16
    802015b8:	e422                	sd	s0,8(sp)
    802015ba:	0800                	addi	s0,sp,16
  // 设置IRQ的属性为非零，即启用plic
  *(uint32_t *)(PLIC_V + UART_IRQ * 4) = 1;
    802015bc:	00fc37b7          	lui	a5,0xfc3
    802015c0:	07ba                	slli	a5,a5,0xe
    802015c2:	4705                	li	a4,1
    802015c4:	d798                	sw	a4,40(a5)
  *(uint32_t *)(PLIC_V + DISK_IRQ * 4) = 1;
    802015c6:	c3d8                	sw	a4,4(a5)
}
    802015c8:	6422                	ld	s0,8(sp)
    802015ca:	0141                	addi	sp,sp,16
    802015cc:	8082                	ret

00000000802015ce <_ZN4Plic8initHartEv>:

void Plic::initHart(void) {
    802015ce:	1141                	addi	sp,sp,-16
    802015d0:	e406                	sd	ra,8(sp)
    802015d2:	e022                	sd	s0,0(sp)
    802015d4:	0800                	addi	s0,sp,16
  int hart = Cpu::cpuid();
    802015d6:	00000097          	auipc	ra,0x0
    802015da:	982080e7          	jalr	-1662(ra) # 80200f58 <_ZN3Cpu5cpuidEv>
#ifdef QEMU
  // 为当前hart的S模式设置uart的enable
  *(uint32_t *)PLIC_SENABLE(hart) = (1 << UART_IRQ) | (1 << DISK_IRQ);
    802015de:	0085171b          	slliw	a4,a0,0x8
    802015e2:	01f867b7          	lui	a5,0x1f86
    802015e6:	0785                	addi	a5,a5,1
    802015e8:	07b6                	slli	a5,a5,0xd
    802015ea:	97ba                	add	a5,a5,a4
    802015ec:	40200713          	li	a4,1026
    802015f0:	08e7a023          	sw	a4,128(a5) # 1f86080 <_entry-0x7e279f80>
  // 将当前hart的S模式优先级阈值设置为0
  *(uint32_t *)PLIC_SPRIORITY(hart) = 0;
    802015f4:	00d5179b          	slliw	a5,a0,0xd
    802015f8:	03f0c537          	lui	a0,0x3f0c
    802015fc:	20150513          	addi	a0,a0,513 # 3f0c201 <_entry-0x7c2f3dff>
    80201600:	0532                	slli	a0,a0,0xc
    80201602:	953e                	add	a0,a0,a5
    80201604:	00052023          	sw	zero,0(a0)
  uint32_t *hart_m_enable = (uint32_t *)PLIC_MENABLE(hart);
  *(hart_m_enable) = readd(hart_m_enable) | (1 << DISK_IRQ);
  uint32_t *hart0_m_int_enable_hi = hart_m_enable + 1;
  *(hart0_m_int_enable_hi) = readd(hart0_m_int_enable_hi) | (1 << (UART_IRQ % 32));
#endif
}
    80201608:	60a2                	ld	ra,8(sp)
    8020160a:	6402                	ld	s0,0(sp)
    8020160c:	0141                	addi	sp,sp,16
    8020160e:	8082                	ret

0000000080201610 <_ZN4Plic5claimEv>:

// 向PLIC询问中断
int Plic::claim(void) {
    80201610:	1141                	addi	sp,sp,-16
    80201612:	e406                	sd	ra,8(sp)
    80201614:	e022                	sd	s0,0(sp)
    80201616:	0800                	addi	s0,sp,16
  int hart = Cpu::cpuid();
    80201618:	00000097          	auipc	ra,0x0
    8020161c:	940080e7          	jalr	-1728(ra) # 80200f58 <_ZN3Cpu5cpuidEv>
  int irq;
#ifndef QEMU
  irq = *(uint32_t *)PLIC_MCLAIM(hart);
#else
  irq = *(uint32_t *)PLIC_SCLAIM(hart);
    80201620:	00d5179b          	slliw	a5,a0,0xd
    80201624:	03f0c537          	lui	a0,0x3f0c
    80201628:	20150513          	addi	a0,a0,513 # 3f0c201 <_entry-0x7c2f3dff>
    8020162c:	0532                	slli	a0,a0,0xc
    8020162e:	953e                	add	a0,a0,a5
#endif
  return irq;
}
    80201630:	4148                	lw	a0,4(a0)
    80201632:	60a2                	ld	ra,8(sp)
    80201634:	6402                	ld	s0,0(sp)
    80201636:	0141                	addi	sp,sp,16
    80201638:	8082                	ret

000000008020163a <_ZN4Plic8completeEi>:

// 告知PLIC已经处理了当前IRQ
void Plic::complete(int irq) {
    8020163a:	1101                	addi	sp,sp,-32
    8020163c:	ec06                	sd	ra,24(sp)
    8020163e:	e822                	sd	s0,16(sp)
    80201640:	e426                	sd	s1,8(sp)
    80201642:	1000                	addi	s0,sp,32
    80201644:	84ae                	mv	s1,a1
  int hart = Cpu::cpuid();
    80201646:	00000097          	auipc	ra,0x0
    8020164a:	912080e7          	jalr	-1774(ra) # 80200f58 <_ZN3Cpu5cpuidEv>
#ifndef QEMU
  *(uint32_t *)PLIC_MCLAIM(hart) = irq;
#else
  *(uint32_t *)PLIC_SCLAIM(hart) = irq;
    8020164e:	00d5179b          	slliw	a5,a0,0xd
    80201652:	03f0c537          	lui	a0,0x3f0c
    80201656:	20150513          	addi	a0,a0,513 # 3f0c201 <_entry-0x7c2f3dff>
    8020165a:	0532                	slli	a0,a0,0xc
    8020165c:	953e                	add	a0,a0,a5
    8020165e:	c144                	sw	s1,4(a0)
#endif
    80201660:	60e2                	ld	ra,24(sp)
    80201662:	6442                	ld	s0,16(sp)
    80201664:	64a2                	ld	s1,8(sp)
    80201666:	6105                	addi	sp,sp,32
    80201668:	8082                	ret
    8020166a:	0000                	unimp
    8020166c:	0000                	unimp
	...

0000000080201670 <kernelvec>:
    80201670:	7111                	addi	sp,sp,-256
    80201672:	e006                	sd	ra,0(sp)
    80201674:	e40a                	sd	sp,8(sp)
    80201676:	e80e                	sd	gp,16(sp)
    80201678:	ec12                	sd	tp,24(sp)
    8020167a:	f016                	sd	t0,32(sp)
    8020167c:	f41a                	sd	t1,40(sp)
    8020167e:	f81e                	sd	t2,48(sp)
    80201680:	fc22                	sd	s0,56(sp)
    80201682:	e0a6                	sd	s1,64(sp)
    80201684:	e4aa                	sd	a0,72(sp)
    80201686:	e8ae                	sd	a1,80(sp)
    80201688:	ecb2                	sd	a2,88(sp)
    8020168a:	f0b6                	sd	a3,96(sp)
    8020168c:	f4ba                	sd	a4,104(sp)
    8020168e:	f8be                	sd	a5,112(sp)
    80201690:	fcc2                	sd	a6,120(sp)
    80201692:	e146                	sd	a7,128(sp)
    80201694:	e54a                	sd	s2,136(sp)
    80201696:	e94e                	sd	s3,144(sp)
    80201698:	ed52                	sd	s4,152(sp)
    8020169a:	f156                	sd	s5,160(sp)
    8020169c:	f55a                	sd	s6,168(sp)
    8020169e:	f95e                	sd	s7,176(sp)
    802016a0:	fd62                	sd	s8,184(sp)
    802016a2:	e1e6                	sd	s9,192(sp)
    802016a4:	e5ea                	sd	s10,200(sp)
    802016a6:	e9ee                	sd	s11,208(sp)
    802016a8:	edf2                	sd	t3,216(sp)
    802016aa:	f1f6                	sd	t4,224(sp)
    802016ac:	f5fa                	sd	t5,232(sp)
    802016ae:	f9fe                	sd	t6,240(sp)
    802016b0:	bdbff0ef          	jal	ra,8020128a <kerneltrap>
    802016b4:	6082                	ld	ra,0(sp)
    802016b6:	6122                	ld	sp,8(sp)
    802016b8:	61c2                	ld	gp,16(sp)
    802016ba:	6262                	ld	tp,24(sp)
    802016bc:	7282                	ld	t0,32(sp)
    802016be:	7322                	ld	t1,40(sp)
    802016c0:	73c2                	ld	t2,48(sp)
    802016c2:	7462                	ld	s0,56(sp)
    802016c4:	6486                	ld	s1,64(sp)
    802016c6:	6526                	ld	a0,72(sp)
    802016c8:	65c6                	ld	a1,80(sp)
    802016ca:	6666                	ld	a2,88(sp)
    802016cc:	7686                	ld	a3,96(sp)
    802016ce:	7726                	ld	a4,104(sp)
    802016d0:	77c6                	ld	a5,112(sp)
    802016d2:	7866                	ld	a6,120(sp)
    802016d4:	688a                	ld	a7,128(sp)
    802016d6:	692a                	ld	s2,136(sp)
    802016d8:	69ca                	ld	s3,144(sp)
    802016da:	6a6a                	ld	s4,152(sp)
    802016dc:	7a8a                	ld	s5,160(sp)
    802016de:	7b2a                	ld	s6,168(sp)
    802016e0:	7bca                	ld	s7,176(sp)
    802016e2:	7c6a                	ld	s8,184(sp)
    802016e4:	6c8e                	ld	s9,192(sp)
    802016e6:	6d2e                	ld	s10,200(sp)
    802016e8:	6dce                	ld	s11,208(sp)
    802016ea:	6e6e                	ld	t3,216(sp)
    802016ec:	7e8e                	ld	t4,224(sp)
    802016ee:	7f2e                	ld	t5,232(sp)
    802016f0:	7fce                	ld	t6,240(sp)
    802016f2:	6111                	addi	sp,sp,256
    802016f4:	10200073          	sret
    802016f8:	0000                	unimp
    802016fa:	0000                	unimp
	...

00000000802016fe <_ZN5TimerC1Ej>:
#include "types.hpp"
#include "StartOS.hpp"

// extern "C" void timervec();

Timer::Timer(uint32_t interval) : interval(interval) {
    802016fe:	1101                	addi	sp,sp,-32
    80201700:	ec06                	sd	ra,24(sp)
    80201702:	e822                	sd	s0,16(sp)
    80201704:	e426                	sd	s1,8(sp)
    80201706:	e04a                	sd	s2,0(sp)
    80201708:	1000                	addi	s0,sp,32
    8020170a:	84aa                	mv	s1,a0
    8020170c:	892e                	mv	s2,a1
    8020170e:	0521                	addi	a0,a0,8
    80201710:	fffff097          	auipc	ra,0xfffff
    80201714:	6b4080e7          	jalr	1716(ra) # 80200dc4 <_ZN8SpinLockC1Ev>
    80201718:	0324a023          	sw	s2,32(s1)
}
    8020171c:	60e2                	ld	ra,24(sp)
    8020171e:	6442                	ld	s0,16(sp)
    80201720:	64a2                	ld	s1,8(sp)
    80201722:	6902                	ld	s2,0(sp)
    80201724:	6105                	addi	sp,sp,32
    80201726:	8082                	ret

0000000080201728 <_ZN5Timer10setTimeoutEv>:
void Timer::init() {
  spinLock.init("timer");
  setTimeout();
}

void Timer::setTimeout() {
    80201728:	1141                	addi	sp,sp,-16
    8020172a:	e422                	sd	s0,8(sp)
    8020172c:	0800                	addi	s0,sp,16
  asm volatile("rdtime %0" : "=r" (x) );
    8020172e:	c0102573          	rdtime	a0
  int t = r_time() + INTERVAL;
  sbi_set_timer(t);
    80201732:	000f47b7          	lui	a5,0xf4
    80201736:	2407879b          	addiw	a5,a5,576
    8020173a:	9d3d                	addw	a0,a0,a5
	SBI_CALL_1(SBI_SET_TIMER, stime_value);
    8020173c:	4581                	li	a1,0
    8020173e:	4601                	li	a2,0
    80201740:	4681                	li	a3,0
    80201742:	4881                	li	a7,0
    80201744:	00000073          	ecall
}
    80201748:	6422                	ld	s0,8(sp)
    8020174a:	0141                	addi	sp,sp,16
    8020174c:	8082                	ret

000000008020174e <_ZN5Timer4initEv>:
void Timer::init() {
    8020174e:	1101                	addi	sp,sp,-32
    80201750:	ec06                	sd	ra,24(sp)
    80201752:	e822                	sd	s0,16(sp)
    80201754:	e426                	sd	s1,8(sp)
    80201756:	1000                	addi	s0,sp,32
    80201758:	84aa                	mv	s1,a0
  spinLock.init("timer");
    8020175a:	00009597          	auipc	a1,0x9
    8020175e:	e3e58593          	addi	a1,a1,-450 # 8020a598 <_ZL6digits+0x290>
    80201762:	0521                	addi	a0,a0,8
    80201764:	fffff097          	auipc	ra,0xfffff
    80201768:	692080e7          	jalr	1682(ra) # 80200df6 <_ZN8SpinLock4initEPKc>
  setTimeout();
    8020176c:	8526                	mv	a0,s1
    8020176e:	00000097          	auipc	ra,0x0
    80201772:	fba080e7          	jalr	-70(ra) # 80201728 <_ZN5Timer10setTimeoutEv>
}
    80201776:	60e2                	ld	ra,24(sp)
    80201778:	6442                	ld	s0,16(sp)
    8020177a:	64a2                	ld	s1,8(sp)
    8020177c:	6105                	addi	sp,sp,32
    8020177e:	8082                	ret

0000000080201780 <_ZN5Timer10handleIntrEv>:

void Timer::handleIntr() {
    80201780:	1101                	addi	sp,sp,-32
    80201782:	ec06                	sd	ra,24(sp)
    80201784:	e822                	sd	s0,16(sp)
    80201786:	e426                	sd	s1,8(sp)
    80201788:	e04a                	sd	s2,0(sp)
    8020178a:	1000                	addi	s0,sp,32
    8020178c:	84aa                	mv	s1,a0
  this->spinLock.lock();
    8020178e:	00850913          	addi	s2,a0,8
    80201792:	854a                	mv	a0,s2
    80201794:	fffff097          	auipc	ra,0xfffff
    80201798:	6b8080e7          	jalr	1720(ra) # 80200e4c <_ZN8SpinLock4lockEv>
  this->ticks++;
    8020179c:	409c                	lw	a5,0(s1)
    8020179e:	2785                	addiw	a5,a5,1
    802017a0:	c09c                	sw	a5,0(s1)
  this->spinLock.unlock();
    802017a2:	854a                	mv	a0,s2
    802017a4:	fffff097          	auipc	ra,0xfffff
    802017a8:	724080e7          	jalr	1828(ra) # 80200ec8 <_ZN8SpinLock6unlockEv>
  setTimeout();
    802017ac:	8526                	mv	a0,s1
    802017ae:	00000097          	auipc	ra,0x0
    802017b2:	f7a080e7          	jalr	-134(ra) # 80201728 <_ZN5Timer10setTimeoutEv>
    802017b6:	60e2                	ld	ra,24(sp)
    802017b8:	6442                	ld	s0,16(sp)
    802017ba:	64a2                	ld	s1,8(sp)
    802017bc:	6902                	ld	s2,0(sp)
    802017be:	6105                	addi	sp,sp,32
    802017c0:	8082                	ret

00000000802017c2 <_Z13initTaskTablev>:
extern char trampoline[];  // trampoline.S

alignas(4096) char stack[PGSIZE * 2 * (NTASK + 1)];

// 初始化任务表
void initTaskTable() {
    802017c2:	7139                	addi	sp,sp,-64
    802017c4:	fc06                	sd	ra,56(sp)
    802017c6:	f822                	sd	s0,48(sp)
    802017c8:	f426                	sd	s1,40(sp)
    802017ca:	f04a                	sd	s2,32(sp)
    802017cc:	ec4e                	sd	s3,24(sp)
    802017ce:	e852                	sd	s4,16(sp)
    802017d0:	e456                	sd	s5,8(sp)
    802017d2:	e05a                	sd	s6,0(sp)
    802017d4:	0080                	addi	s0,sp,64
  Task *task;
  for (int i = 0; i < NTASK; i++) {
    802017d6:	00088497          	auipc	s1,0x88
    802017da:	82a48493          	addi	s1,s1,-2006 # 80289000 <taskTable>
    802017de:	00022997          	auipc	s3,0x22
    802017e2:	82298993          	addi	s3,s3,-2014 # 80223000 <stack>
    802017e6:	4901                	li	s2,0
    task = &taskTable[i];
    task->lock.init("task");
    802017e8:	00009b17          	auipc	s6,0x9
    802017ec:	db8b0b13          	addi	s6,s6,-584 # 8020a5a0 <_ZL6digits+0x298>
    802017f0:	6a85                	lui	s5,0x1
  for (int i = 0; i < NTASK; i++) {
    802017f2:	03200a13          	li	s4,50
    task->lock.init("task");
    802017f6:	85da                	mv	a1,s6
    802017f8:	8526                	mv	a0,s1
    802017fa:	fffff097          	auipc	ra,0xfffff
    802017fe:	5fc080e7          	jalr	1532(ra) # 80200df6 <_ZN8SpinLock4initEPKc>
    task->pid = i;
    80201802:	0324ac23          	sw	s2,56(s1)
    // task->kstack = (uint64_t) kalloc();
    task->kstack = (uint64_t)(stack + PGSIZE * i);
    80201806:	0d34bc23          	sd	s3,216(s1)
    task->trapframe = 0;
    8020180a:	0404b023          	sd	zero,64(s1)
    task->state = UNUSED;
    8020180e:	0004ac23          	sw	zero,24(s1)
    task->killed = 0;
    80201812:	0204a823          	sw	zero,48(s1)
    task->xstate = 0;
    80201816:	0204aa23          	sw	zero,52(s1)
    task->sz = 0;
    8020181a:	1604a023          	sw	zero,352(s1)
    memset(task->currentDir, 0, MAXPATH);
    8020181e:	04000613          	li	a2,64
    80201822:	4581                	li	a1,0
    80201824:	09048513          	addi	a0,s1,144
    80201828:	fffff097          	auipc	ra,0xfffff
    8020182c:	334080e7          	jalr	820(ra) # 80200b5c <_Z6memsetPvij>
    memset(task->openFiles, 0, sizeof(struct file *) * NOFILE);
    80201830:	04000613          	li	a2,64
    80201834:	4581                	li	a1,0
    80201836:	05048513          	addi	a0,s1,80
    8020183a:	fffff097          	auipc	ra,0xfffff
    8020183e:	322080e7          	jalr	802(ra) # 80200b5c <_Z6memsetPvij>
  for (int i = 0; i < NTASK; i++) {
    80201842:	2905                	addiw	s2,s2,1
    80201844:	16848493          	addi	s1,s1,360
    80201848:	99d6                	add	s3,s3,s5
    8020184a:	fb4916e3          	bne	s2,s4,802017f6 <_Z13initTaskTablev+0x34>
  }
}
    8020184e:	70e2                	ld	ra,56(sp)
    80201850:	7442                	ld	s0,48(sp)
    80201852:	74a2                	ld	s1,40(sp)
    80201854:	7902                	ld	s2,32(sp)
    80201856:	69e2                	ld	s3,24(sp)
    80201858:	6a42                	ld	s4,16(sp)
    8020185a:	6aa2                	ld	s5,8(sp)
    8020185c:	6b02                	ld	s6,0(sp)
    8020185e:	6121                	addi	sp,sp,64
    80201860:	8082                	ret

0000000080201862 <_Z13taskPagetableP4Task>:
 * 创建一个进程可以使用的pagetable, 只映射了trampoline页,
 * 用于进入和离开内核空间
 *
 * @return
 */
pagetable_t taskPagetable(Task *task) {
    80201862:	1101                	addi	sp,sp,-32
    80201864:	ec06                	sd	ra,24(sp)
    80201866:	e822                	sd	s0,16(sp)
    80201868:	e426                	sd	s1,8(sp)
    8020186a:	e04a                	sd	s2,0(sp)
    8020186c:	1000                	addi	s0,sp,32
    8020186e:	892a                	mv	s2,a0
  pagetable_t pagetable;

  // 创建一个空的页表
  pagetable = userCreate();
    80201870:	00006097          	auipc	ra,0x6
    80201874:	83c080e7          	jalr	-1988(ra) # 802070ac <_Z10userCreatev>
    80201878:	84aa                	mv	s1,a0
  if (pagetable == 0) return 0;
    8020187a:	c131                	beqz	a0,802018be <_Z13taskPagetableP4Task+0x5c>

  // 映射trampoline代码(用于系统调用)到虚拟地址的顶端
  if (mappages(pagetable, TRAMPOLINE, PGSIZE, (uint64_t)trampoline, PTE_R | PTE_X) < 0) {
    8020187c:	4729                	li	a4,10
    8020187e:	00006697          	auipc	a3,0x6
    80201882:	78268693          	addi	a3,a3,1922 # 80208000 <trampoline>
    80201886:	6605                	lui	a2,0x1
    80201888:	040005b7          	lui	a1,0x4000
    8020188c:	15fd                	addi	a1,a1,-1
    8020188e:	05b2                	slli	a1,a1,0xc
    80201890:	00005097          	auipc	ra,0x5
    80201894:	57e080e7          	jalr	1406(ra) # 80206e0e <_Z8mappagesPmmmmi>
    80201898:	02054a63          	bltz	a0,802018cc <_Z13taskPagetableP4Task+0x6a>
    // TODO 失败释放内存
    return 0;
  }
  // 将进程的trapframe映射到TRAPFRAME, TRAMPOLINE的低位一页
  if (mappages(pagetable, TRAPFRAME, PGSIZE, (uint64_t)(task->trapframe), PTE_R | PTE_W) < 0) {
    8020189c:	4719                	li	a4,6
    8020189e:	04093683          	ld	a3,64(s2) # 1040 <_entry-0x801fefc0>
    802018a2:	6605                	lui	a2,0x1
    802018a4:	020005b7          	lui	a1,0x2000
    802018a8:	15fd                	addi	a1,a1,-1
    802018aa:	05b6                	slli	a1,a1,0xd
    802018ac:	8526                	mv	a0,s1
    802018ae:	00005097          	auipc	ra,0x5
    802018b2:	560080e7          	jalr	1376(ra) # 80206e0e <_Z8mappagesPmmmmi>
    //        uvmunmap(pagetable, TRAMPOLINE, 1, 0);
    //        uvmfree(pagetable, 0);
    return 0;
    802018b6:	fff54513          	not	a0,a0
    802018ba:	957d                	srai	a0,a0,0x3f
    802018bc:	8ce9                	and	s1,s1,a0
  }
  return pagetable;
}
    802018be:	8526                	mv	a0,s1
    802018c0:	60e2                	ld	ra,24(sp)
    802018c2:	6442                	ld	s0,16(sp)
    802018c4:	64a2                	ld	s1,8(sp)
    802018c6:	6902                	ld	s2,0(sp)
    802018c8:	6105                	addi	sp,sp,32
    802018ca:	8082                	ret
    return 0;
    802018cc:	4481                	li	s1,0
    802018ce:	bfc5                	j	802018be <_Z13taskPagetableP4Task+0x5c>

00000000802018d0 <_Z9allocTaskv>:
Task *allocTask() {
    802018d0:	1101                	addi	sp,sp,-32
    802018d2:	ec06                	sd	ra,24(sp)
    802018d4:	e822                	sd	s0,16(sp)
    802018d6:	e426                	sd	s1,8(sp)
    802018d8:	e04a                	sd	s2,0(sp)
    802018da:	1000                	addi	s0,sp,32
  for (task = taskTable; task < &taskTable[NTASK]; task++) {
    802018dc:	00087497          	auipc	s1,0x87
    802018e0:	72448493          	addi	s1,s1,1828 # 80289000 <taskTable>
    802018e4:	0008c917          	auipc	s2,0x8c
    802018e8:	d6c90913          	addi	s2,s2,-660 # 8028d650 <initTask>
    task->lock.lock();
    802018ec:	8526                	mv	a0,s1
    802018ee:	fffff097          	auipc	ra,0xfffff
    802018f2:	55e080e7          	jalr	1374(ra) # 80200e4c <_ZN8SpinLock4lockEv>
    if (task->state == UNUSED) {
    802018f6:	4c9c                	lw	a5,24(s1)
    802018f8:	cf81                	beqz	a5,80201910 <_Z9allocTaskv+0x40>
      task->lock.unlock();
    802018fa:	8526                	mv	a0,s1
    802018fc:	fffff097          	auipc	ra,0xfffff
    80201900:	5cc080e7          	jalr	1484(ra) # 80200ec8 <_ZN8SpinLock6unlockEv>
  for (task = taskTable; task < &taskTable[NTASK]; task++) {
    80201904:	16848493          	addi	s1,s1,360
    80201908:	ff2492e3          	bne	s1,s2,802018ec <_Z9allocTaskv+0x1c>
  return 0;
    8020190c:	4481                	li	s1,0
    8020190e:	a08d                	j	80201970 <_Z9allocTaskv+0xa0>
  if ((task->trapframe = (struct trapframe *)memAllocator.alloc()) == 0) {
    80201910:	00012517          	auipc	a0,0x12
    80201914:	79050513          	addi	a0,a0,1936 # 802140a0 <memAllocator>
    80201918:	00006097          	auipc	ra,0x6
    8020191c:	c22080e7          	jalr	-990(ra) # 8020753a <_ZN12MemAllocator5allocEv>
    80201920:	892a                	mv	s2,a0
    80201922:	e0a8                	sd	a0,64(s1)
    80201924:	cd29                	beqz	a0,8020197e <_Z9allocTaskv+0xae>
  task->pagetable = taskPagetable(task);
    80201926:	8526                	mv	a0,s1
    80201928:	00000097          	auipc	ra,0x0
    8020192c:	f3a080e7          	jalr	-198(ra) # 80201862 <_Z13taskPagetableP4Task>
    80201930:	e4a8                	sd	a0,72(s1)
  memset(&task->context, 0, sizeof(task->context));
    80201932:	07000613          	li	a2,112
    80201936:	4581                	li	a1,0
    80201938:	0e048513          	addi	a0,s1,224
    8020193c:	fffff097          	auipc	ra,0xfffff
    80201940:	220080e7          	jalr	544(ra) # 80200b5c <_Z6memsetPvij>
  memset(task->trapframe, 0, sizeof(*task->trapframe));
    80201944:	12000613          	li	a2,288
    80201948:	4581                	li	a1,0
    8020194a:	60a8                	ld	a0,64(s1)
    8020194c:	fffff097          	auipc	ra,0xfffff
    80201950:	210080e7          	jalr	528(ra) # 80200b5c <_Z6memsetPvij>
  task->context.sp = task->kstack + PGSIZE;
    80201954:	6cfc                	ld	a5,216(s1)
    80201956:	6705                	lui	a4,0x1
    80201958:	97ba                	add	a5,a5,a4
    8020195a:	f4fc                	sd	a5,232(s1)
  task->context.ra = (uint64_t)forkret;
    8020195c:	00000797          	auipc	a5,0x0
    80201960:	0e078793          	addi	a5,a5,224 # 80201a3c <_Z7forkretv>
    80201964:	f0fc                	sd	a5,224(s1)
  task->lock.unlock();
    80201966:	8526                	mv	a0,s1
    80201968:	fffff097          	auipc	ra,0xfffff
    8020196c:	560080e7          	jalr	1376(ra) # 80200ec8 <_ZN8SpinLock6unlockEv>
}
    80201970:	8526                	mv	a0,s1
    80201972:	60e2                	ld	ra,24(sp)
    80201974:	6442                	ld	s0,16(sp)
    80201976:	64a2                	ld	s1,8(sp)
    80201978:	6902                	ld	s2,0(sp)
    8020197a:	6105                	addi	sp,sp,32
    8020197c:	8082                	ret
    task->lock.unlock();
    8020197e:	8526                	mv	a0,s1
    80201980:	fffff097          	auipc	ra,0xfffff
    80201984:	548080e7          	jalr	1352(ra) # 80200ec8 <_ZN8SpinLock6unlockEv>
    return 0;
    80201988:	84ca                	mv	s1,s2
    8020198a:	b7dd                	j	80201970 <_Z9allocTaskv+0xa0>

000000008020198c <_Z13initFirstTaskv>:
void initFirstTask() {
    8020198c:	1101                	addi	sp,sp,-32
    8020198e:	ec06                	sd	ra,24(sp)
    80201990:	e822                	sd	s0,16(sp)
    80201992:	e426                	sd	s1,8(sp)
    80201994:	1000                	addi	s0,sp,32
  Task *task = allocTask();
    80201996:	00000097          	auipc	ra,0x0
    8020199a:	f3a080e7          	jalr	-198(ra) # 802018d0 <_Z9allocTaskv>
    8020199e:	84aa                	mv	s1,a0
  user_vm_init(task->pagetable, initcode, sizeof(initcode));
    802019a0:	03400613          	li	a2,52
    802019a4:	00009597          	auipc	a1,0x9
    802019a8:	65c58593          	addi	a1,a1,1628 # 8020b000 <initcode>
    802019ac:	6528                	ld	a0,72(a0)
    802019ae:	00005097          	auipc	ra,0x5
    802019b2:	734080e7          	jalr	1844(ra) # 802070e2 <_Z12user_vm_initPmPhj>
  task->sz = PGSIZE;
    802019b6:	6785                	lui	a5,0x1
    802019b8:	16f4a023          	sw	a5,352(s1)
  task->trapframe->epc = 0;
    802019bc:	60bc                	ld	a5,64(s1)
    802019be:	0007bc23          	sd	zero,24(a5) # 1018 <_entry-0x801fefe8>
  task->trapframe->sp = PGSIZE;
    802019c2:	60bc                	ld	a5,64(s1)
    802019c4:	6705                	lui	a4,0x1
    802019c6:	fb98                	sd	a4,48(a5)
  memmove(task->name, "initcode", sizeof(task->name));
    802019c8:	4641                	li	a2,16
    802019ca:	00009597          	auipc	a1,0x9
    802019ce:	bde58593          	addi	a1,a1,-1058 # 8020a5a8 <_ZL6digits+0x2a0>
    802019d2:	15048513          	addi	a0,s1,336
    802019d6:	fffff097          	auipc	ra,0xfffff
    802019da:	1e0080e7          	jalr	480(ra) # 80200bb6 <_Z7memmovePvPKvj>
  task->currentDir[0] = '/';
    802019de:	02f00793          	li	a5,47
    802019e2:	08f48823          	sb	a5,144(s1)
  task->state = RUNNABLE;
    802019e6:	4789                	li	a5,2
    802019e8:	cc9c                	sw	a5,24(s1)
  initTask = task;
    802019ea:	0008c797          	auipc	a5,0x8c
    802019ee:	c697b323          	sd	s1,-922(a5) # 8028d650 <initTask>
  printf("over");
    802019f2:	00009517          	auipc	a0,0x9
    802019f6:	bc650513          	addi	a0,a0,-1082 # 8020a5b8 <_ZL6digits+0x2b0>
    802019fa:	fffff097          	auipc	ra,0xfffff
    802019fe:	e5a080e7          	jalr	-422(ra) # 80200854 <_Z6printfPKcz>
}
    80201a02:	60e2                	ld	ra,24(sp)
    80201a04:	6442                	ld	s0,16(sp)
    80201a06:	64a2                	ld	s1,8(sp)
    80201a08:	6105                	addi	sp,sp,32
    80201a0a:	8082                	ret

0000000080201a0c <_Z6myTaskv>:
    }
  }
}

// 获取当前进程
Task *myTask() {
    80201a0c:	1101                	addi	sp,sp,-32
    80201a0e:	ec06                	sd	ra,24(sp)
    80201a10:	e822                	sd	s0,16(sp)
    80201a12:	e426                	sd	s1,8(sp)
    80201a14:	1000                	addi	s0,sp,32
  Intr::push_off();
    80201a16:	00002097          	auipc	ra,0x2
    80201a1a:	a22080e7          	jalr	-1502(ra) # 80203438 <_ZN4Intr8push_offEv>
  Task *task = Cpu::mycpu()->task;
    80201a1e:	fffff097          	auipc	ra,0xfffff
    80201a22:	54a080e7          	jalr	1354(ra) # 80200f68 <_ZN3Cpu5mycpuEv>
    80201a26:	6104                	ld	s1,0(a0)
  Intr::pop_off();
    80201a28:	00002097          	auipc	ra,0x2
    80201a2c:	a5e080e7          	jalr	-1442(ra) # 80203486 <_ZN4Intr7pop_offEv>
  return task;
}
    80201a30:	8526                	mv	a0,s1
    80201a32:	60e2                	ld	ra,24(sp)
    80201a34:	6442                	ld	s0,16(sp)
    80201a36:	64a2                	ld	s1,8(sp)
    80201a38:	6105                	addi	sp,sp,32
    80201a3a:	8082                	ret

0000000080201a3c <_Z7forkretv>:
void forkret(void) {
    80201a3c:	7175                	addi	sp,sp,-144
    80201a3e:	e506                	sd	ra,136(sp)
    80201a40:	e122                	sd	s0,128(sp)
    80201a42:	fca6                	sd	s1,120(sp)
    80201a44:	0900                	addi	s0,sp,144
  myTask()->lock.unlock();
    80201a46:	00000097          	auipc	ra,0x0
    80201a4a:	fc6080e7          	jalr	-58(ra) # 80201a0c <_Z6myTaskv>
    80201a4e:	fffff097          	auipc	ra,0xfffff
    80201a52:	47a080e7          	jalr	1146(ra) # 80200ec8 <_ZN8SpinLock6unlockEv>
  if (first) {
    80201a56:	00009797          	auipc	a5,0x9
    80201a5a:	61a7a783          	lw	a5,1562(a5) # 8020b070 <_ZZ7forkretvE5first>
    80201a5e:	cbd9                	beqz	a5,80201af4 <_Z7forkretv+0xb8>
    first = 0;
    80201a60:	00009797          	auipc	a5,0x9
    80201a64:	6007a823          	sw	zero,1552(a5) # 8020b070 <_ZZ7forkretvE5first>
    vfs::init();
    80201a68:	00005097          	auipc	ra,0x5
    80201a6c:	c24080e7          	jalr	-988(ra) # 8020668c <_ZN3vfs4initEv>
    memset(buf, 0, 100);
    80201a70:	06400613          	li	a2,100
    80201a74:	4581                	li	a1,0
    80201a76:	f7840513          	addi	a0,s0,-136
    80201a7a:	fffff097          	auipc	ra,0xfffff
    80201a7e:	0e2080e7          	jalr	226(ra) # 80200b5c <_Z6memsetPvij>
    int fd = vfs::open("/bin", O_RDONLY);
    80201a82:	4581                	li	a1,0
    80201a84:	00009517          	auipc	a0,0x9
    80201a88:	b3c50513          	addi	a0,a0,-1220 # 8020a5c0 <_ZL6digits+0x2b8>
    80201a8c:	00004097          	auipc	ra,0x4
    80201a90:	59e080e7          	jalr	1438(ra) # 8020602a <_ZN3vfs4openEPKcm>
    vfs::ls(fd, buf, false);
    80201a94:	4601                	li	a2,0
    80201a96:	f7840593          	addi	a1,s0,-136
    80201a9a:	00005097          	auipc	ra,0x5
    80201a9e:	a9c080e7          	jalr	-1380(ra) # 80206536 <_ZN3vfs2lsEiPcb>
    80201aa2:	00009717          	auipc	a4,0x9
    80201aa6:	b2670713          	addi	a4,a4,-1242 # 8020a5c8 <_ZL6digits+0x2c0>
    80201aaa:	07200693          	li	a3,114
    80201aae:	00009617          	auipc	a2,0x9
    80201ab2:	b2260613          	addi	a2,a2,-1246 # 8020a5d0 <_ZL6digits+0x2c8>
    80201ab6:	00008597          	auipc	a1,0x8
    80201aba:	6c258593          	addi	a1,a1,1730 # 8020a178 <rodata_start+0x178>
    80201abe:	00008517          	auipc	a0,0x8
    80201ac2:	6c250513          	addi	a0,a0,1730 # 8020a180 <rodata_start+0x180>
    80201ac6:	fffff097          	auipc	ra,0xfffff
    80201aca:	d8e080e7          	jalr	-626(ra) # 80200854 <_Z6printfPKcz>
    LOG_DEBUG("name=%s",dt->d_name);
    80201ace:	f8b40593          	addi	a1,s0,-117
    80201ad2:	00009517          	auipc	a0,0x9
    80201ad6:	b1650513          	addi	a0,a0,-1258 # 8020a5e8 <_ZL6digits+0x2e0>
    80201ada:	fffff097          	auipc	ra,0xfffff
    80201ade:	d7a080e7          	jalr	-646(ra) # 80200854 <_Z6printfPKcz>
    80201ae2:	00008517          	auipc	a0,0x8
    80201ae6:	5be50513          	addi	a0,a0,1470 # 8020a0a0 <rodata_start+0xa0>
    80201aea:	fffff097          	auipc	ra,0xfffff
    80201aee:	d6a080e7          	jalr	-662(ra) # 80200854 <_Z6printfPKcz>
    while(1);
    80201af2:	a001                	j	80201af2 <_Z7forkretv+0xb6>
    80201af4:	00009717          	auipc	a4,0x9
    80201af8:	ad470713          	addi	a4,a4,-1324 # 8020a5c8 <_ZL6digits+0x2c0>
    80201afc:	08300693          	li	a3,131
    80201b00:	00009617          	auipc	a2,0x9
    80201b04:	ad060613          	addi	a2,a2,-1328 # 8020a5d0 <_ZL6digits+0x2c8>
    80201b08:	00008597          	auipc	a1,0x8
    80201b0c:	67058593          	addi	a1,a1,1648 # 8020a178 <rodata_start+0x178>
    80201b10:	00008517          	auipc	a0,0x8
    80201b14:	67050513          	addi	a0,a0,1648 # 8020a180 <rodata_start+0x180>
    80201b18:	fffff097          	auipc	ra,0xfffff
    80201b1c:	d3c080e7          	jalr	-708(ra) # 80200854 <_Z6printfPKcz>
  LOG_DEBUG("cpuid=%d task=%p", Cpu::cpuid(), Cpu::mycpu()->task);
    80201b20:	fffff097          	auipc	ra,0xfffff
    80201b24:	438080e7          	jalr	1080(ra) # 80200f58 <_ZN3Cpu5cpuidEv>
    80201b28:	84aa                	mv	s1,a0
    80201b2a:	fffff097          	auipc	ra,0xfffff
    80201b2e:	43e080e7          	jalr	1086(ra) # 80200f68 <_ZN3Cpu5mycpuEv>
    80201b32:	6110                	ld	a2,0(a0)
    80201b34:	85a6                	mv	a1,s1
    80201b36:	00009517          	auipc	a0,0x9
    80201b3a:	aba50513          	addi	a0,a0,-1350 # 8020a5f0 <_ZL6digits+0x2e8>
    80201b3e:	fffff097          	auipc	ra,0xfffff
    80201b42:	d16080e7          	jalr	-746(ra) # 80200854 <_Z6printfPKcz>
    80201b46:	00008517          	auipc	a0,0x8
    80201b4a:	55a50513          	addi	a0,a0,1370 # 8020a0a0 <rodata_start+0xa0>
    80201b4e:	fffff097          	auipc	ra,0xfffff
    80201b52:	d06080e7          	jalr	-762(ra) # 80200854 <_Z6printfPKcz>
  usertrapret();
    80201b56:	fffff097          	auipc	ra,0xfffff
    80201b5a:	48a080e7          	jalr	1162(ra) # 80200fe0 <_Z11usertrapretv>
}
    80201b5e:	60aa                	ld	ra,136(sp)
    80201b60:	640a                	ld	s0,128(sp)
    80201b62:	74e6                	ld	s1,120(sp)
    80201b64:	6149                	addi	sp,sp,144
    80201b66:	8082                	ret

0000000080201b68 <_Z12prepareSchedv>:
    task->lock.unlock();
    lock->lock();
  }
}

void prepareSched() {
    80201b68:	1101                	addi	sp,sp,-32
    80201b6a:	ec06                	sd	ra,24(sp)
    80201b6c:	e822                	sd	s0,16(sp)
    80201b6e:	e426                	sd	s1,8(sp)
    80201b70:	e04a                	sd	s2,0(sp)
    80201b72:	1000                	addi	s0,sp,32
  int intr_enable;
  Task *task = myTask();
    80201b74:	00000097          	auipc	ra,0x0
    80201b78:	e98080e7          	jalr	-360(ra) # 80201a0c <_Z6myTaskv>
    80201b7c:	84aa                	mv	s1,a0

  if (!task->lock.holding()) panic("sched p->lock");
    80201b7e:	fffff097          	auipc	ra,0xfffff
    80201b82:	29e080e7          	jalr	670(ra) # 80200e1c <_ZN8SpinLock7holdingEv>
    80201b86:	cd39                	beqz	a0,80201be4 <_Z12prepareSchedv+0x7c>
  if (Cpu::mycpu()->noff != 1) panic("sched locks");
    80201b88:	fffff097          	auipc	ra,0xfffff
    80201b8c:	3e0080e7          	jalr	992(ra) # 80200f68 <_ZN3Cpu5mycpuEv>
    80201b90:	5d38                	lw	a4,120(a0)
    80201b92:	4785                	li	a5,1
    80201b94:	06f71163          	bne	a4,a5,80201bf6 <_Z12prepareSchedv+0x8e>
  if (task->state == RUNNING) panic("sched running");
    80201b98:	4c98                	lw	a4,24(s1)
    80201b9a:	478d                	li	a5,3
    80201b9c:	06f70663          	beq	a4,a5,80201c08 <_Z12prepareSchedv+0xa0>
  asm volatile("csrr %0, sstatus" : "=r" (x) );
    80201ba0:	100027f3          	csrr	a5,sstatus
  return (x & SSTATUS_SIE) != 0;
    80201ba4:	8b89                	andi	a5,a5,2
  if (intr_get()) panic("sched interruptible");
    80201ba6:	ebb5                	bnez	a5,80201c1a <_Z12prepareSchedv+0xb2>

  intr_enable = Cpu::mycpu()->intr_enable;
    80201ba8:	fffff097          	auipc	ra,0xfffff
    80201bac:	3c0080e7          	jalr	960(ra) # 80200f68 <_ZN3Cpu5mycpuEv>
    80201bb0:	07c54903          	lbu	s2,124(a0)
  // LOG_INFO("enter switch cpuid=%d task=%p gp=%d", Cpu::cpuid(), Cpu::mycpu()->task, r_gp());
  pswitch(&task->context, &Cpu::mycpu()->context);
    80201bb4:	fffff097          	auipc	ra,0xfffff
    80201bb8:	3b4080e7          	jalr	948(ra) # 80200f68 <_ZN3Cpu5mycpuEv>
    80201bbc:	00850593          	addi	a1,a0,8
    80201bc0:	0e048513          	addi	a0,s1,224
    80201bc4:	00001097          	auipc	ra,0x1
    80201bc8:	a90080e7          	jalr	-1392(ra) # 80202654 <pswitch>
  // LOG_INFO("leave switch cpuid=%d task=%p gp=%d", Cpu::cpuid(), Cpu::mycpu()->task, r_gp());
  // LOG_DEBUG("epc=%p", myTask()->trapframe->epc);
  Cpu::mycpu()->intr_enable = intr_enable;
    80201bcc:	fffff097          	auipc	ra,0xfffff
    80201bd0:	39c080e7          	jalr	924(ra) # 80200f68 <_ZN3Cpu5mycpuEv>
    80201bd4:	07250e23          	sb	s2,124(a0)
}
    80201bd8:	60e2                	ld	ra,24(sp)
    80201bda:	6442                	ld	s0,16(sp)
    80201bdc:	64a2                	ld	s1,8(sp)
    80201bde:	6902                	ld	s2,0(sp)
    80201be0:	6105                	addi	sp,sp,32
    80201be2:	8082                	ret
  if (!task->lock.holding()) panic("sched p->lock");
    80201be4:	00009517          	auipc	a0,0x9
    80201be8:	a2450513          	addi	a0,a0,-1500 # 8020a608 <_ZL6digits+0x300>
    80201bec:	fffff097          	auipc	ra,0xfffff
    80201bf0:	bf6080e7          	jalr	-1034(ra) # 802007e2 <_Z5panicPKc>
    80201bf4:	bf51                	j	80201b88 <_Z12prepareSchedv+0x20>
  if (Cpu::mycpu()->noff != 1) panic("sched locks");
    80201bf6:	00009517          	auipc	a0,0x9
    80201bfa:	a2250513          	addi	a0,a0,-1502 # 8020a618 <_ZL6digits+0x310>
    80201bfe:	fffff097          	auipc	ra,0xfffff
    80201c02:	be4080e7          	jalr	-1052(ra) # 802007e2 <_Z5panicPKc>
    80201c06:	bf49                	j	80201b98 <_Z12prepareSchedv+0x30>
  if (task->state == RUNNING) panic("sched running");
    80201c08:	00009517          	auipc	a0,0x9
    80201c0c:	a2050513          	addi	a0,a0,-1504 # 8020a628 <_ZL6digits+0x320>
    80201c10:	fffff097          	auipc	ra,0xfffff
    80201c14:	bd2080e7          	jalr	-1070(ra) # 802007e2 <_Z5panicPKc>
    80201c18:	b761                	j	80201ba0 <_Z12prepareSchedv+0x38>
  if (intr_get()) panic("sched interruptible");
    80201c1a:	00009517          	auipc	a0,0x9
    80201c1e:	a1e50513          	addi	a0,a0,-1506 # 8020a638 <_ZL6digits+0x330>
    80201c22:	fffff097          	auipc	ra,0xfffff
    80201c26:	bc0080e7          	jalr	-1088(ra) # 802007e2 <_Z5panicPKc>
    80201c2a:	bfbd                	j	80201ba8 <_Z12prepareSchedv+0x40>

0000000080201c2c <_Z5sleepPvP8SpinLock>:
void sleep(void *chan, SpinLock *lock) {
    80201c2c:	7179                	addi	sp,sp,-48
    80201c2e:	f406                	sd	ra,40(sp)
    80201c30:	f022                	sd	s0,32(sp)
    80201c32:	ec26                	sd	s1,24(sp)
    80201c34:	e84a                	sd	s2,16(sp)
    80201c36:	e44e                	sd	s3,8(sp)
    80201c38:	1800                	addi	s0,sp,48
    80201c3a:	89aa                	mv	s3,a0
    80201c3c:	892e                	mv	s2,a1
  Task *task = myTask();
    80201c3e:	00000097          	auipc	ra,0x0
    80201c42:	dce080e7          	jalr	-562(ra) # 80201a0c <_Z6myTaskv>
    80201c46:	84aa                	mv	s1,a0
  if (lock != &task->lock) {  // DOC: sleeplock0
    80201c48:	05250663          	beq	a0,s2,80201c94 <_Z5sleepPvP8SpinLock+0x68>
    task->lock.lock();        // DOC: sleeplock1
    80201c4c:	fffff097          	auipc	ra,0xfffff
    80201c50:	200080e7          	jalr	512(ra) # 80200e4c <_ZN8SpinLock4lockEv>
    lock->unlock();
    80201c54:	854a                	mv	a0,s2
    80201c56:	fffff097          	auipc	ra,0xfffff
    80201c5a:	272080e7          	jalr	626(ra) # 80200ec8 <_ZN8SpinLock6unlockEv>
  task->chan = chan;
    80201c5e:	0334b423          	sd	s3,40(s1)
  task->state = SLEEPING;
    80201c62:	4785                	li	a5,1
    80201c64:	cc9c                	sw	a5,24(s1)
  prepareSched();
    80201c66:	00000097          	auipc	ra,0x0
    80201c6a:	f02080e7          	jalr	-254(ra) # 80201b68 <_Z12prepareSchedv>
  task->chan = 0;
    80201c6e:	0204b423          	sd	zero,40(s1)
    task->lock.unlock();
    80201c72:	8526                	mv	a0,s1
    80201c74:	fffff097          	auipc	ra,0xfffff
    80201c78:	254080e7          	jalr	596(ra) # 80200ec8 <_ZN8SpinLock6unlockEv>
    lock->lock();
    80201c7c:	854a                	mv	a0,s2
    80201c7e:	fffff097          	auipc	ra,0xfffff
    80201c82:	1ce080e7          	jalr	462(ra) # 80200e4c <_ZN8SpinLock4lockEv>
}
    80201c86:	70a2                	ld	ra,40(sp)
    80201c88:	7402                	ld	s0,32(sp)
    80201c8a:	64e2                	ld	s1,24(sp)
    80201c8c:	6942                	ld	s2,16(sp)
    80201c8e:	69a2                	ld	s3,8(sp)
    80201c90:	6145                	addi	sp,sp,48
    80201c92:	8082                	ret
  task->chan = chan;
    80201c94:	03353423          	sd	s3,40(a0)
  task->state = SLEEPING;
    80201c98:	4785                	li	a5,1
    80201c9a:	cd1c                	sw	a5,24(a0)
  prepareSched();
    80201c9c:	00000097          	auipc	ra,0x0
    80201ca0:	ecc080e7          	jalr	-308(ra) # 80201b68 <_Z12prepareSchedv>
  task->chan = 0;
    80201ca4:	0204b423          	sd	zero,40(s1)
  if (lock != &task->lock) {
    80201ca8:	bff9                	j	80201c86 <_Z5sleepPvP8SpinLock+0x5a>

0000000080201caa <_Z9sleepTimem>:

// 睡眠一定时间
void sleepTime(uint64_t sleep_ticks) {
    80201caa:	7179                	addi	sp,sp,-48
    80201cac:	f406                	sd	ra,40(sp)
    80201cae:	f022                	sd	s0,32(sp)
    80201cb0:	ec26                	sd	s1,24(sp)
    80201cb2:	e84a                	sd	s2,16(sp)
    80201cb4:	e44e                	sd	s3,8(sp)
    80201cb6:	e052                	sd	s4,0(sp)
    80201cb8:	1800                	addi	s0,sp,48
    80201cba:	892a                	mv	s2,a0
  uint64_t now = timer.ticks;
    80201cbc:	00012497          	auipc	s1,0x12
    80201cc0:	40448493          	addi	s1,s1,1028 # 802140c0 <timer>
    80201cc4:	0004a983          	lw	s3,0(s1)
  timer.spinLock.lock();
    80201cc8:	00012517          	auipc	a0,0x12
    80201ccc:	40050513          	addi	a0,a0,1024 # 802140c8 <timer+0x8>
    80201cd0:	fffff097          	auipc	ra,0xfffff
    80201cd4:	17c080e7          	jalr	380(ra) # 80200e4c <_ZN8SpinLock4lockEv>
  for (; timer.ticks - now < sleep_ticks;) {
    80201cd8:	409c                	lw	a5,0(s1)
    80201cda:	413787b3          	sub	a5,a5,s3
    80201cde:	0327f163          	bgeu	a5,s2,80201d00 <_Z9sleepTimem+0x56>
    sleep(&timer.ticks, &timer.spinLock);
    80201ce2:	00012a17          	auipc	s4,0x12
    80201ce6:	3e6a0a13          	addi	s4,s4,998 # 802140c8 <timer+0x8>
    80201cea:	85d2                	mv	a1,s4
    80201cec:	8526                	mv	a0,s1
    80201cee:	00000097          	auipc	ra,0x0
    80201cf2:	f3e080e7          	jalr	-194(ra) # 80201c2c <_Z5sleepPvP8SpinLock>
  for (; timer.ticks - now < sleep_ticks;) {
    80201cf6:	409c                	lw	a5,0(s1)
    80201cf8:	413787b3          	sub	a5,a5,s3
    80201cfc:	ff27e7e3          	bltu	a5,s2,80201cea <_Z9sleepTimem+0x40>
  }
  timer.spinLock.unlock();
    80201d00:	00012517          	auipc	a0,0x12
    80201d04:	3c850513          	addi	a0,a0,968 # 802140c8 <timer+0x8>
    80201d08:	fffff097          	auipc	ra,0xfffff
    80201d0c:	1c0080e7          	jalr	448(ra) # 80200ec8 <_ZN8SpinLock6unlockEv>
}
    80201d10:	70a2                	ld	ra,40(sp)
    80201d12:	7402                	ld	s0,32(sp)
    80201d14:	64e2                	ld	s1,24(sp)
    80201d16:	6942                	ld	s2,16(sp)
    80201d18:	69a2                	ld	s3,8(sp)
    80201d1a:	6a02                	ld	s4,0(sp)
    80201d1c:	6145                	addi	sp,sp,48
    80201d1e:	8082                	ret

0000000080201d20 <_Z6wakeupPv>:

// 唤醒指定chan上的进程
void wakeup(void *chan) {
    80201d20:	1141                	addi	sp,sp,-16
    80201d22:	e422                	sd	s0,8(sp)
    80201d24:	0800                	addi	s0,sp,16
  Task *task;
  for (task = taskTable; task < &taskTable[NTASK]; task++) {
    80201d26:	00087797          	auipc	a5,0x87
    80201d2a:	2da78793          	addi	a5,a5,730 # 80289000 <taskTable>
    // task->lock.lock();
    if (task->state == SLEEPING && task->chan == chan) {
    80201d2e:	4605                	li	a2,1
      task->state = RUNNABLE;
    80201d30:	4589                	li	a1,2
  for (task = taskTable; task < &taskTable[NTASK]; task++) {
    80201d32:	0008c697          	auipc	a3,0x8c
    80201d36:	91e68693          	addi	a3,a3,-1762 # 8028d650 <initTask>
    80201d3a:	a031                	j	80201d46 <_Z6wakeupPv+0x26>
      task->state = RUNNABLE;
    80201d3c:	cf8c                	sw	a1,24(a5)
  for (task = taskTable; task < &taskTable[NTASK]; task++) {
    80201d3e:	16878793          	addi	a5,a5,360
    80201d42:	00d78963          	beq	a5,a3,80201d54 <_Z6wakeupPv+0x34>
    if (task->state == SLEEPING && task->chan == chan) {
    80201d46:	4f98                	lw	a4,24(a5)
    80201d48:	fec71be3          	bne	a4,a2,80201d3e <_Z6wakeupPv+0x1e>
    80201d4c:	7798                	ld	a4,40(a5)
    80201d4e:	fea718e3          	bne	a4,a0,80201d3e <_Z6wakeupPv+0x1e>
    80201d52:	b7ed                	j	80201d3c <_Z6wakeupPv+0x1c>
    }
    // task->lock.unlock();
  }
}
    80201d54:	6422                	ld	s0,8(sp)
    80201d56:	0141                	addi	sp,sp,16
    80201d58:	8082                	ret

0000000080201d5a <_Z9schedulerv>:
void scheduler() {
    80201d5a:	7159                	addi	sp,sp,-112
    80201d5c:	f486                	sd	ra,104(sp)
    80201d5e:	f0a2                	sd	s0,96(sp)
    80201d60:	eca6                	sd	s1,88(sp)
    80201d62:	e8ca                	sd	s2,80(sp)
    80201d64:	e4ce                	sd	s3,72(sp)
    80201d66:	e0d2                	sd	s4,64(sp)
    80201d68:	fc56                	sd	s5,56(sp)
    80201d6a:	f85a                	sd	s6,48(sp)
    80201d6c:	f45e                	sd	s7,40(sp)
    80201d6e:	f062                	sd	s8,32(sp)
    80201d70:	ec66                	sd	s9,24(sp)
    80201d72:	e86a                	sd	s10,16(sp)
    80201d74:	e46e                	sd	s11,8(sp)
    80201d76:	1880                	addi	s0,sp,112
  Cpu *c = Cpu::mycpu();
    80201d78:	fffff097          	auipc	ra,0xfffff
    80201d7c:	1f0080e7          	jalr	496(ra) # 80200f68 <_ZN3Cpu5mycpuEv>
    80201d80:	8baa                	mv	s7,a0
  c->task = 0;
    80201d82:	00053023          	sd	zero,0(a0)
    80201d86:	0008c997          	auipc	s3,0x8c
    80201d8a:	8ca98993          	addi	s3,s3,-1846 # 8028d650 <initTask>
        wakeup(initTask);
    80201d8e:	0008cd17          	auipc	s10,0x8c
    80201d92:	8c2d0d13          	addi	s10,s10,-1854 # 8028d650 <initTask>
      if (task->state == RUNNABLE) {
    80201d96:	4a89                	li	s5,2
    alive = 0;
    80201d98:	4d81                	li	s11,0
        pswitch(&c->context, &task->context);
    80201d9a:	00850c93          	addi	s9,a0,8
    80201d9e:	a08d                	j	80201e00 <_Z9schedulerv+0xa6>
      task->lock.unlock();
    80201da0:	854a                	mv	a0,s2
    80201da2:	fffff097          	auipc	ra,0xfffff
    80201da6:	126080e7          	jalr	294(ra) # 80200ec8 <_ZN8SpinLock6unlockEv>
    for (int i = 0; i < NTASK; i++) {
    80201daa:	16848493          	addi	s1,s1,360
    80201dae:	03348f63          	beq	s1,s3,80201dec <_Z9schedulerv+0x92>
      task = &taskTable[i];
    80201db2:	8926                	mv	s2,s1
      task->lock.lock();
    80201db4:	8526                	mv	a0,s1
    80201db6:	fffff097          	auipc	ra,0xfffff
    80201dba:	096080e7          	jalr	150(ra) # 80200e4c <_ZN8SpinLock4lockEv>
      if (task->state != UNUSED && task->state != ZOMBIE) {
    80201dbe:	4c9c                	lw	a5,24(s1)
    80201dc0:	d3e5                	beqz	a5,80201da0 <_Z9schedulerv+0x46>
    80201dc2:	05678d63          	beq	a5,s6,80201e1c <_Z9schedulerv+0xc2>
        alive++;
    80201dc6:	2a05                	addiw	s4,s4,1
      if (task->state == RUNNABLE) {
    80201dc8:	01892783          	lw	a5,24(s2)
    80201dcc:	fd579ae3          	bne	a5,s5,80201da0 <_Z9schedulerv+0x46>
        task->state = RUNNING;
    80201dd0:	01892c23          	sw	s8,24(s2)
        c->task = task;
    80201dd4:	012bb023          	sd	s2,0(s7)
        pswitch(&c->context, &task->context);
    80201dd8:	0e048593          	addi	a1,s1,224
    80201ddc:	8566                	mv	a0,s9
    80201dde:	00001097          	auipc	ra,0x1
    80201de2:	876080e7          	jalr	-1930(ra) # 80202654 <pswitch>
        c->task = 0;
    80201de6:	000bb023          	sd	zero,0(s7)
    80201dea:	bf5d                	j	80201da0 <_Z9schedulerv+0x46>
    if (alive <= 2) {
    80201dec:	014aca63          	blt	s5,s4,80201e00 <_Z9schedulerv+0xa6>
  asm volatile("csrr %0, sstatus" : "=r" (x) );
    80201df0:	100027f3          	csrr	a5,sstatus
  w_sstatus(r_sstatus() | SSTATUS_SIE);
    80201df4:	0027e793          	ori	a5,a5,2
  asm volatile("csrw sstatus, %0" : : "r" (x));
    80201df8:	10079073          	csrw	sstatus,a5
      asm volatile("wfi");
    80201dfc:	10500073          	wfi
  asm volatile("csrr %0, sstatus" : "=r" (x) );
    80201e00:	100027f3          	csrr	a5,sstatus
  w_sstatus(r_sstatus() | SSTATUS_SIE);
    80201e04:	0027e793          	ori	a5,a5,2
  asm volatile("csrw sstatus, %0" : : "r" (x));
    80201e08:	10079073          	csrw	sstatus,a5
    for (int i = 0; i < NTASK; i++) {
    80201e0c:	00087497          	auipc	s1,0x87
    80201e10:	1f448493          	addi	s1,s1,500 # 80289000 <taskTable>
    alive = 0;
    80201e14:	8a6e                	mv	s4,s11
      if (task->state != UNUSED && task->state != ZOMBIE) {
    80201e16:	4b11                	li	s6,4
        task->state = RUNNING;
    80201e18:	4c0d                	li	s8,3
    80201e1a:	bf61                	j	80201db2 <_Z9schedulerv+0x58>
        wakeup(initTask);
    80201e1c:	000d3503          	ld	a0,0(s10)
    80201e20:	00000097          	auipc	ra,0x0
    80201e24:	f00080e7          	jalr	-256(ra) # 80201d20 <_Z6wakeupPv>
    80201e28:	b745                	j	80201dc8 <_Z9schedulerv+0x6e>

0000000080201e2a <_Z4forkv>:

int fork() {
    80201e2a:	7179                	addi	sp,sp,-48
    80201e2c:	f406                	sd	ra,40(sp)
    80201e2e:	f022                	sd	s0,32(sp)
    80201e30:	ec26                	sd	s1,24(sp)
    80201e32:	e84a                	sd	s2,16(sp)
    80201e34:	e44e                	sd	s3,8(sp)
    80201e36:	e052                	sd	s4,0(sp)
    80201e38:	1800                	addi	s0,sp,48
  Task *child;
  Task *task = myTask();
    80201e3a:	00000097          	auipc	ra,0x0
    80201e3e:	bd2080e7          	jalr	-1070(ra) # 80201a0c <_Z6myTaskv>
    80201e42:	892a                	mv	s2,a0
  // 分配一个新的进程
  if ((child = allocTask()) == 0) {
    80201e44:	00000097          	auipc	ra,0x0
    80201e48:	a8c080e7          	jalr	-1396(ra) # 802018d0 <_Z9allocTaskv>
    80201e4c:	c961                	beqz	a0,80201f1c <_Z4forkv+0xf2>
    80201e4e:	89aa                	mv	s3,a0
    return -1;
  }

  // 将父进程的内存复制到子进程中
  if (user_vm_copy(task->pagetable, child->pagetable, task->sz) < 0) {
    80201e50:	16092603          	lw	a2,352(s2)
    80201e54:	652c                	ld	a1,72(a0)
    80201e56:	04893503          	ld	a0,72(s2)
    80201e5a:	00005097          	auipc	ra,0x5
    80201e5e:	4fe080e7          	jalr	1278(ra) # 80207358 <_Z12user_vm_copyPmS_i>
    80201e62:	0a054f63          	bltz	a0,80201f20 <_Z4forkv+0xf6>
    return -1;
  }
  child->sz = task->sz;
    80201e66:	16092783          	lw	a5,352(s2)
    80201e6a:	16f9a023          	sw	a5,352(s3)
  child->parent = task;
    80201e6e:	0329b023          	sd	s2,32(s3)

  // 复制父进程的用户空间的寄存器
  *(child->trapframe) = *(task->trapframe);
    80201e72:	04093683          	ld	a3,64(s2)
    80201e76:	87b6                	mv	a5,a3
    80201e78:	0409b703          	ld	a4,64(s3)
    80201e7c:	12068693          	addi	a3,a3,288
    80201e80:	0007b803          	ld	a6,0(a5)
    80201e84:	6788                	ld	a0,8(a5)
    80201e86:	6b8c                	ld	a1,16(a5)
    80201e88:	6f90                	ld	a2,24(a5)
    80201e8a:	01073023          	sd	a6,0(a4)
    80201e8e:	e708                	sd	a0,8(a4)
    80201e90:	eb0c                	sd	a1,16(a4)
    80201e92:	ef10                	sd	a2,24(a4)
    80201e94:	02078793          	addi	a5,a5,32
    80201e98:	02070713          	addi	a4,a4,32
    80201e9c:	fed792e3          	bne	a5,a3,80201e80 <_Z4forkv+0x56>
  // memmove(child->trapframe, task->trapframe, sizeof(struct trapframe));
  // 设置子进程fork的返回值为0
  child->trapframe->a0 = 0;
    80201ea0:	0409b783          	ld	a5,64(s3)
    80201ea4:	0607b823          	sd	zero,112(a5)
    80201ea8:	05000493          	li	s1,80

  for (int i = 0; i < NOFILE; i++) {
    80201eac:	09000a13          	li	s4,144
    80201eb0:	a819                	j	80201ec6 <_Z4forkv+0x9c>
    if (task->openFiles[i] != 0) {
      child->openFiles[i] = vfs::dup(task->openFiles[i]);
    80201eb2:	00005097          	auipc	ra,0x5
    80201eb6:	8dc080e7          	jalr	-1828(ra) # 8020678e <_ZN3vfs3dupEP4file>
    80201eba:	009987b3          	add	a5,s3,s1
    80201ebe:	e388                	sd	a0,0(a5)
  for (int i = 0; i < NOFILE; i++) {
    80201ec0:	04a1                	addi	s1,s1,8
    80201ec2:	01448763          	beq	s1,s4,80201ed0 <_Z4forkv+0xa6>
    if (task->openFiles[i] != 0) {
    80201ec6:	009907b3          	add	a5,s2,s1
    80201eca:	6388                	ld	a0,0(a5)
    80201ecc:	f17d                	bnez	a0,80201eb2 <_Z4forkv+0x88>
    80201ece:	bfcd                	j	80201ec0 <_Z4forkv+0x96>
    }
  }
  safestrcpy(child->currentDir, task->currentDir, strlen(task->currentDir) + 1);
    80201ed0:	09090493          	addi	s1,s2,144
    80201ed4:	8526                	mv	a0,s1
    80201ed6:	fffff097          	auipc	ra,0xfffff
    80201eda:	e76080e7          	jalr	-394(ra) # 80200d4c <_Z6strlenPKc>
    80201ede:	0015061b          	addiw	a2,a0,1
    80201ee2:	85a6                	mv	a1,s1
    80201ee4:	09098513          	addi	a0,s3,144
    80201ee8:	fffff097          	auipc	ra,0xfffff
    80201eec:	e30080e7          	jalr	-464(ra) # 80200d18 <_Z10safestrcpyPcPKci>

  safestrcpy(child->name, task->name, sizeof(task->name) + 1);
    80201ef0:	4645                	li	a2,17
    80201ef2:	15090593          	addi	a1,s2,336
    80201ef6:	15098513          	addi	a0,s3,336
    80201efa:	fffff097          	auipc	ra,0xfffff
    80201efe:	e1e080e7          	jalr	-482(ra) # 80200d18 <_Z10safestrcpyPcPKci>

  child->state = RUNNABLE;
    80201f02:	4789                	li	a5,2
    80201f04:	00f9ac23          	sw	a5,24(s3)
  return child->pid;
    80201f08:	0389a503          	lw	a0,56(s3)
}
    80201f0c:	70a2                	ld	ra,40(sp)
    80201f0e:	7402                	ld	s0,32(sp)
    80201f10:	64e2                	ld	s1,24(sp)
    80201f12:	6942                	ld	s2,16(sp)
    80201f14:	69a2                	ld	s3,8(sp)
    80201f16:	6a02                	ld	s4,0(sp)
    80201f18:	6145                	addi	sp,sp,48
    80201f1a:	8082                	ret
    return -1;
    80201f1c:	557d                	li	a0,-1
    80201f1e:	b7fd                	j	80201f0c <_Z4forkv+0xe2>
    return -1;
    80201f20:	557d                	li	a0,-1
    80201f22:	b7ed                	j	80201f0c <_Z4forkv+0xe2>

0000000080201f24 <_Z4waitm>:
/**
 * 等待子进程退出, 返回其子进程id
 * 没有子进程返回-1， 将退出状态复
 * 制到status中。
 */
int wait(uint64_t vaddr) {
    80201f24:	715d                	addi	sp,sp,-80
    80201f26:	e486                	sd	ra,72(sp)
    80201f28:	e0a2                	sd	s0,64(sp)
    80201f2a:	fc26                	sd	s1,56(sp)
    80201f2c:	f84a                	sd	s2,48(sp)
    80201f2e:	f44e                	sd	s3,40(sp)
    80201f30:	f052                	sd	s4,32(sp)
    80201f32:	ec56                	sd	s5,24(sp)
    80201f34:	e85a                	sd	s6,16(sp)
    80201f36:	e45e                	sd	s7,8(sp)
    80201f38:	0880                	addi	s0,sp,80
    80201f3a:	8b2a                	mv	s6,a0
  Task *child;  // 子进程
  Task *task;
  int pid;
  bool havechild;
  task = myTask();
    80201f3c:	00000097          	auipc	ra,0x0
    80201f40:	ad0080e7          	jalr	-1328(ra) # 80201a0c <_Z6myTaskv>
    80201f44:	892a                	mv	s2,a0
  task->lock.lock();
    80201f46:	fffff097          	auipc	ra,0xfffff
    80201f4a:	f06080e7          	jalr	-250(ra) # 80200e4c <_ZN8SpinLock4lockEv>
  for (;;) {
    havechild = 0;
    80201f4e:	4b81                	li	s7,0
    for (child = taskTable; child < &taskTable[NTASK]; child++) {
      if (child->parent == task) {
        child->lock.lock();
        havechild = true;
        if (child->state == ZOMBIE) {
    80201f50:	4a11                	li	s4,4
    for (child = taskTable; child < &taskTable[NTASK]; child++) {
    80201f52:	0008b997          	auipc	s3,0x8b
    80201f56:	6fe98993          	addi	s3,s3,1790 # 8028d650 <initTask>
        havechild = true;
    80201f5a:	4a85                	li	s5,1
    havechild = 0;
    80201f5c:	875e                	mv	a4,s7
    for (child = taskTable; child < &taskTable[NTASK]; child++) {
    80201f5e:	00087497          	auipc	s1,0x87
    80201f62:	0a248493          	addi	s1,s1,162 # 80289000 <taskTable>
    80201f66:	a0c5                	j	80202046 <_Z4waitm+0x122>
          pid = child->pid;
    80201f68:	0384a983          	lw	s3,56(s1)
          if (vaddr != 0 && copyout(task->pagetable, vaddr, (char *)&child->xstate, sizeof(child->xstate)) < 0) {
    80201f6c:	000b0e63          	beqz	s6,80201f88 <_Z4waitm+0x64>
    80201f70:	4691                	li	a3,4
    80201f72:	03448613          	addi	a2,s1,52
    80201f76:	85da                	mv	a1,s6
    80201f78:	04893503          	ld	a0,72(s2)
    80201f7c:	00005097          	auipc	ra,0x5
    80201f80:	344080e7          	jalr	836(ra) # 802072c0 <_Z7copyoutPmmPci>
    80201f84:	0a054163          	bltz	a0,80202026 <_Z4waitm+0x102>
    80201f88:	00008717          	auipc	a4,0x8
    80201f8c:	6c870713          	addi	a4,a4,1736 # 8020a650 <_ZL6digits+0x348>
    80201f90:	17d00693          	li	a3,381
    80201f94:	00008617          	auipc	a2,0x8
    80201f98:	63c60613          	addi	a2,a2,1596 # 8020a5d0 <_ZL6digits+0x2c8>
    80201f9c:	00008597          	auipc	a1,0x8
    80201fa0:	1dc58593          	addi	a1,a1,476 # 8020a178 <rodata_start+0x178>
    80201fa4:	00008517          	auipc	a0,0x8
    80201fa8:	1dc50513          	addi	a0,a0,476 # 8020a180 <rodata_start+0x180>
    80201fac:	fffff097          	auipc	ra,0xfffff
    80201fb0:	8a8080e7          	jalr	-1880(ra) # 80200854 <_Z6printfPKcz>
            child->lock.unlock();
            task->lock.unlock();
            return -1;
          }
          LOG_DEBUG("child pid=%d xstate=%d", child->pid, child->xstate);
    80201fb4:	58d0                	lw	a2,52(s1)
    80201fb6:	5c8c                	lw	a1,56(s1)
    80201fb8:	00008517          	auipc	a0,0x8
    80201fbc:	6a050513          	addi	a0,a0,1696 # 8020a658 <_ZL6digits+0x350>
    80201fc0:	fffff097          	auipc	ra,0xfffff
    80201fc4:	894080e7          	jalr	-1900(ra) # 80200854 <_Z6printfPKcz>
    80201fc8:	00008517          	auipc	a0,0x8
    80201fcc:	0d850513          	addi	a0,a0,216 # 8020a0a0 <rodata_start+0xa0>
    80201fd0:	fffff097          	auipc	ra,0xfffff
    80201fd4:	884080e7          	jalr	-1916(ra) # 80200854 <_Z6printfPKcz>
  if (task->trapframe) memAllocator.free(task->trapframe);
    80201fd8:	60ac                	ld	a1,64(s1)
    80201fda:	c989                	beqz	a1,80201fec <_Z4waitm+0xc8>
    80201fdc:	00012517          	auipc	a0,0x12
    80201fe0:	0c450513          	addi	a0,a0,196 # 802140a0 <memAllocator>
    80201fe4:	00005097          	auipc	ra,0x5
    80201fe8:	5ac080e7          	jalr	1452(ra) # 80207590 <_ZN12MemAllocator4freeEPv>
  task->trapframe = 0;
    80201fec:	0404b023          	sd	zero,64(s1)
  task->pagetable = 0;
    80201ff0:	0404b423          	sd	zero,72(s1)
  task->sz = 0;
    80201ff4:	1604a023          	sw	zero,352(s1)
  task->name[0] = 0;
    80201ff8:	14048823          	sb	zero,336(s1)
  task->chan = 0;
    80201ffc:	0204b423          	sd	zero,40(s1)
  task->killed = 0;
    80202000:	0204a823          	sw	zero,48(s1)
  task->xstate = 0;
    80202004:	0204aa23          	sw	zero,52(s1)
  task->state = UNUSED;
    80202008:	0004ac23          	sw	zero,24(s1)
  task->parent = 0;
    8020200c:	0204b023          	sd	zero,32(s1)
          freeTask(child);
          child->lock.unlock();
    80202010:	8526                	mv	a0,s1
    80202012:	fffff097          	auipc	ra,0xfffff
    80202016:	eb6080e7          	jalr	-330(ra) # 80200ec8 <_ZN8SpinLock6unlockEv>
          task->lock.unlock();
    8020201a:	854a                	mv	a0,s2
    8020201c:	fffff097          	auipc	ra,0xfffff
    80202020:	eac080e7          	jalr	-340(ra) # 80200ec8 <_ZN8SpinLock6unlockEv>
          return pid;
    80202024:	a0a9                	j	8020206e <_Z4waitm+0x14a>
            child->lock.unlock();
    80202026:	8526                	mv	a0,s1
    80202028:	fffff097          	auipc	ra,0xfffff
    8020202c:	ea0080e7          	jalr	-352(ra) # 80200ec8 <_ZN8SpinLock6unlockEv>
            task->lock.unlock();
    80202030:	854a                	mv	a0,s2
    80202032:	fffff097          	auipc	ra,0xfffff
    80202036:	e96080e7          	jalr	-362(ra) # 80200ec8 <_ZN8SpinLock6unlockEv>
            return -1;
    8020203a:	59fd                	li	s3,-1
    8020203c:	a80d                	j	8020206e <_Z4waitm+0x14a>
    for (child = taskTable; child < &taskTable[NTASK]; child++) {
    8020203e:	16848493          	addi	s1,s1,360
    80202042:	03348463          	beq	s1,s3,8020206a <_Z4waitm+0x146>
      if (child->parent == task) {
    80202046:	709c                	ld	a5,32(s1)
    80202048:	ff279be3          	bne	a5,s2,8020203e <_Z4waitm+0x11a>
        child->lock.lock();
    8020204c:	8526                	mv	a0,s1
    8020204e:	fffff097          	auipc	ra,0xfffff
    80202052:	dfe080e7          	jalr	-514(ra) # 80200e4c <_ZN8SpinLock4lockEv>
        if (child->state == ZOMBIE) {
    80202056:	4c9c                	lw	a5,24(s1)
    80202058:	f14788e3          	beq	a5,s4,80201f68 <_Z4waitm+0x44>
        }
        child->lock.unlock();
    8020205c:	8526                	mv	a0,s1
    8020205e:	fffff097          	auipc	ra,0xfffff
    80202062:	e6a080e7          	jalr	-406(ra) # 80200ec8 <_ZN8SpinLock6unlockEv>
        havechild = true;
    80202066:	8756                	mv	a4,s5
    80202068:	bfd9                	j	8020203e <_Z4waitm+0x11a>
      }
    }
    if (!havechild) {
    8020206a:	ef11                	bnez	a4,80202086 <_Z4waitm+0x162>
      return -1;
    8020206c:	59fd                	li	s3,-1
    }
    sleep(task, &myTask()->lock);  // 等待子进程唤醒
  }
}
    8020206e:	854e                	mv	a0,s3
    80202070:	60a6                	ld	ra,72(sp)
    80202072:	6406                	ld	s0,64(sp)
    80202074:	74e2                	ld	s1,56(sp)
    80202076:	7942                	ld	s2,48(sp)
    80202078:	79a2                	ld	s3,40(sp)
    8020207a:	7a02                	ld	s4,32(sp)
    8020207c:	6ae2                	ld	s5,24(sp)
    8020207e:	6b42                	ld	s6,16(sp)
    80202080:	6ba2                	ld	s7,8(sp)
    80202082:	6161                	addi	sp,sp,80
    80202084:	8082                	ret
    sleep(task, &myTask()->lock);  // 等待子进程唤醒
    80202086:	00000097          	auipc	ra,0x0
    8020208a:	986080e7          	jalr	-1658(ra) # 80201a0c <_Z6myTaskv>
    8020208e:	85aa                	mv	a1,a0
    80202090:	854a                	mv	a0,s2
    80202092:	00000097          	auipc	ra,0x0
    80202096:	b9a080e7          	jalr	-1126(ra) # 80201c2c <_Z5sleepPvP8SpinLock>
  }
    8020209a:	b5c9                	j	80201f5c <_Z4waitm+0x38>

000000008020209c <_Z5wait4im>:
 * @param pid 子进程id
 * @param vaddr status地址
 * @return int
 */
int wait4(int pid, uint64_t vaddr) {
  if (pid >= NTASK) {
    8020209c:	03100793          	li	a5,49
    802020a0:	16a7ca63          	blt	a5,a0,80202214 <_Z5wait4im+0x178>
int wait4(int pid, uint64_t vaddr) {
    802020a4:	715d                	addi	sp,sp,-80
    802020a6:	e486                	sd	ra,72(sp)
    802020a8:	e0a2                	sd	s0,64(sp)
    802020aa:	fc26                	sd	s1,56(sp)
    802020ac:	f84a                	sd	s2,48(sp)
    802020ae:	f44e                	sd	s3,40(sp)
    802020b0:	f052                	sd	s4,32(sp)
    802020b2:	ec56                	sd	s5,24(sp)
    802020b4:	e85a                	sd	s6,16(sp)
    802020b6:	e45e                	sd	s7,8(sp)
    802020b8:	0880                	addi	s0,sp,80
    802020ba:	8a2a                	mv	s4,a0
    802020bc:	8b2e                	mv	s6,a1
    return -1;
  }

  Task *task = myTask();
    802020be:	00000097          	auipc	ra,0x0
    802020c2:	94e080e7          	jalr	-1714(ra) # 80201a0c <_Z6myTaskv>
    802020c6:	892a                	mv	s2,a0
  Task *child = &taskTable[pid];
    802020c8:	16800b93          	li	s7,360
    802020cc:	037a0bb3          	mul	s7,s4,s7
    802020d0:	00087497          	auipc	s1,0x87
    802020d4:	f3048493          	addi	s1,s1,-208 # 80289000 <taskTable>
    802020d8:	94de                	add	s1,s1,s7
  child->lock.lock();
    802020da:	8526                	mv	a0,s1
    802020dc:	fffff097          	auipc	ra,0xfffff
    802020e0:	d70080e7          	jalr	-656(ra) # 80200e4c <_ZN8SpinLock4lockEv>
  if (child->parent != task) {
    802020e4:	709c                	ld	a5,32(s1)
    802020e6:	05279f63          	bne	a5,s2,80202144 <_Z5wait4im+0xa8>
    child->lock.unlock();
    return -1;
  }
  child->lock.unlock();
    802020ea:	8526                	mv	a0,s1
    802020ec:	fffff097          	auipc	ra,0xfffff
    802020f0:	ddc080e7          	jalr	-548(ra) # 80200ec8 <_ZN8SpinLock6unlockEv>
  task->lock.lock();
    802020f4:	854a                	mv	a0,s2
    802020f6:	fffff097          	auipc	ra,0xfffff
    802020fa:	d56080e7          	jalr	-682(ra) # 80200e4c <_ZN8SpinLock4lockEv>
  while (true) {
    child->lock.lock();
    if (child->state == ZOMBIE) {
    802020fe:	16800993          	li	s3,360
    80202102:	033a07b3          	mul	a5,s4,s3
    80202106:	00087997          	auipc	s3,0x87
    8020210a:	efa98993          	addi	s3,s3,-262 # 80289000 <taskTable>
    8020210e:	99be                	add	s3,s3,a5
    80202110:	4a91                	li	s5,4
    child->lock.lock();
    80202112:	8526                	mv	a0,s1
    80202114:	fffff097          	auipc	ra,0xfffff
    80202118:	d38080e7          	jalr	-712(ra) # 80200e4c <_ZN8SpinLock4lockEv>
    if (child->state == ZOMBIE) {
    8020211c:	0189a783          	lw	a5,24(s3)
    80202120:	03578963          	beq	a5,s5,80202152 <_Z5wait4im+0xb6>
      freeTask(child);
      child->lock.unlock();
      task->lock.unlock();
      return pid;
    }
    child->lock.unlock();
    80202124:	8526                	mv	a0,s1
    80202126:	fffff097          	auipc	ra,0xfffff
    8020212a:	da2080e7          	jalr	-606(ra) # 80200ec8 <_ZN8SpinLock6unlockEv>
    sleep(task, &myTask()->lock);  // 等待子进程唤醒
    8020212e:	00000097          	auipc	ra,0x0
    80202132:	8de080e7          	jalr	-1826(ra) # 80201a0c <_Z6myTaskv>
    80202136:	85aa                	mv	a1,a0
    80202138:	854a                	mv	a0,s2
    8020213a:	00000097          	auipc	ra,0x0
    8020213e:	af2080e7          	jalr	-1294(ra) # 80201c2c <_Z5sleepPvP8SpinLock>
    child->lock.lock();
    80202142:	bfc1                	j	80202112 <_Z5wait4im+0x76>
    child->lock.unlock();
    80202144:	8526                	mv	a0,s1
    80202146:	fffff097          	auipc	ra,0xfffff
    8020214a:	d82080e7          	jalr	-638(ra) # 80200ec8 <_ZN8SpinLock6unlockEv>
    return -1;
    8020214e:	557d                	li	a0,-1
    80202150:	a859                	j	802021e6 <_Z5wait4im+0x14a>
      if (vaddr != 0 && copyout(task->pagetable, vaddr, (char *)&child->xstate, sizeof(child->xstate)) < 0) {
    80202152:	020b0163          	beqz	s6,80202174 <_Z5wait4im+0xd8>
    80202156:	4691                	li	a3,4
    80202158:	00087617          	auipc	a2,0x87
    8020215c:	edc60613          	addi	a2,a2,-292 # 80289034 <taskTable+0x34>
    80202160:	965e                	add	a2,a2,s7
    80202162:	85da                	mv	a1,s6
    80202164:	04893503          	ld	a0,72(s2)
    80202168:	00005097          	auipc	ra,0x5
    8020216c:	158080e7          	jalr	344(ra) # 802072c0 <_Z7copyoutPmmPci>
    80202170:	08054663          	bltz	a0,802021fc <_Z5wait4im+0x160>
  if (task->trapframe) memAllocator.free(task->trapframe);
    80202174:	16800793          	li	a5,360
    80202178:	02fa0733          	mul	a4,s4,a5
    8020217c:	00087797          	auipc	a5,0x87
    80202180:	e8478793          	addi	a5,a5,-380 # 80289000 <taskTable>
    80202184:	97ba                	add	a5,a5,a4
    80202186:	63ac                	ld	a1,64(a5)
    80202188:	c989                	beqz	a1,8020219a <_Z5wait4im+0xfe>
    8020218a:	00012517          	auipc	a0,0x12
    8020218e:	f1650513          	addi	a0,a0,-234 # 802140a0 <memAllocator>
    80202192:	00005097          	auipc	ra,0x5
    80202196:	3fe080e7          	jalr	1022(ra) # 80207590 <_ZN12MemAllocator4freeEPv>
  task->trapframe = 0;
    8020219a:	16800793          	li	a5,360
    8020219e:	02fa0733          	mul	a4,s4,a5
    802021a2:	00087797          	auipc	a5,0x87
    802021a6:	e5e78793          	addi	a5,a5,-418 # 80289000 <taskTable>
    802021aa:	97ba                	add	a5,a5,a4
    802021ac:	0407b023          	sd	zero,64(a5)
  task->pagetable = 0;
    802021b0:	0407b423          	sd	zero,72(a5)
  task->sz = 0;
    802021b4:	1607a023          	sw	zero,352(a5)
  task->name[0] = 0;
    802021b8:	14078823          	sb	zero,336(a5)
  task->chan = 0;
    802021bc:	0207b423          	sd	zero,40(a5)
  task->killed = 0;
    802021c0:	0207a823          	sw	zero,48(a5)
  task->xstate = 0;
    802021c4:	0207aa23          	sw	zero,52(a5)
  task->state = UNUSED;
    802021c8:	0007ac23          	sw	zero,24(a5)
  task->parent = 0;
    802021cc:	0207b023          	sd	zero,32(a5)
      child->lock.unlock();
    802021d0:	8526                	mv	a0,s1
    802021d2:	fffff097          	auipc	ra,0xfffff
    802021d6:	cf6080e7          	jalr	-778(ra) # 80200ec8 <_ZN8SpinLock6unlockEv>
      task->lock.unlock();
    802021da:	854a                	mv	a0,s2
    802021dc:	fffff097          	auipc	ra,0xfffff
    802021e0:	cec080e7          	jalr	-788(ra) # 80200ec8 <_ZN8SpinLock6unlockEv>
      return pid;
    802021e4:	8552                	mv	a0,s4
  }
}
    802021e6:	60a6                	ld	ra,72(sp)
    802021e8:	6406                	ld	s0,64(sp)
    802021ea:	74e2                	ld	s1,56(sp)
    802021ec:	7942                	ld	s2,48(sp)
    802021ee:	79a2                	ld	s3,40(sp)
    802021f0:	7a02                	ld	s4,32(sp)
    802021f2:	6ae2                	ld	s5,24(sp)
    802021f4:	6b42                	ld	s6,16(sp)
    802021f6:	6ba2                	ld	s7,8(sp)
    802021f8:	6161                	addi	sp,sp,80
    802021fa:	8082                	ret
        child->lock.unlock();
    802021fc:	8526                	mv	a0,s1
    802021fe:	fffff097          	auipc	ra,0xfffff
    80202202:	cca080e7          	jalr	-822(ra) # 80200ec8 <_ZN8SpinLock6unlockEv>
        task->lock.unlock();
    80202206:	854a                	mv	a0,s2
    80202208:	fffff097          	auipc	ra,0xfffff
    8020220c:	cc0080e7          	jalr	-832(ra) # 80200ec8 <_ZN8SpinLock6unlockEv>
        return -1;
    80202210:	557d                	li	a0,-1
    80202212:	bfd1                	j	802021e6 <_Z5wait4im+0x14a>
    return -1;
    80202214:	557d                	li	a0,-1
}
    80202216:	8082                	ret

0000000080202218 <_Z4exiti>:
// 让父进程来设置其state为UNUSED
// 若父进程已经exit, 则会由init进
// 程来完成父进程在exit时，会将其
// 子进程的parent设置为init进程
//
void exit(int status) {
    80202218:	7179                	addi	sp,sp,-48
    8020221a:	f406                	sd	ra,40(sp)
    8020221c:	f022                	sd	s0,32(sp)
    8020221e:	ec26                	sd	s1,24(sp)
    80202220:	e84a                	sd	s2,16(sp)
    80202222:	e44e                	sd	s3,8(sp)
    80202224:	1800                	addi	s0,sp,48
    80202226:	892a                	mv	s2,a0
  Task *task, *child;
  task = myTask();
    80202228:	fffff097          	auipc	ra,0xfffff
    8020222c:	7e4080e7          	jalr	2020(ra) # 80201a0c <_Z6myTaskv>
    80202230:	84aa                	mv	s1,a0
  task->state = ZOMBIE;
    80202232:	4791                	li	a5,4
    80202234:	cd1c                	sw	a5,24(a0)
  task->xstate = status;
    80202236:	03252a23          	sw	s2,52(a0)
    8020223a:	00008717          	auipc	a4,0x8
    8020223e:	43670713          	addi	a4,a4,1078 # 8020a670 <_ZL6digits+0x368>
    80202242:	1c200693          	li	a3,450
    80202246:	00008617          	auipc	a2,0x8
    8020224a:	38a60613          	addi	a2,a2,906 # 8020a5d0 <_ZL6digits+0x2c8>
    8020224e:	00008597          	auipc	a1,0x8
    80202252:	f2a58593          	addi	a1,a1,-214 # 8020a178 <rodata_start+0x178>
    80202256:	00008517          	auipc	a0,0x8
    8020225a:	f2a50513          	addi	a0,a0,-214 # 8020a180 <rodata_start+0x180>
    8020225e:	ffffe097          	auipc	ra,0xffffe
    80202262:	5f6080e7          	jalr	1526(ra) # 80200854 <_Z6printfPKcz>
  LOG_DEBUG("pid=%d xstate=%d", task->pid, task->xstate);
    80202266:	58d0                	lw	a2,52(s1)
    80202268:	5c8c                	lw	a1,56(s1)
    8020226a:	00008517          	auipc	a0,0x8
    8020226e:	40e50513          	addi	a0,a0,1038 # 8020a678 <_ZL6digits+0x370>
    80202272:	ffffe097          	auipc	ra,0xffffe
    80202276:	5e2080e7          	jalr	1506(ra) # 80200854 <_Z6printfPKcz>
    8020227a:	00008517          	auipc	a0,0x8
    8020227e:	e2650513          	addi	a0,a0,-474 # 8020a0a0 <rodata_start+0xa0>
    80202282:	ffffe097          	auipc	ra,0xffffe
    80202286:	5d2080e7          	jalr	1490(ra) # 80200854 <_Z6printfPKcz>
  // 关闭打开的文件
  for (int fd = 0; fd < NOFILE; fd++) {
    8020228a:	05048913          	addi	s2,s1,80
    8020228e:	09048993          	addi	s3,s1,144
    80202292:	a021                	j	8020229a <_Z4exiti+0x82>
    80202294:	0921                	addi	s2,s2,8
    80202296:	01390c63          	beq	s2,s3,802022ae <_Z4exiti+0x96>
    if (task->openFiles[fd] != NULL) {
    8020229a:	00093503          	ld	a0,0(s2)
    8020229e:	d97d                	beqz	a0,80202294 <_Z4exiti+0x7c>
      vfs::close(task->openFiles[fd]);
    802022a0:	00004097          	auipc	ra,0x4
    802022a4:	122080e7          	jalr	290(ra) # 802063c2 <_ZN3vfs5closeEP4file>
      task->openFiles[fd] = 0;
    802022a8:	00093023          	sd	zero,0(s2)
    802022ac:	b7e5                	j	80202294 <_Z4exiti+0x7c>
    }
  }

  // 归还当前目录inode
  // putback_inode(task->current_dir);
  memset(task->currentDir, 0, MAXPATH);
    802022ae:	04000613          	li	a2,64
    802022b2:	4581                	li	a1,0
    802022b4:	09048513          	addi	a0,s1,144
    802022b8:	fffff097          	auipc	ra,0xfffff
    802022bc:	8a4080e7          	jalr	-1884(ra) # 80200b5c <_Z6memsetPvij>
  // 将子进程托付给init进程
  for (child = taskTable; child < &taskTable[NTASK]; child++) {
    if (child->parent == task) {
      child->parent = initTask;
    802022c0:	0008b617          	auipc	a2,0x8b
    802022c4:	39063603          	ld	a2,912(a2) # 8028d650 <initTask>
  for (child = taskTable; child < &taskTable[NTASK]; child++) {
    802022c8:	00087797          	auipc	a5,0x87
    802022cc:	d3878793          	addi	a5,a5,-712 # 80289000 <taskTable>
    802022d0:	0008b697          	auipc	a3,0x8b
    802022d4:	38068693          	addi	a3,a3,896 # 8028d650 <initTask>
    802022d8:	a031                	j	802022e4 <_Z4exiti+0xcc>
      child->parent = initTask;
    802022da:	f390                	sd	a2,32(a5)
  for (child = taskTable; child < &taskTable[NTASK]; child++) {
    802022dc:	16878793          	addi	a5,a5,360
    802022e0:	00d78663          	beq	a5,a3,802022ec <_Z4exiti+0xd4>
    if (child->parent == task) {
    802022e4:	7398                	ld	a4,32(a5)
    802022e6:	fe971be3          	bne	a4,s1,802022dc <_Z4exiti+0xc4>
    802022ea:	bfc5                	j	802022da <_Z4exiti+0xc2>
    }
  }

  wakeup(task->parent);
    802022ec:	7088                	ld	a0,32(s1)
    802022ee:	00000097          	auipc	ra,0x0
    802022f2:	a32080e7          	jalr	-1486(ra) # 80201d20 <_Z6wakeupPv>
  task->lock.lock();
    802022f6:	8526                	mv	a0,s1
    802022f8:	fffff097          	auipc	ra,0xfffff
    802022fc:	b54080e7          	jalr	-1196(ra) # 80200e4c <_ZN8SpinLock4lockEv>
    80202300:	00008717          	auipc	a4,0x8
    80202304:	37070713          	addi	a4,a4,880 # 8020a670 <_ZL6digits+0x368>
    80202308:	1d700693          	li	a3,471
    8020230c:	00008617          	auipc	a2,0x8
    80202310:	2c460613          	addi	a2,a2,708 # 8020a5d0 <_ZL6digits+0x2c8>
    80202314:	00008597          	auipc	a1,0x8
    80202318:	e6458593          	addi	a1,a1,-412 # 8020a178 <rodata_start+0x178>
    8020231c:	00008517          	auipc	a0,0x8
    80202320:	e6450513          	addi	a0,a0,-412 # 8020a180 <rodata_start+0x180>
    80202324:	ffffe097          	auipc	ra,0xffffe
    80202328:	530080e7          	jalr	1328(ra) # 80200854 <_Z6printfPKcz>
  LOG_DEBUG("exited\n");
    8020232c:	00008517          	auipc	a0,0x8
    80202330:	36450513          	addi	a0,a0,868 # 8020a690 <_ZL6digits+0x388>
    80202334:	ffffe097          	auipc	ra,0xffffe
    80202338:	520080e7          	jalr	1312(ra) # 80200854 <_Z6printfPKcz>
    8020233c:	00008517          	auipc	a0,0x8
    80202340:	d6450513          	addi	a0,a0,-668 # 8020a0a0 <rodata_start+0xa0>
    80202344:	ffffe097          	auipc	ra,0xffffe
    80202348:	510080e7          	jalr	1296(ra) # 80200854 <_Z6printfPKcz>
  prepareSched();
    8020234c:	00000097          	auipc	ra,0x0
    80202350:	81c080e7          	jalr	-2020(ra) # 80201b68 <_Z12prepareSchedv>
  panic("exit");
    80202354:	00008517          	auipc	a0,0x8
    80202358:	31c50513          	addi	a0,a0,796 # 8020a670 <_ZL6digits+0x368>
    8020235c:	ffffe097          	auipc	ra,0xffffe
    80202360:	486080e7          	jalr	1158(ra) # 802007e2 <_Z5panicPKc>
}
    80202364:	70a2                	ld	ra,40(sp)
    80202366:	7402                	ld	s0,32(sp)
    80202368:	64e2                	ld	s1,24(sp)
    8020236a:	6942                	ld	s2,16(sp)
    8020236c:	69a2                	ld	s3,8(sp)
    8020236e:	6145                	addi	sp,sp,48
    80202370:	8082                	ret

0000000080202372 <_Z5yieldv>:
// }

//
// 让出cpu
//
void yield() {
    80202372:	1101                	addi	sp,sp,-32
    80202374:	ec06                	sd	ra,24(sp)
    80202376:	e822                	sd	s0,16(sp)
    80202378:	e426                	sd	s1,8(sp)
    8020237a:	1000                	addi	s0,sp,32
  Task *task = myTask();
    8020237c:	fffff097          	auipc	ra,0xfffff
    80202380:	690080e7          	jalr	1680(ra) # 80201a0c <_Z6myTaskv>
    80202384:	84aa                	mv	s1,a0
  task->lock.lock();
    80202386:	fffff097          	auipc	ra,0xfffff
    8020238a:	ac6080e7          	jalr	-1338(ra) # 80200e4c <_ZN8SpinLock4lockEv>
  task->state = RUNNABLE;
    8020238e:	4789                	li	a5,2
    80202390:	cc9c                	sw	a5,24(s1)
  prepareSched();
    80202392:	fffff097          	auipc	ra,0xfffff
    80202396:	7d6080e7          	jalr	2006(ra) # 80201b68 <_Z12prepareSchedv>
  task->lock.unlock();
    8020239a:	8526                	mv	a0,s1
    8020239c:	fffff097          	auipc	ra,0xfffff
    802023a0:	b2c080e7          	jalr	-1236(ra) # 80200ec8 <_ZN8SpinLock6unlockEv>
}
    802023a4:	60e2                	ld	ra,24(sp)
    802023a6:	6442                	ld	s0,16(sp)
    802023a8:	64a2                	ld	s1,8(sp)
    802023aa:	6105                	addi	sp,sp,32
    802023ac:	8082                	ret

00000000802023ae <_Z14either_copyoutbmPvi>:
 *  根据user_dst将源数据复制内核地址或用户地址
 *  @param user_dst dst是否为用户空间地址
 *  @param copy的长度
 * @return 成功返回0，失败返回-1
 */
int either_copyout(bool user_dst, uint64_t dst, void *src, int len) {
    802023ae:	7179                	addi	sp,sp,-48
    802023b0:	f406                	sd	ra,40(sp)
    802023b2:	f022                	sd	s0,32(sp)
    802023b4:	ec26                	sd	s1,24(sp)
    802023b6:	e84a                	sd	s2,16(sp)
    802023b8:	e44e                	sd	s3,8(sp)
    802023ba:	e052                	sd	s4,0(sp)
    802023bc:	1800                	addi	s0,sp,48
    802023be:	8a2a                	mv	s4,a0
    802023c0:	84ae                	mv	s1,a1
    802023c2:	8932                	mv	s2,a2
    802023c4:	89b6                	mv	s3,a3
  Task *task = myTask();
    802023c6:	fffff097          	auipc	ra,0xfffff
    802023ca:	646080e7          	jalr	1606(ra) # 80201a0c <_Z6myTaskv>
  if (user_dst) {
    802023ce:	020a0263          	beqz	s4,802023f2 <_Z14either_copyoutbmPvi+0x44>
    return copyout(task->pagetable, dst, static_cast<char *>(src), len);
    802023d2:	86ce                	mv	a3,s3
    802023d4:	864a                	mv	a2,s2
    802023d6:	85a6                	mv	a1,s1
    802023d8:	6528                	ld	a0,72(a0)
    802023da:	00005097          	auipc	ra,0x5
    802023de:	ee6080e7          	jalr	-282(ra) # 802072c0 <_Z7copyoutPmmPci>
  } else {
    memmove((char *)dst, src, len);
    return 0;
  }
}
    802023e2:	70a2                	ld	ra,40(sp)
    802023e4:	7402                	ld	s0,32(sp)
    802023e6:	64e2                	ld	s1,24(sp)
    802023e8:	6942                	ld	s2,16(sp)
    802023ea:	69a2                	ld	s3,8(sp)
    802023ec:	6a02                	ld	s4,0(sp)
    802023ee:	6145                	addi	sp,sp,48
    802023f0:	8082                	ret
    memmove((char *)dst, src, len);
    802023f2:	864e                	mv	a2,s3
    802023f4:	85ca                	mv	a1,s2
    802023f6:	8526                	mv	a0,s1
    802023f8:	ffffe097          	auipc	ra,0xffffe
    802023fc:	7be080e7          	jalr	1982(ra) # 80200bb6 <_Z7memmovePvPKvj>
    return 0;
    80202400:	4501                	li	a0,0
    80202402:	b7c5                	j	802023e2 <_Z14either_copyoutbmPvi+0x34>

0000000080202404 <_Z13either_copyinbPvmm>:
 *  根据user_dst将数据从内核地址或用户地址copy到dst中
 *  @param user_src dst是否为用户空间地址
 *  @param len copy的长度
 * @return 成功返回0，失败返回-1
 */
int either_copyin(bool user_src, void *dst, uint64_t src, uint64_t len) {
    80202404:	7179                	addi	sp,sp,-48
    80202406:	f406                	sd	ra,40(sp)
    80202408:	f022                	sd	s0,32(sp)
    8020240a:	ec26                	sd	s1,24(sp)
    8020240c:	e84a                	sd	s2,16(sp)
    8020240e:	e44e                	sd	s3,8(sp)
    80202410:	e052                	sd	s4,0(sp)
    80202412:	1800                	addi	s0,sp,48
    80202414:	8a2a                	mv	s4,a0
    80202416:	84ae                	mv	s1,a1
    80202418:	8932                	mv	s2,a2
    8020241a:	89b6                	mv	s3,a3
  Task *task = myTask();
    8020241c:	fffff097          	auipc	ra,0xfffff
    80202420:	5f0080e7          	jalr	1520(ra) # 80201a0c <_Z6myTaskv>
  if (user_src) {
    80202424:	020a0263          	beqz	s4,80202448 <_Z13either_copyinbPvmm+0x44>
    return copyin(task->pagetable, static_cast<char *>(dst), src, len);
    80202428:	86ce                	mv	a3,s3
    8020242a:	864a                	mv	a2,s2
    8020242c:	85a6                	mv	a1,s1
    8020242e:	6528                	ld	a0,72(a0)
    80202430:	00005097          	auipc	ra,0x5
    80202434:	d2e080e7          	jalr	-722(ra) # 8020715e <_Z6copyinPmPcmm>
  } else {
    memmove(dst, (char *)src, len);
    return 0;
  }
}
    80202438:	70a2                	ld	ra,40(sp)
    8020243a:	7402                	ld	s0,32(sp)
    8020243c:	64e2                	ld	s1,24(sp)
    8020243e:	6942                	ld	s2,16(sp)
    80202440:	69a2                	ld	s3,8(sp)
    80202442:	6a02                	ld	s4,0(sp)
    80202444:	6145                	addi	sp,sp,48
    80202446:	8082                	ret
    memmove(dst, (char *)src, len);
    80202448:	0009861b          	sext.w	a2,s3
    8020244c:	85ca                	mv	a1,s2
    8020244e:	8526                	mv	a0,s1
    80202450:	ffffe097          	auipc	ra,0xffffe
    80202454:	766080e7          	jalr	1894(ra) # 80200bb6 <_Z7memmovePvPKvj>
    return 0;
    80202458:	4501                	li	a0,0
    8020245a:	bff9                	j	80202438 <_Z13either_copyinbPvmm+0x34>

000000008020245c <_Z18registerFileHandleP4filei>:
 * @brief 将fp添加到进程的打开文件列表中
 *
 * @param fp 需要添加的文件指针
 * @return 成功返回文件描述符，失败返回-1
 */
int registerFileHandle(struct file *fp, int fd) {
    8020245c:	7179                	addi	sp,sp,-48
    8020245e:	f406                	sd	ra,40(sp)
    80202460:	f022                	sd	s0,32(sp)
    80202462:	ec26                	sd	s1,24(sp)
    80202464:	e84a                	sd	s2,16(sp)
    80202466:	e44e                	sd	s3,8(sp)
    80202468:	e052                	sd	s4,0(sp)
    8020246a:	1800                	addi	s0,sp,48
  if (fd > NFILE) {
    8020246c:	06400793          	li	a5,100
    80202470:	08b7c363          	blt	a5,a1,802024f6 <_Z18registerFileHandleP4filei+0x9a>
    80202474:	8a2a                	mv	s4,a0
    80202476:	892e                	mv	s2,a1
    return -1;
  }
  Task *task = myTask();
    80202478:	fffff097          	auipc	ra,0xfffff
    8020247c:	594080e7          	jalr	1428(ra) # 80201a0c <_Z6myTaskv>
    80202480:	89aa                	mv	s3,a0
  task->lock.lock();
    80202482:	fffff097          	auipc	ra,0xfffff
    80202486:	9ca080e7          	jalr	-1590(ra) # 80200e4c <_ZN8SpinLock4lockEv>
  if (fd < 0) {
    8020248a:	02094763          	bltz	s2,802024b8 <_Z18registerFileHandleP4filei+0x5c>
        return i;
      }
    }
    panic("register file handle");
  }
  if (task->openFiles[fd] != NULL) {
    8020248e:	00a90793          	addi	a5,s2,10
    80202492:	078e                	slli	a5,a5,0x3
    80202494:	97ce                	add	a5,a5,s3
    80202496:	639c                	ld	a5,0(a5)
    80202498:	c3ad                	beqz	a5,802024fa <_Z18registerFileHandleP4filei+0x9e>
    task->lock.unlock();
    8020249a:	854e                	mv	a0,s3
    8020249c:	fffff097          	auipc	ra,0xfffff
    802024a0:	a2c080e7          	jalr	-1492(ra) # 80200ec8 <_ZN8SpinLock6unlockEv>
    return fd;
    802024a4:	84ca                	mv	s1,s2
  }
  return -1;
}
    802024a6:	8526                	mv	a0,s1
    802024a8:	70a2                	ld	ra,40(sp)
    802024aa:	7402                	ld	s0,32(sp)
    802024ac:	64e2                	ld	s1,24(sp)
    802024ae:	6942                	ld	s2,16(sp)
    802024b0:	69a2                	ld	s3,8(sp)
    802024b2:	6a02                	ld	s4,0(sp)
    802024b4:	6145                	addi	sp,sp,48
    802024b6:	8082                	ret
    802024b8:	05098793          	addi	a5,s3,80
    for (int i = 0; i < NOFILE; i++) {
    802024bc:	4481                	li	s1,0
    802024be:	46a1                	li	a3,8
      if (task->openFiles[i] == NULL) {
    802024c0:	6398                	ld	a4,0(a5)
    802024c2:	cf11                	beqz	a4,802024de <_Z18registerFileHandleP4filei+0x82>
    for (int i = 0; i < NOFILE; i++) {
    802024c4:	2485                	addiw	s1,s1,1
    802024c6:	07a1                	addi	a5,a5,8
    802024c8:	fed49ce3          	bne	s1,a3,802024c0 <_Z18registerFileHandleP4filei+0x64>
    panic("register file handle");
    802024cc:	00008517          	auipc	a0,0x8
    802024d0:	1cc50513          	addi	a0,a0,460 # 8020a698 <_ZL6digits+0x390>
    802024d4:	ffffe097          	auipc	ra,0xffffe
    802024d8:	30e080e7          	jalr	782(ra) # 802007e2 <_Z5panicPKc>
    802024dc:	bf4d                	j	8020248e <_Z18registerFileHandleP4filei+0x32>
        task->openFiles[i] = fp;
    802024de:	00a48793          	addi	a5,s1,10
    802024e2:	078e                	slli	a5,a5,0x3
    802024e4:	97ce                	add	a5,a5,s3
    802024e6:	0147b023          	sd	s4,0(a5)
        task->lock.unlock();
    802024ea:	854e                	mv	a0,s3
    802024ec:	fffff097          	auipc	ra,0xfffff
    802024f0:	9dc080e7          	jalr	-1572(ra) # 80200ec8 <_ZN8SpinLock6unlockEv>
        return i;
    802024f4:	bf4d                	j	802024a6 <_Z18registerFileHandleP4filei+0x4a>
    return -1;
    802024f6:	54fd                	li	s1,-1
    802024f8:	b77d                	j	802024a6 <_Z18registerFileHandleP4filei+0x4a>
  return -1;
    802024fa:	54fd                	li	s1,-1
    802024fc:	b76d                	j	802024a6 <_Z18registerFileHandleP4filei+0x4a>

00000000802024fe <_Z11getFileByfdi>:
 * @brief 获取fd对应的file
 *
 * @param fd 文件描述符
 * @return struct file* 对应的文件描述符
 */
struct file *getFileByfd(int fd) {
    802024fe:	1101                	addi	sp,sp,-32
    80202500:	ec06                	sd	ra,24(sp)
    80202502:	e822                	sd	s0,16(sp)
    80202504:	e426                	sd	s1,8(sp)
    80202506:	e04a                	sd	s2,0(sp)
    80202508:	1000                	addi	s0,sp,32
    8020250a:	84aa                	mv	s1,a0
  Task *task = myTask();
    8020250c:	fffff097          	auipc	ra,0xfffff
    80202510:	500080e7          	jalr	1280(ra) # 80201a0c <_Z6myTaskv>
    80202514:	892a                	mv	s2,a0
  task->lock.lock();
    80202516:	fffff097          	auipc	ra,0xfffff
    8020251a:	936080e7          	jalr	-1738(ra) # 80200e4c <_ZN8SpinLock4lockEv>
  struct file *fp = myTask()->openFiles[fd];
    8020251e:	fffff097          	auipc	ra,0xfffff
    80202522:	4ee080e7          	jalr	1262(ra) # 80201a0c <_Z6myTaskv>
    80202526:	04a9                	addi	s1,s1,10
    80202528:	048e                	slli	s1,s1,0x3
    8020252a:	94aa                	add	s1,s1,a0
    8020252c:	6084                	ld	s1,0(s1)
  task->lock.unlock();
    8020252e:	854a                	mv	a0,s2
    80202530:	fffff097          	auipc	ra,0xfffff
    80202534:	998080e7          	jalr	-1640(ra) # 80200ec8 <_ZN8SpinLock6unlockEv>
  return fp;
    80202538:	8526                	mv	a0,s1
    8020253a:	60e2                	ld	ra,24(sp)
    8020253c:	6442                	ld	s0,16(sp)
    8020253e:	64a2                	ld	s1,8(sp)
    80202540:	6902                	ld	s2,0(sp)
    80202542:	6105                	addi	sp,sp,32
    80202544:	8082                	ret

0000000080202546 <_GLOBAL__sub_I_taskTable>:
    80202546:	1101                	addi	sp,sp,-32
    80202548:	ec06                	sd	ra,24(sp)
    8020254a:	e822                	sd	s0,16(sp)
    8020254c:	e426                	sd	s1,8(sp)
    8020254e:	e04a                	sd	s2,0(sp)
    80202550:	1000                	addi	s0,sp,32
Task taskTable[NTASK];
    80202552:	00087497          	auipc	s1,0x87
    80202556:	aae48493          	addi	s1,s1,-1362 # 80289000 <taskTable>
    8020255a:	0008b917          	auipc	s2,0x8b
    8020255e:	0f690913          	addi	s2,s2,246 # 8028d650 <initTask>

// extern struct cpu cpus[NCPU];
enum procstate { UNUSED, SLEEPING, RUNNABLE, RUNNING, ZOMBIE };

// 进程
class Task {
    80202562:	8526                	mv	a0,s1
    80202564:	fffff097          	auipc	ra,0xfffff
    80202568:	860080e7          	jalr	-1952(ra) # 80200dc4 <_ZN8SpinLockC1Ev>
    8020256c:	16848493          	addi	s1,s1,360
    80202570:	ff2499e3          	bne	s1,s2,80202562 <_GLOBAL__sub_I_taskTable+0x1c>
    80202574:	60e2                	ld	ra,24(sp)
    80202576:	6442                	ld	s0,16(sp)
    80202578:	64a2                	ld	s1,8(sp)
    8020257a:	6902                	ld	s2,0(sp)
    8020257c:	6105                	addi	sp,sp,32
    8020257e:	8082                	ret

0000000080202580 <_ZN9SleepLock4initEPKc>:
#include "os/SleepLock.hpp"
#include "os/TaskScheduler.hpp"
#include "os/Process.hpp"

void SleepLock::init(const char *name) {
    80202580:	1101                	addi	sp,sp,-32
    80202582:	ec06                	sd	ra,24(sp)
    80202584:	e822                	sd	s0,16(sp)
    80202586:	e426                	sd	s1,8(sp)
    80202588:	e04a                	sd	s2,0(sp)
    8020258a:	1000                	addi	s0,sp,32
    8020258c:	84aa                	mv	s1,a0
    8020258e:	892e                	mv	s2,a1
  this->spinlock.init("sleep lock");
    80202590:	00008597          	auipc	a1,0x8
    80202594:	12058593          	addi	a1,a1,288 # 8020a6b0 <_ZL6digits+0x3a8>
    80202598:	0521                	addi	a0,a0,8
    8020259a:	fffff097          	auipc	ra,0xfffff
    8020259e:	85c080e7          	jalr	-1956(ra) # 80200df6 <_ZN8SpinLock4initEPKc>
  this->name = name;
    802025a2:	0324b023          	sd	s2,32(s1)
  this->locked = 0;
    802025a6:	0004a023          	sw	zero,0(s1)
  this->pid = 0;
    802025aa:	0204a423          	sw	zero,40(s1)
}
    802025ae:	60e2                	ld	ra,24(sp)
    802025b0:	6442                	ld	s0,16(sp)
    802025b2:	64a2                	ld	s1,8(sp)
    802025b4:	6902                	ld	s2,0(sp)
    802025b6:	6105                	addi	sp,sp,32
    802025b8:	8082                	ret

00000000802025ba <_ZN9SleepLock4lockEv>:

void SleepLock::lock() {
    802025ba:	1101                	addi	sp,sp,-32
    802025bc:	ec06                	sd	ra,24(sp)
    802025be:	e822                	sd	s0,16(sp)
    802025c0:	e426                	sd	s1,8(sp)
    802025c2:	e04a                	sd	s2,0(sp)
    802025c4:	1000                	addi	s0,sp,32
    802025c6:	84aa                	mv	s1,a0
  this->spinlock.lock();
    802025c8:	00850913          	addi	s2,a0,8
    802025cc:	854a                	mv	a0,s2
    802025ce:	fffff097          	auipc	ra,0xfffff
    802025d2:	87e080e7          	jalr	-1922(ra) # 80200e4c <_ZN8SpinLock4lockEv>
  while (this->locked) {
    802025d6:	409c                	lw	a5,0(s1)
    802025d8:	cb89                	beqz	a5,802025ea <_ZN9SleepLock4lockEv+0x30>
    sleep(this, &this->spinlock);
    802025da:	85ca                	mv	a1,s2
    802025dc:	8526                	mv	a0,s1
    802025de:	fffff097          	auipc	ra,0xfffff
    802025e2:	64e080e7          	jalr	1614(ra) # 80201c2c <_Z5sleepPvP8SpinLock>
  while (this->locked) {
    802025e6:	409c                	lw	a5,0(s1)
    802025e8:	fbed                	bnez	a5,802025da <_ZN9SleepLock4lockEv+0x20>
  }
  this->locked = 1;
    802025ea:	4785                	li	a5,1
    802025ec:	c09c                	sw	a5,0(s1)
  this->pid = myTask()->pid;
    802025ee:	fffff097          	auipc	ra,0xfffff
    802025f2:	41e080e7          	jalr	1054(ra) # 80201a0c <_Z6myTaskv>
    802025f6:	5d1c                	lw	a5,56(a0)
    802025f8:	d49c                	sw	a5,40(s1)
  this->spinlock.unlock();
    802025fa:	854a                	mv	a0,s2
    802025fc:	fffff097          	auipc	ra,0xfffff
    80202600:	8cc080e7          	jalr	-1844(ra) # 80200ec8 <_ZN8SpinLock6unlockEv>
}
    80202604:	60e2                	ld	ra,24(sp)
    80202606:	6442                	ld	s0,16(sp)
    80202608:	64a2                	ld	s1,8(sp)
    8020260a:	6902                	ld	s2,0(sp)
    8020260c:	6105                	addi	sp,sp,32
    8020260e:	8082                	ret

0000000080202610 <_ZN9SleepLock6unlockEv>:

void SleepLock::unlock(){
    80202610:	1101                	addi	sp,sp,-32
    80202612:	ec06                	sd	ra,24(sp)
    80202614:	e822                	sd	s0,16(sp)
    80202616:	e426                	sd	s1,8(sp)
    80202618:	e04a                	sd	s2,0(sp)
    8020261a:	1000                	addi	s0,sp,32
    8020261c:	84aa                	mv	s1,a0
  this->spinlock.lock();
    8020261e:	00850913          	addi	s2,a0,8
    80202622:	854a                	mv	a0,s2
    80202624:	fffff097          	auipc	ra,0xfffff
    80202628:	828080e7          	jalr	-2008(ra) # 80200e4c <_ZN8SpinLock4lockEv>
  this->locked = 0;
    8020262c:	0004a023          	sw	zero,0(s1)
  this->pid = 0;
    80202630:	0204a423          	sw	zero,40(s1)
  wakeup(this);
    80202634:	8526                	mv	a0,s1
    80202636:	fffff097          	auipc	ra,0xfffff
    8020263a:	6ea080e7          	jalr	1770(ra) # 80201d20 <_Z6wakeupPv>
  this->spinlock.unlock();
    8020263e:	854a                	mv	a0,s2
    80202640:	fffff097          	auipc	ra,0xfffff
    80202644:	888080e7          	jalr	-1912(ra) # 80200ec8 <_ZN8SpinLock6unlockEv>
    80202648:	60e2                	ld	ra,24(sp)
    8020264a:	6442                	ld	s0,16(sp)
    8020264c:	64a2                	ld	s1,8(sp)
    8020264e:	6902                	ld	s2,0(sp)
    80202650:	6105                	addi	sp,sp,32
    80202652:	8082                	ret

0000000080202654 <pswitch>:
    80202654:	00153023          	sd	ra,0(a0)
    80202658:	00253423          	sd	sp,8(a0)
    8020265c:	e900                	sd	s0,16(a0)
    8020265e:	ed04                	sd	s1,24(a0)
    80202660:	03253023          	sd	s2,32(a0)
    80202664:	03353423          	sd	s3,40(a0)
    80202668:	03453823          	sd	s4,48(a0)
    8020266c:	03553c23          	sd	s5,56(a0)
    80202670:	05653023          	sd	s6,64(a0)
    80202674:	05753423          	sd	s7,72(a0)
    80202678:	05853823          	sd	s8,80(a0)
    8020267c:	05953c23          	sd	s9,88(a0)
    80202680:	07a53023          	sd	s10,96(a0)
    80202684:	07b53423          	sd	s11,104(a0)
    80202688:	0005b083          	ld	ra,0(a1)
    8020268c:	0085b103          	ld	sp,8(a1)
    80202690:	6980                	ld	s0,16(a1)
    80202692:	6d84                	ld	s1,24(a1)
    80202694:	0205b903          	ld	s2,32(a1)
    80202698:	0285b983          	ld	s3,40(a1)
    8020269c:	0305ba03          	ld	s4,48(a1)
    802026a0:	0385ba83          	ld	s5,56(a1)
    802026a4:	0405bb03          	ld	s6,64(a1)
    802026a8:	0485bb83          	ld	s7,72(a1)
    802026ac:	0505bc03          	ld	s8,80(a1)
    802026b0:	0585bc83          	ld	s9,88(a1)
    802026b4:	0605bd03          	ld	s10,96(a1)
    802026b8:	0685bd83          	ld	s11,104(a1)
    802026bc:	8082                	ret

00000000802026be <_Z6argrawi>:
#include "os/TaskScheduler.hpp"
#include "param.hpp"
#include "riscv.hpp"
#include "types.hpp"

uint64_t argraw(int n) {
    802026be:	1101                	addi	sp,sp,-32
    802026c0:	ec06                	sd	ra,24(sp)
    802026c2:	e822                	sd	s0,16(sp)
    802026c4:	e426                	sd	s1,8(sp)
    802026c6:	1000                	addi	s0,sp,32
    802026c8:	84aa                	mv	s1,a0
  Task *task = myTask();
    802026ca:	fffff097          	auipc	ra,0xfffff
    802026ce:	342080e7          	jalr	834(ra) # 80201a0c <_Z6myTaskv>
  switch (n) {
    802026d2:	4795                	li	a5,5
    802026d4:	0497e163          	bltu	a5,s1,80202716 <_Z6argrawi+0x58>
    802026d8:	048a                	slli	s1,s1,0x2
    802026da:	00008717          	auipc	a4,0x8
    802026de:	01e70713          	addi	a4,a4,30 # 8020a6f8 <_ZL6digits+0x3f0>
    802026e2:	94ba                	add	s1,s1,a4
    802026e4:	409c                	lw	a5,0(s1)
    802026e6:	97ba                	add	a5,a5,a4
    802026e8:	8782                	jr	a5
    case 0:
      return task->trapframe->a0;
    802026ea:	613c                	ld	a5,64(a0)
    802026ec:	7ba8                	ld	a0,112(a5)
    case 5:
      return task->trapframe->a5;
  }
  panic("argraw");
  return -1;
}
    802026ee:	60e2                	ld	ra,24(sp)
    802026f0:	6442                	ld	s0,16(sp)
    802026f2:	64a2                	ld	s1,8(sp)
    802026f4:	6105                	addi	sp,sp,32
    802026f6:	8082                	ret
      return task->trapframe->a1;
    802026f8:	613c                	ld	a5,64(a0)
    802026fa:	7fa8                	ld	a0,120(a5)
    802026fc:	bfcd                	j	802026ee <_Z6argrawi+0x30>
      return task->trapframe->a2;
    802026fe:	613c                	ld	a5,64(a0)
    80202700:	63c8                	ld	a0,128(a5)
    80202702:	b7f5                	j	802026ee <_Z6argrawi+0x30>
      return task->trapframe->a3;
    80202704:	613c                	ld	a5,64(a0)
    80202706:	67c8                	ld	a0,136(a5)
    80202708:	b7dd                	j	802026ee <_Z6argrawi+0x30>
      return task->trapframe->a4;
    8020270a:	613c                	ld	a5,64(a0)
    8020270c:	6bc8                	ld	a0,144(a5)
    8020270e:	b7c5                	j	802026ee <_Z6argrawi+0x30>
      return task->trapframe->a5;
    80202710:	613c                	ld	a5,64(a0)
    80202712:	6fc8                	ld	a0,152(a5)
    80202714:	bfe9                	j	802026ee <_Z6argrawi+0x30>
  panic("argraw");
    80202716:	00008517          	auipc	a0,0x8
    8020271a:	faa50513          	addi	a0,a0,-86 # 8020a6c0 <_ZL6digits+0x3b8>
    8020271e:	ffffe097          	auipc	ra,0xffffe
    80202722:	0c4080e7          	jalr	196(ra) # 802007e2 <_Z5panicPKc>
  return -1;
    80202726:	557d                	li	a0,-1
    80202728:	b7d9                	j	802026ee <_Z6argrawi+0x30>

000000008020272a <_Z9fetchaddrmPm>:

// 获取当前进程addr处的一个uint64_t值
int fetchaddr(uint64_t addr, uint64_t *ip) {
    8020272a:	1101                	addi	sp,sp,-32
    8020272c:	ec06                	sd	ra,24(sp)
    8020272e:	e822                	sd	s0,16(sp)
    80202730:	e426                	sd	s1,8(sp)
    80202732:	e04a                	sd	s2,0(sp)
    80202734:	1000                	addi	s0,sp,32
    80202736:	84aa                	mv	s1,a0
    80202738:	892e                	mv	s2,a1
  Task *task = myTask();
    8020273a:	fffff097          	auipc	ra,0xfffff
    8020273e:	2d2080e7          	jalr	722(ra) # 80201a0c <_Z6myTaskv>
  if (addr >= static_cast<uint64_t>(task->sz) || addr + sizeof(uint64_t) > static_cast<uint64_t>(task->sz)) return -1;
    80202742:	16052783          	lw	a5,352(a0)
    80202746:	02f4f863          	bgeu	s1,a5,80202776 <_Z9fetchaddrmPm+0x4c>
    8020274a:	00848713          	addi	a4,s1,8
    8020274e:	02e7e663          	bltu	a5,a4,8020277a <_Z9fetchaddrmPm+0x50>
  if (copyin(task->pagetable, (char *)ip, addr, sizeof(*ip)) != 0) return -1;
    80202752:	46a1                	li	a3,8
    80202754:	8626                	mv	a2,s1
    80202756:	85ca                	mv	a1,s2
    80202758:	6528                	ld	a0,72(a0)
    8020275a:	00005097          	auipc	ra,0x5
    8020275e:	a04080e7          	jalr	-1532(ra) # 8020715e <_Z6copyinPmPcmm>
    80202762:	00a03533          	snez	a0,a0
    80202766:	40a00533          	neg	a0,a0
  return 0;
}
    8020276a:	60e2                	ld	ra,24(sp)
    8020276c:	6442                	ld	s0,16(sp)
    8020276e:	64a2                	ld	s1,8(sp)
    80202770:	6902                	ld	s2,0(sp)
    80202772:	6105                	addi	sp,sp,32
    80202774:	8082                	ret
  if (addr >= static_cast<uint64_t>(task->sz) || addr + sizeof(uint64_t) > static_cast<uint64_t>(task->sz)) return -1;
    80202776:	557d                	li	a0,-1
    80202778:	bfcd                	j	8020276a <_Z9fetchaddrmPm+0x40>
    8020277a:	557d                	li	a0,-1
    8020277c:	b7fd                	j	8020276a <_Z9fetchaddrmPm+0x40>

000000008020277e <_Z6argintiPi>:

/**
 * 获取第n个int类型参数
 */
int argint(int n, int *addr) {
    8020277e:	1101                	addi	sp,sp,-32
    80202780:	ec06                	sd	ra,24(sp)
    80202782:	e822                	sd	s0,16(sp)
    80202784:	e426                	sd	s1,8(sp)
    80202786:	1000                	addi	s0,sp,32
    80202788:	84ae                	mv	s1,a1
  *addr = argraw(n);
    8020278a:	00000097          	auipc	ra,0x0
    8020278e:	f34080e7          	jalr	-204(ra) # 802026be <_Z6argrawi>
    80202792:	c088                	sw	a0,0(s1)
  return 0;
}
    80202794:	4501                	li	a0,0
    80202796:	60e2                	ld	ra,24(sp)
    80202798:	6442                	ld	s0,16(sp)
    8020279a:	64a2                	ld	s1,8(sp)
    8020279c:	6105                	addi	sp,sp,32
    8020279e:	8082                	ret

00000000802027a0 <_Z7argaddriPm>:
 *
 * @param n 参数的偏移量
 * @param ip 结果地址
 * @return
 */
int argaddr(int n, uint64_t *addr) {
    802027a0:	1101                	addi	sp,sp,-32
    802027a2:	ec06                	sd	ra,24(sp)
    802027a4:	e822                	sd	s0,16(sp)
    802027a6:	e426                	sd	s1,8(sp)
    802027a8:	1000                	addi	s0,sp,32
    802027aa:	84ae                	mv	s1,a1
  *addr = argraw(n);
    802027ac:	00000097          	auipc	ra,0x0
    802027b0:	f12080e7          	jalr	-238(ra) # 802026be <_Z6argrawi>
    802027b4:	e088                	sd	a0,0(s1)
  return 0;
}
    802027b6:	4501                	li	a0,0
    802027b8:	60e2                	ld	ra,24(sp)
    802027ba:	6442                	ld	s0,16(sp)
    802027bc:	64a2                	ld	s1,8(sp)
    802027be:	6105                	addi	sp,sp,32
    802027c0:	8082                	ret

00000000802027c2 <_Z8fetchstrmPci>:
/**
 * 从当前进程的addr位置取出0结束的字符串。
 * 返回字符串的长度, 不包括0, 失败返回-1
 * @return
 */
int fetchstr(uint64_t addr, char *buf, int max) {
    802027c2:	7179                	addi	sp,sp,-48
    802027c4:	f406                	sd	ra,40(sp)
    802027c6:	f022                	sd	s0,32(sp)
    802027c8:	ec26                	sd	s1,24(sp)
    802027ca:	e84a                	sd	s2,16(sp)
    802027cc:	e44e                	sd	s3,8(sp)
    802027ce:	1800                	addi	s0,sp,48
    802027d0:	892a                	mv	s2,a0
    802027d2:	84ae                	mv	s1,a1
    802027d4:	89b2                	mv	s3,a2
  Task *task = myTask();
    802027d6:	fffff097          	auipc	ra,0xfffff
    802027da:	236080e7          	jalr	566(ra) # 80201a0c <_Z6myTaskv>
  int err = copyinstr(task->pagetable, buf, addr, max);
    802027de:	86ce                	mv	a3,s3
    802027e0:	864a                	mv	a2,s2
    802027e2:	85a6                	mv	a1,s1
    802027e4:	6528                	ld	a0,72(a0)
    802027e6:	00005097          	auipc	ra,0x5
    802027ea:	a02080e7          	jalr	-1534(ra) # 802071e8 <_Z9copyinstrPmPcmi>
  if (err < 0) return err;
    802027ee:	00054763          	bltz	a0,802027fc <_Z8fetchstrmPci+0x3a>
  return strlen(buf);
    802027f2:	8526                	mv	a0,s1
    802027f4:	ffffe097          	auipc	ra,0xffffe
    802027f8:	558080e7          	jalr	1368(ra) # 80200d4c <_Z6strlenPKc>
}
    802027fc:	70a2                	ld	ra,40(sp)
    802027fe:	7402                	ld	s0,32(sp)
    80202800:	64e2                	ld	s1,24(sp)
    80202802:	6942                	ld	s2,16(sp)
    80202804:	69a2                	ld	s3,8(sp)
    80202806:	6145                	addi	sp,sp,48
    80202808:	8082                	ret

000000008020280a <_Z6argstriPci>:

/**
 * 获取第n个系统调用参数作为0结束的字符串
 *  复制到buf中, 最多复制max
 */
int argstr(int n, char *buf, int max) {
    8020280a:	1101                	addi	sp,sp,-32
    8020280c:	ec06                	sd	ra,24(sp)
    8020280e:	e822                	sd	s0,16(sp)
    80202810:	e426                	sd	s1,8(sp)
    80202812:	e04a                	sd	s2,0(sp)
    80202814:	1000                	addi	s0,sp,32
    80202816:	84ae                	mv	s1,a1
    80202818:	8932                	mv	s2,a2
  *addr = argraw(n);
    8020281a:	00000097          	auipc	ra,0x0
    8020281e:	ea4080e7          	jalr	-348(ra) # 802026be <_Z6argrawi>
  uint64_t addr;
  if (argaddr(n, &addr) < 0) return -1;
  return fetchstr(addr, buf, max);
    80202822:	864a                	mv	a2,s2
    80202824:	85a6                	mv	a1,s1
    80202826:	00000097          	auipc	ra,0x0
    8020282a:	f9c080e7          	jalr	-100(ra) # 802027c2 <_Z8fetchstrmPci>
}
    8020282e:	60e2                	ld	ra,24(sp)
    80202830:	6442                	ld	s0,16(sp)
    80202832:	64a2                	ld	s1,8(sp)
    80202834:	6902                	ld	s2,0(sp)
    80202836:	6105                	addi	sp,sp,32
    80202838:	8082                	ret

000000008020283a <_Z12syscall_initv>:

static uint64_t (*syscalls[400])(void);

// #define NELEM(x) (sizeof(x) / sizeof((x)[0]))

void syscall_init() {
    8020283a:	1141                	addi	sp,sp,-16
    8020283c:	e422                	sd	s0,8(sp)
    8020283e:	0800                	addi	s0,sp,16
  syscalls[SYS_execve] = sys_exec;
    80202840:	0008b797          	auipc	a5,0x8b
    80202844:	e1878793          	addi	a5,a5,-488 # 8028d658 <_ZL8syscalls>
    80202848:	00000717          	auipc	a4,0x0
    8020284c:	18870713          	addi	a4,a4,392 # 802029d0 <_Z8sys_execv>
    80202850:	6ee7b423          	sd	a4,1768(a5)
  syscalls[SYS_open] = sys_open;
    80202854:	00000717          	auipc	a4,0x0
    80202858:	49470713          	addi	a4,a4,1172 # 80202ce8 <_Z8sys_openv>
    8020285c:	eb98                	sd	a4,16(a5)
  syscalls[SYS_write] = sys_write;
    8020285e:	00000717          	auipc	a4,0x0
    80202862:	62e70713          	addi	a4,a4,1582 # 80202e8c <_Z9sys_writev>
    80202866:	20e7b023          	sd	a4,512(a5)
  syscalls[SYS_read] = sys_read;
    8020286a:	00000717          	auipc	a4,0x0
    8020286e:	68a70713          	addi	a4,a4,1674 # 80202ef4 <_Z8sys_readv>
    80202872:	1ee7bc23          	sd	a4,504(a5)
  syscalls[SYS_dup] = sys_dup;
    80202876:	00000717          	auipc	a4,0x0
    8020287a:	6e670713          	addi	a4,a4,1766 # 80202f5c <_Z7sys_dupv>
    8020287e:	ffd8                	sd	a4,184(a5)
  syscalls[SYS_dup3] = sys_dup3;
    80202880:	00000717          	auipc	a4,0x0
    80202884:	78470713          	addi	a4,a4,1924 # 80203004 <_Z8sys_dup3v>
    80202888:	e3f8                	sd	a4,192(a5)
  syscalls[SYS_getcwd] = sys_getcwd;
    8020288a:	00000717          	auipc	a4,0x0
    8020288e:	39270713          	addi	a4,a4,914 # 80202c1c <_Z10sys_getcwdv>
    80202892:	e7d8                	sd	a4,136(a5)
  syscalls[SYS_getpid] = sys_getpid;
    80202894:	00000717          	auipc	a4,0x0
    80202898:	35270713          	addi	a4,a4,850 # 80202be6 <_Z10sys_getpidv>
    8020289c:	56e7b023          	sd	a4,1376(a5)
  syscalls[SYS_getppid] = sys_getppid;
    802028a0:	00000717          	auipc	a4,0x0
    802028a4:	36070713          	addi	a4,a4,864 # 80202c00 <_Z11sys_getppidv>
    802028a8:	56e7b423          	sd	a4,1384(a5)
  syscalls[SYS_fork] = sys_fork;
    802028ac:	00000717          	auipc	a4,0x0
    802028b0:	10c70713          	addi	a4,a4,268 # 802029b8 <_Z8sys_forkv>
    802028b4:	e798                	sd	a4,8(a5)
  syscalls[SYS_exit] = sys_exit;
    802028b6:	00000717          	auipc	a4,0x0
    802028ba:	0ce70713          	addi	a4,a4,206 # 80202984 <_Z8sys_exitv>
    802028be:	2ee7b423          	sd	a4,744(a5)
  syscalls[SYS_wait] = sys_wait;
    802028c2:	00000717          	auipc	a4,0x0
    802028c6:	24470713          	addi	a4,a4,580 # 80202b06 <_Z8sys_waitv>
    802028ca:	ef98                	sd	a4,24(a5)
  syscalls[SYS_wait4] = sys_wait4;
    802028cc:	00000717          	auipc	a4,0x0
    802028d0:	26c70713          	addi	a4,a4,620 # 80202b38 <_Z9sys_wait4v>
    802028d4:	0008b697          	auipc	a3,0x8b
    802028d8:	5ae6b223          	sd	a4,1444(a3) # 8028de78 <_ZL8syscalls+0x820>
  syscalls[SYS_chdir] = sys_chdir;
    802028dc:	00000717          	auipc	a4,0x0
    802028e0:	7ee70713          	addi	a4,a4,2030 # 802030ca <_Z9sys_chdirv>
    802028e4:	18e7b423          	sd	a4,392(a5)
  syscalls[SYS_close] = sys_close;
    802028e8:	00000717          	auipc	a4,0x0
    802028ec:	49870713          	addi	a4,a4,1176 # 80202d80 <_Z9sys_closev>
    802028f0:	1ce7b423          	sd	a4,456(a5)
  syscalls[SYS_mkdirat] = sys_mkdirat;
    802028f4:	00000717          	auipc	a4,0x0
    802028f8:	78670713          	addi	a4,a4,1926 # 8020307a <_Z11sys_mkdiratv>
    802028fc:	10e7b823          	sd	a4,272(a5)
}
    80202900:	6422                	ld	s0,8(sp)
    80202902:	0141                	addi	sp,sp,16
    80202904:	8082                	ret

0000000080202906 <_Z7syscallv>:

void syscall(void) {
    80202906:	1101                	addi	sp,sp,-32
    80202908:	ec06                	sd	ra,24(sp)
    8020290a:	e822                	sd	s0,16(sp)
    8020290c:	e426                	sd	s1,8(sp)
    8020290e:	e04a                	sd	s2,0(sp)
    80202910:	1000                	addi	s0,sp,32
  int num;
  Task *task = myTask();
    80202912:	fffff097          	auipc	ra,0xfffff
    80202916:	0fa080e7          	jalr	250(ra) # 80201a0c <_Z6myTaskv>
    8020291a:	84aa                	mv	s1,a0
  num = task->trapframe->a7;
    8020291c:	04053903          	ld	s2,64(a0)
    80202920:	0a893783          	ld	a5,168(s2)
    80202924:	0007869b          	sext.w	a3,a5
  if (num > 0 && static_cast<uint64_t>(num) < NELEM(syscalls) && syscalls[num]) {
    80202928:	37fd                	addiw	a5,a5,-1
    8020292a:	18e00713          	li	a4,398
    8020292e:	00f76f63          	bltu	a4,a5,8020294c <_Z7syscallv+0x46>
    80202932:	00369713          	slli	a4,a3,0x3
    80202936:	0008b797          	auipc	a5,0x8b
    8020293a:	d2278793          	addi	a5,a5,-734 # 8028d658 <_ZL8syscalls>
    8020293e:	97ba                	add	a5,a5,a4
    80202940:	639c                	ld	a5,0(a5)
    80202942:	c789                	beqz	a5,8020294c <_Z7syscallv+0x46>
    task->trapframe->a0 = syscalls[num]();
    80202944:	9782                	jalr	a5
    80202946:	06a93823          	sd	a0,112(s2)
    8020294a:	a03d                	j	80202978 <_Z7syscallv+0x72>
  } else {
    printf("%d %s: unknown sys call %d\n", task->pid, task->name, num);
    8020294c:	15048613          	addi	a2,s1,336
    80202950:	5c8c                	lw	a1,56(s1)
    80202952:	00008517          	auipc	a0,0x8
    80202956:	d7650513          	addi	a0,a0,-650 # 8020a6c8 <_ZL6digits+0x3c0>
    8020295a:	ffffe097          	auipc	ra,0xffffe
    8020295e:	efa080e7          	jalr	-262(ra) # 80200854 <_Z6printfPKcz>
    task->trapframe->a0 = -1;
    80202962:	60bc                	ld	a5,64(s1)
    80202964:	577d                	li	a4,-1
    80202966:	fbb8                	sd	a4,112(a5)
    panic("syscall error");
    80202968:	00008517          	auipc	a0,0x8
    8020296c:	d8050513          	addi	a0,a0,-640 # 8020a6e8 <_ZL6digits+0x3e0>
    80202970:	ffffe097          	auipc	ra,0xffffe
    80202974:	e72080e7          	jalr	-398(ra) # 802007e2 <_Z5panicPKc>
  }
}
    80202978:	60e2                	ld	ra,24(sp)
    8020297a:	6442                	ld	s0,16(sp)
    8020297c:	64a2                	ld	s1,8(sp)
    8020297e:	6902                	ld	s2,0(sp)
    80202980:	6105                	addi	sp,sp,32
    80202982:	8082                	ret

0000000080202984 <_Z8sys_exitv>:
#include "riscv.hpp"
#include "types.hpp"

extern MemAllocator memAllocator;

uint64_t sys_exit(void) {
    80202984:	1101                	addi	sp,sp,-32
    80202986:	ec06                	sd	ra,24(sp)
    80202988:	e822                	sd	s0,16(sp)
    8020298a:	1000                	addi	s0,sp,32
  int n;
  if (argint(0, &n) < 0) return -1;
    8020298c:	fec40593          	addi	a1,s0,-20
    80202990:	4501                	li	a0,0
    80202992:	00000097          	auipc	ra,0x0
    80202996:	dec080e7          	jalr	-532(ra) # 8020277e <_Z6argintiPi>
    8020299a:	57fd                	li	a5,-1
    8020299c:	00054963          	bltz	a0,802029ae <_Z8sys_exitv+0x2a>
  exit(n);
    802029a0:	fec42503          	lw	a0,-20(s0)
    802029a4:	00000097          	auipc	ra,0x0
    802029a8:	874080e7          	jalr	-1932(ra) # 80202218 <_Z4exiti>
  return 0;  // not reached
    802029ac:	4781                	li	a5,0
}
    802029ae:	853e                	mv	a0,a5
    802029b0:	60e2                	ld	ra,24(sp)
    802029b2:	6442                	ld	s0,16(sp)
    802029b4:	6105                	addi	sp,sp,32
    802029b6:	8082                	ret

00000000802029b8 <_Z8sys_forkv>:

uint64_t sys_fork(void) { return fork(); }
    802029b8:	1141                	addi	sp,sp,-16
    802029ba:	e406                	sd	ra,8(sp)
    802029bc:	e022                	sd	s0,0(sp)
    802029be:	0800                	addi	s0,sp,16
    802029c0:	fffff097          	auipc	ra,0xfffff
    802029c4:	46a080e7          	jalr	1130(ra) # 80201e2a <_Z4forkv>
    802029c8:	60a2                	ld	ra,8(sp)
    802029ca:	6402                	ld	s0,0(sp)
    802029cc:	0141                	addi	sp,sp,16
    802029ce:	8082                	ret

00000000802029d0 <_Z8sys_execv>:

uint64_t sys_exec(void) {
    802029d0:	7165                	addi	sp,sp,-400
    802029d2:	e706                	sd	ra,392(sp)
    802029d4:	e322                	sd	s0,384(sp)
    802029d6:	fea6                	sd	s1,376(sp)
    802029d8:	faca                	sd	s2,368(sp)
    802029da:	f6ce                	sd	s3,360(sp)
    802029dc:	f2d2                	sd	s4,352(sp)
    802029de:	eed6                	sd	s5,344(sp)
    802029e0:	eada                	sd	s6,336(sp)
    802029e2:	0b00                	addi	s0,sp,400
  char path[MAXPATH], *argv[MAXARG];
  uint64_t uargv, uarg = 0;
    802029e4:	e6043823          	sd	zero,-400(s0)
  int ret = 0;
  if (argstr(0, path, MAXPATH) < 0 || argaddr(1, &uargv) < 0) return -1;
    802029e8:	04000613          	li	a2,64
    802029ec:	f8040593          	addi	a1,s0,-128
    802029f0:	4501                	li	a0,0
    802029f2:	00000097          	auipc	ra,0x0
    802029f6:	e18080e7          	jalr	-488(ra) # 8020280a <_Z6argstriPci>
    802029fa:	54fd                	li	s1,-1
    802029fc:	0e054a63          	bltz	a0,80202af0 <_Z8sys_execv+0x120>
    80202a00:	e7840593          	addi	a1,s0,-392
    80202a04:	4505                	li	a0,1
    80202a06:	00000097          	auipc	ra,0x0
    80202a0a:	d9a080e7          	jalr	-614(ra) # 802027a0 <_Z7argaddriPm>
    80202a0e:	0e054163          	bltz	a0,80202af0 <_Z8sys_execv+0x120>
  if (strlen(path) < 1) return -1;
    80202a12:	f8040513          	addi	a0,s0,-128
    80202a16:	ffffe097          	auipc	ra,0xffffe
    80202a1a:	336080e7          	jalr	822(ra) # 80200d4c <_Z6strlenPKc>
    80202a1e:	0ca05963          	blez	a0,80202af0 <_Z8sys_execv+0x120>
  memset(argv, 0, sizeof(argv));
    80202a22:	10000613          	li	a2,256
    80202a26:	4581                	li	a1,0
    80202a28:	e8040513          	addi	a0,s0,-384
    80202a2c:	ffffe097          	auipc	ra,0xffffe
    80202a30:	130080e7          	jalr	304(ra) # 80200b5c <_Z6memsetPvij>
  for (int i = 0;; i++) {
    if (i > MAXARG) goto bad;
    80202a34:	e8040913          	addi	s2,s0,-384
  memset(argv, 0, sizeof(argv));
    80202a38:	89ca                	mv	s3,s2
    80202a3a:	4481                	li	s1,0
    if (fetchaddr(uargv + sizeof(uint64_t) * i, &uarg) < 0) goto bad;
    if (uarg == 0) {
      argv[i] = 0;
      break;
    }
    argv[i] = reinterpret_cast<char *>(memAllocator.alloc());
    80202a3c:	00011a17          	auipc	s4,0x11
    80202a40:	664a0a13          	addi	s4,s4,1636 # 802140a0 <memAllocator>
    if (i > MAXARG) goto bad;
    80202a44:	02100a93          	li	s5,33
    80202a48:	00048b1b          	sext.w	s6,s1
    if (fetchaddr(uargv + sizeof(uint64_t) * i, &uarg) < 0) goto bad;
    80202a4c:	00349513          	slli	a0,s1,0x3
    80202a50:	e7040593          	addi	a1,s0,-400
    80202a54:	e7843783          	ld	a5,-392(s0)
    80202a58:	953e                	add	a0,a0,a5
    80202a5a:	00000097          	auipc	ra,0x0
    80202a5e:	cd0080e7          	jalr	-816(ra) # 8020272a <_Z9fetchaddrmPm>
    80202a62:	02054b63          	bltz	a0,80202a98 <_Z8sys_execv+0xc8>
    if (uarg == 0) {
    80202a66:	e7043783          	ld	a5,-400(s0)
    80202a6a:	cf85                	beqz	a5,80202aa2 <_Z8sys_execv+0xd2>
    argv[i] = reinterpret_cast<char *>(memAllocator.alloc());
    80202a6c:	8552                	mv	a0,s4
    80202a6e:	00005097          	auipc	ra,0x5
    80202a72:	acc080e7          	jalr	-1332(ra) # 8020753a <_ZN12MemAllocator5allocEv>
    80202a76:	85aa                	mv	a1,a0
    80202a78:	00a9b023          	sd	a0,0(s3)
    if (argv[i] == 0) goto bad;
    80202a7c:	cd11                	beqz	a0,80202a98 <_Z8sys_execv+0xc8>
    if (fetchstr(uarg, argv[i], PGSIZE) < 0) goto bad;
    80202a7e:	6605                	lui	a2,0x1
    80202a80:	e7043503          	ld	a0,-400(s0)
    80202a84:	00000097          	auipc	ra,0x0
    80202a88:	d3e080e7          	jalr	-706(ra) # 802027c2 <_Z8fetchstrmPci>
    80202a8c:	00054663          	bltz	a0,80202a98 <_Z8sys_execv+0xc8>
    if (i > MAXARG) goto bad;
    80202a90:	0485                	addi	s1,s1,1
    80202a92:	09a1                	addi	s3,s3,8
    80202a94:	fb549ae3          	bne	s1,s5,80202a48 <_Z8sys_execv+0x78>
  LOG_TRACE("exec over");
  return ret;

bad:
  LOG_TRACE("exec bad");
  for (int i = 0; i <= MAXARG && argv[i] != 0; i++) memAllocator.free(argv[i]);
    80202a98:	00011497          	auipc	s1,0x11
    80202a9c:	60848493          	addi	s1,s1,1544 # 802140a0 <memAllocator>
    80202aa0:	a099                	j	80202ae6 <_Z8sys_execv+0x116>
      argv[i] = 0;
    80202aa2:	0b0e                	slli	s6,s6,0x3
    80202aa4:	fc040793          	addi	a5,s0,-64
    80202aa8:	9b3e                	add	s6,s6,a5
    80202aaa:	ec0b3023          	sd	zero,-320(s6)
  ret = exec(path, argv);
    80202aae:	e8040593          	addi	a1,s0,-384
    80202ab2:	f8040513          	addi	a0,s0,-128
    80202ab6:	00000097          	auipc	ra,0x0
    80202aba:	65c080e7          	jalr	1628(ra) # 80203112 <_Z4execPcPS_>
    80202abe:	84aa                	mv	s1,a0
  for (int i = 0; i <= MAXARG && argv[i] != 0; i++) memAllocator.free(argv[i]);
    80202ac0:	00011997          	auipc	s3,0x11
    80202ac4:	5e098993          	addi	s3,s3,1504 # 802140a0 <memAllocator>
    80202ac8:	0921                	addi	s2,s2,8
    80202aca:	ff893583          	ld	a1,-8(s2)
    80202ace:	c18d                	beqz	a1,80202af0 <_Z8sys_execv+0x120>
    80202ad0:	854e                	mv	a0,s3
    80202ad2:	00005097          	auipc	ra,0x5
    80202ad6:	abe080e7          	jalr	-1346(ra) # 80207590 <_ZN12MemAllocator4freeEPv>
    80202ada:	b7fd                	j	80202ac8 <_Z8sys_execv+0xf8>
  for (int i = 0; i <= MAXARG && argv[i] != 0; i++) memAllocator.free(argv[i]);
    80202adc:	8526                	mv	a0,s1
    80202ade:	00005097          	auipc	ra,0x5
    80202ae2:	ab2080e7          	jalr	-1358(ra) # 80207590 <_ZN12MemAllocator4freeEPv>
    80202ae6:	0921                	addi	s2,s2,8
    80202ae8:	ff893583          	ld	a1,-8(s2)
    80202aec:	f9e5                	bnez	a1,80202adc <_Z8sys_execv+0x10c>
  return -1;
    80202aee:	54fd                	li	s1,-1
}
    80202af0:	8526                	mv	a0,s1
    80202af2:	60ba                	ld	ra,392(sp)
    80202af4:	641a                	ld	s0,384(sp)
    80202af6:	74f6                	ld	s1,376(sp)
    80202af8:	7956                	ld	s2,368(sp)
    80202afa:	79b6                	ld	s3,360(sp)
    80202afc:	7a16                	ld	s4,352(sp)
    80202afe:	6af6                	ld	s5,344(sp)
    80202b00:	6b56                	ld	s6,336(sp)
    80202b02:	6159                	addi	sp,sp,400
    80202b04:	8082                	ret

0000000080202b06 <_Z8sys_waitv>:

uint64_t sys_wait(void) {
    80202b06:	1101                	addi	sp,sp,-32
    80202b08:	ec06                	sd	ra,24(sp)
    80202b0a:	e822                	sd	s0,16(sp)
    80202b0c:	1000                	addi	s0,sp,32
  uint64_t vaddr;
  if (argaddr(0, &vaddr) < 0) {
    80202b0e:	fe840593          	addi	a1,s0,-24
    80202b12:	4501                	li	a0,0
    80202b14:	00000097          	auipc	ra,0x0
    80202b18:	c8c080e7          	jalr	-884(ra) # 802027a0 <_Z7argaddriPm>
    80202b1c:	87aa                	mv	a5,a0
    return -1;
    80202b1e:	557d                	li	a0,-1
  if (argaddr(0, &vaddr) < 0) {
    80202b20:	0007c863          	bltz	a5,80202b30 <_Z8sys_waitv+0x2a>
  }
  return wait(vaddr);
    80202b24:	fe843503          	ld	a0,-24(s0)
    80202b28:	fffff097          	auipc	ra,0xfffff
    80202b2c:	3fc080e7          	jalr	1020(ra) # 80201f24 <_Z4waitm>
}
    80202b30:	60e2                	ld	ra,24(sp)
    80202b32:	6442                	ld	s0,16(sp)
    80202b34:	6105                	addi	sp,sp,32
    80202b36:	8082                	ret

0000000080202b38 <_Z9sys_wait4v>:

uint64_t sys_wait4(void) {
    80202b38:	1101                	addi	sp,sp,-32
    80202b3a:	ec06                	sd	ra,24(sp)
    80202b3c:	e822                	sd	s0,16(sp)
    80202b3e:	1000                	addi	s0,sp,32
  int pid;
  uint64_t uaddr;
  if (argint(0, &pid) < 0 || argaddr(1, &uaddr) < 0) {
    80202b40:	fec40593          	addi	a1,s0,-20
    80202b44:	4501                	li	a0,0
    80202b46:	00000097          	auipc	ra,0x0
    80202b4a:	c38080e7          	jalr	-968(ra) # 8020277e <_Z6argintiPi>
    return -1;
    80202b4e:	57fd                	li	a5,-1
  if (argint(0, &pid) < 0 || argaddr(1, &uaddr) < 0) {
    80202b50:	06054e63          	bltz	a0,80202bcc <_Z9sys_wait4v+0x94>
    80202b54:	fe040593          	addi	a1,s0,-32
    80202b58:	4505                	li	a0,1
    80202b5a:	00000097          	auipc	ra,0x0
    80202b5e:	c46080e7          	jalr	-954(ra) # 802027a0 <_Z7argaddriPm>
    return -1;
    80202b62:	57fd                	li	a5,-1
  if (argint(0, &pid) < 0 || argaddr(1, &uaddr) < 0) {
    80202b64:	06054463          	bltz	a0,80202bcc <_Z9sys_wait4v+0x94>
    80202b68:	00008717          	auipc	a4,0x8
    80202b6c:	ba870713          	addi	a4,a4,-1112 # 8020a710 <_ZL6digits+0x408>
    80202b70:	04300693          	li	a3,67
    80202b74:	00008617          	auipc	a2,0x8
    80202b78:	bac60613          	addi	a2,a2,-1108 # 8020a720 <_ZL6digits+0x418>
    80202b7c:	00007597          	auipc	a1,0x7
    80202b80:	5fc58593          	addi	a1,a1,1532 # 8020a178 <rodata_start+0x178>
    80202b84:	00007517          	auipc	a0,0x7
    80202b88:	5fc50513          	addi	a0,a0,1532 # 8020a180 <rodata_start+0x180>
    80202b8c:	ffffe097          	auipc	ra,0xffffe
    80202b90:	cc8080e7          	jalr	-824(ra) # 80200854 <_Z6printfPKcz>
  }
  LOG_DEBUG("wait4");
    80202b94:	00008517          	auipc	a0,0x8
    80202b98:	ba450513          	addi	a0,a0,-1116 # 8020a738 <_ZL6digits+0x430>
    80202b9c:	ffffe097          	auipc	ra,0xffffe
    80202ba0:	cb8080e7          	jalr	-840(ra) # 80200854 <_Z6printfPKcz>
    80202ba4:	00007517          	auipc	a0,0x7
    80202ba8:	4fc50513          	addi	a0,a0,1276 # 8020a0a0 <rodata_start+0xa0>
    80202bac:	ffffe097          	auipc	ra,0xffffe
    80202bb0:	ca8080e7          	jalr	-856(ra) # 80200854 <_Z6printfPKcz>
  if(pid == -1){
    80202bb4:	fec42503          	lw	a0,-20(s0)
    80202bb8:	57fd                	li	a5,-1
    80202bba:	00f50e63          	beq	a0,a5,80202bd6 <_Z9sys_wait4v+0x9e>
    return wait(uaddr);
  }
  return wait4(pid, uaddr);
    80202bbe:	fe043583          	ld	a1,-32(s0)
    80202bc2:	fffff097          	auipc	ra,0xfffff
    80202bc6:	4da080e7          	jalr	1242(ra) # 8020209c <_Z5wait4im>
    80202bca:	87aa                	mv	a5,a0
}
    80202bcc:	853e                	mv	a0,a5
    80202bce:	60e2                	ld	ra,24(sp)
    80202bd0:	6442                	ld	s0,16(sp)
    80202bd2:	6105                	addi	sp,sp,32
    80202bd4:	8082                	ret
    return wait(uaddr);
    80202bd6:	fe043503          	ld	a0,-32(s0)
    80202bda:	fffff097          	auipc	ra,0xfffff
    80202bde:	34a080e7          	jalr	842(ra) # 80201f24 <_Z4waitm>
    80202be2:	87aa                	mv	a5,a0
    80202be4:	b7e5                	j	80202bcc <_Z9sys_wait4v+0x94>

0000000080202be6 <_Z10sys_getpidv>:

uint64_t sys_getpid() { return myTask()->pid; }
    80202be6:	1141                	addi	sp,sp,-16
    80202be8:	e406                	sd	ra,8(sp)
    80202bea:	e022                	sd	s0,0(sp)
    80202bec:	0800                	addi	s0,sp,16
    80202bee:	fffff097          	auipc	ra,0xfffff
    80202bf2:	e1e080e7          	jalr	-482(ra) # 80201a0c <_Z6myTaskv>
    80202bf6:	5d08                	lw	a0,56(a0)
    80202bf8:	60a2                	ld	ra,8(sp)
    80202bfa:	6402                	ld	s0,0(sp)
    80202bfc:	0141                	addi	sp,sp,16
    80202bfe:	8082                	ret

0000000080202c00 <_Z11sys_getppidv>:
    80202c00:	1141                	addi	sp,sp,-16
    80202c02:	e406                	sd	ra,8(sp)
    80202c04:	e022                	sd	s0,0(sp)
    80202c06:	0800                	addi	s0,sp,16
    80202c08:	fffff097          	auipc	ra,0xfffff
    80202c0c:	e04080e7          	jalr	-508(ra) # 80201a0c <_Z6myTaskv>
    80202c10:	711c                	ld	a5,32(a0)
    80202c12:	5f88                	lw	a0,56(a5)
    80202c14:	60a2                	ld	ra,8(sp)
    80202c16:	6402                	ld	s0,0(sp)
    80202c18:	0141                	addi	sp,sp,16
    80202c1a:	8082                	ret

0000000080202c1c <_Z10sys_getcwdv>:
#include "os/TaskScheduler.hpp"
#include "param.hpp"
#include "riscv.hpp"
#include "types.hpp"

uint64_t sys_getcwd(void) {
    80202c1c:	7179                	addi	sp,sp,-48
    80202c1e:	f406                	sd	ra,40(sp)
    80202c20:	f022                	sd	s0,32(sp)
    80202c22:	ec26                	sd	s1,24(sp)
    80202c24:	e84a                	sd	s2,16(sp)
    80202c26:	1800                	addi	s0,sp,48
    80202c28:	00008717          	auipc	a4,0x8
    80202c2c:	b1870713          	addi	a4,a4,-1256 # 8020a740 <_ZL6digits+0x438>
    80202c30:	46c1                	li	a3,16
    80202c32:	00008617          	auipc	a2,0x8
    80202c36:	b1e60613          	addi	a2,a2,-1250 # 8020a750 <_ZL6digits+0x448>
    80202c3a:	00007597          	auipc	a1,0x7
    80202c3e:	53e58593          	addi	a1,a1,1342 # 8020a178 <rodata_start+0x178>
    80202c42:	00007517          	auipc	a0,0x7
    80202c46:	53e50513          	addi	a0,a0,1342 # 8020a180 <rodata_start+0x180>
    80202c4a:	ffffe097          	auipc	ra,0xffffe
    80202c4e:	c0a080e7          	jalr	-1014(ra) # 80200854 <_Z6printfPKcz>
  uint64_t userBuf;
  int n;
  LOG_DEBUG("cwd");
    80202c52:	00008517          	auipc	a0,0x8
    80202c56:	b1650513          	addi	a0,a0,-1258 # 8020a768 <_ZL6digits+0x460>
    80202c5a:	ffffe097          	auipc	ra,0xffffe
    80202c5e:	bfa080e7          	jalr	-1030(ra) # 80200854 <_Z6printfPKcz>
    80202c62:	00007517          	auipc	a0,0x7
    80202c66:	43e50513          	addi	a0,a0,1086 # 8020a0a0 <rodata_start+0xa0>
    80202c6a:	ffffe097          	auipc	ra,0xffffe
    80202c6e:	bea080e7          	jalr	-1046(ra) # 80200854 <_Z6printfPKcz>
  if (argaddr(0, &userBuf) < 0 || argint(1, &n) < 0) {
    80202c72:	fd840593          	addi	a1,s0,-40
    80202c76:	4501                	li	a0,0
    80202c78:	00000097          	auipc	ra,0x0
    80202c7c:	b28080e7          	jalr	-1240(ra) # 802027a0 <_Z7argaddriPm>
    return -1;
    80202c80:	57fd                	li	a5,-1
  if (argaddr(0, &userBuf) < 0 || argint(1, &n) < 0) {
    80202c82:	04054c63          	bltz	a0,80202cda <_Z10sys_getcwdv+0xbe>
    80202c86:	fd440593          	addi	a1,s0,-44
    80202c8a:	4505                	li	a0,1
    80202c8c:	00000097          	auipc	ra,0x0
    80202c90:	af2080e7          	jalr	-1294(ra) # 8020277e <_Z6argintiPi>
    return -1;
    80202c94:	57fd                	li	a5,-1
  if (argaddr(0, &userBuf) < 0 || argint(1, &n) < 0) {
    80202c96:	04054263          	bltz	a0,80202cda <_Z10sys_getcwdv+0xbe>
  }
  char *cwd = myTask()->currentDir;
    80202c9a:	fffff097          	auipc	ra,0xfffff
    80202c9e:	d72080e7          	jalr	-654(ra) # 80201a0c <_Z6myTaskv>
    80202ca2:	09050493          	addi	s1,a0,144
  if (strlen(cwd) > n) {
    80202ca6:	8526                	mv	a0,s1
    80202ca8:	ffffe097          	auipc	ra,0xffffe
    80202cac:	0a4080e7          	jalr	164(ra) # 80200d4c <_Z6strlenPKc>
    80202cb0:	fd442703          	lw	a4,-44(s0)
    return -1;
    80202cb4:	57fd                	li	a5,-1
  if (strlen(cwd) > n) {
    80202cb6:	02a74263          	blt	a4,a0,80202cda <_Z10sys_getcwdv+0xbe>
  }
  return either_copyout(true, userBuf, reinterpret_cast<void *>(cwd), strlen(cwd));
    80202cba:	fd843903          	ld	s2,-40(s0)
    80202cbe:	8526                	mv	a0,s1
    80202cc0:	ffffe097          	auipc	ra,0xffffe
    80202cc4:	08c080e7          	jalr	140(ra) # 80200d4c <_Z6strlenPKc>
    80202cc8:	86aa                	mv	a3,a0
    80202cca:	8626                	mv	a2,s1
    80202ccc:	85ca                	mv	a1,s2
    80202cce:	4505                	li	a0,1
    80202cd0:	fffff097          	auipc	ra,0xfffff
    80202cd4:	6de080e7          	jalr	1758(ra) # 802023ae <_Z14either_copyoutbmPvi>
    80202cd8:	87aa                	mv	a5,a0
}
    80202cda:	853e                	mv	a0,a5
    80202cdc:	70a2                	ld	ra,40(sp)
    80202cde:	7402                	ld	s0,32(sp)
    80202ce0:	64e2                	ld	s1,24(sp)
    80202ce2:	6942                	ld	s2,16(sp)
    80202ce4:	6145                	addi	sp,sp,48
    80202ce6:	8082                	ret

0000000080202ce8 <_Z8sys_openv>:

uint64_t sys_open(void) {
    80202ce8:	711d                	addi	sp,sp,-96
    80202cea:	ec86                	sd	ra,88(sp)
    80202cec:	e8a2                	sd	s0,80(sp)
    80202cee:	1080                	addi	s0,sp,96
    80202cf0:	00008717          	auipc	a4,0x8
