0000000080200000 .text
0000000080209000 .init
0000000080209034 .fini
000000008020a000 .rodata
000000008020aea0 .srodata.cst8
000000008020b000 .data
000000008020b038 .init_array
000000008020b068 .sdata
000000008020b080 .eh_frame
000000008020b088 .fini_array
000000008020c000 .bss
0000000000000000 .riscv.attributes
0000000000000000 .comment
0000000000000000 .debug_info
0000000000000000 .debug_abbrev
0000000000000000 .debug_loc
0000000000000000 .debug_aranges
0000000000000000 .debug_ranges
0000000000000000 .debug_line
0000000000000000 .debug_str
0000000000000000 .debug_frame
0000000000000000 boot/entry.o
0000000080200014 loop
0000000000000000 main.cpp
0000000080222940 _ZL7started
000000008020023e _GLOBAL__sub_I_console
0000000000000000 StartOS.cpp
0000000000000000 printk.cpp
00000000802006f4 _ZL8printintiii
0000000080200b3c _GLOBAL__sub_I_panicked
000000008020a308 _ZL6digits
0000000080222c58 _ZL2pr
0000000000000000 string.cpp
0000000000000000 SpinLock.cpp
0000000000000000 Cpu.cpp
0000000000000000 trap.cpp
0000000000000000 Plic.cpp
0000000000000000 Timer.cpp
0000000000000000 TaskScheduler.cpp
000000008020b070 _ZZ7forkretvE5first
0000000080202546 _GLOBAL__sub_I_taskTable
0000000000000000 SleepLock.cpp
0000000000000000 syscall.cpp
000000008028d658 _ZL8syscalls
0000000000000000 syscallProc.cpp
0000000000000000 SyscallFile.cpp
0000000000000000 Exec.cpp
0000000000000000 Intr.cpp
0000000000000000 BufferLayer.cpp
0000000000000000 Fat.cpp
00000000802905b8 _ZZ25tf_initializeMediaNoBlockjiE3scl
00000000802905b4 _ZZ25tf_initializeMediaNoBlockjiE3ssa
00000000802905b0 _ZZ25tf_initializeMediaNoBlockjiE19sectors_per_cluster
0000000000000000 Disk.cpp
0000000000000000 Vfs.cpp
00000000802068fa _GLOBAL__sub_I__ZN3vfs9fileTableE
0000000000000000 DeviceFileSystem.cpp
0000000000000000 Console.cpp
0000000000000000 VmManager.cpp
0000000000000000 MemAllocator.cpp
0000000000000000 VirtioDisk.cpp
0000000080207d3a _GLOBAL__sub_I_virtioDisk
0000000000000000 crtstuff.c
000000008020b080 
0000000080207d5a deregister_tm_clones
0000000080207d7a register_tm_clones
0000000080207da2 __do_global_dtors_aux
0000000080297008 completed.3369
000000008020b088 __do_global_dtors_aux_fini_array_entry
0000000080207de2 frame_dummy
0000000080297010 object.3374
000000008020b060 __frame_dummy_init_array_entry
0000000000000000 crtstuff.c
000000008020b080 __FRAME_END__
0000000080203a90 _Z17tf_release_handleP13struct_TFFILE
0000000080206a10 _ZN16DeviceFileSystem5writeEPKcbS1_ii
0000000080202b38 _Z9sys_wait4v
000000008020794a _Z11alloc3_descPi
00000000802042bc _Z19tf_compare_filenameP13struct_TFFILEPc
0000000080202b06 _Z8sys_waitv
0000000080201b68 _Z12prepareSchedv
0000000080202984 _Z8sys_exitv
0000000080203fb2 _Z20tf_find_free_clusterv
000000008020668c _ZN3vfs4initEv
0000000080208000 trampoline
0000000080203a26 _Z15tf_first_sectorj
000000008020715e _Z6copyinPmPcmm
0000000080222c78 panicked
000000008020277e _Z6argintiPi
000000008020209c _Z5wait4im
0000000080200dc4 _ZN8SpinLockC2Ev
0000000080207604 _ZN12MemAllocator9freeRangeEPvS0_
000000008020107e _Z11device_intrv
0000000080200c32 _Z7strncmpPKcS0_j
00000000802043fa _Z12tf_find_fileP13struct_TFFILEPc
00000000802026be _Z6argrawi
0000000080200fe0 _Z11usertrapretv
00000000802140c0 timer
0000000080202be6 _Z10sys_getpidv
000000008020b068 __stack_chk_guard
000000008028f000 tf_info
0000000080205f76 _ZN3vfs15getAbsolutePathEPcS0_
0000000080207bf4 _Z16virtio_disk_intrv
0000000080204890 _Z18tf_place_lfn_chainP13struct_TFFILEPcS1_
0000000080205064 _Z10tf_listdirPcP19struct_FatFileEntryPP13struct_TFFILE
0000000080203004 _Z8sys_dup3v
0000000080200c1a _Z6memcpyPvPKvj
000000008020700e _Z9userAllocPmmm
00000000802002c0 _Znwm
000000008020400e _Z25tf_find_free_cluster_fromj
0000000080206622 _ZN3vfs6mountsEPcm
000000008020b000 sdata
0000000080207694 _Z11virtio_initv
0000000080206966 _ZN16DeviceFileSystem5touchEPKc
000000008020307a _Z11sys_mkdiratv
000000008020753a _ZN12MemAllocator5allocEv
0000000080203112 _Z4execPcPS_
0000000080203ac6 _Z19tf_shorten_filenamePcS_c
00000000802905d8 _ZN3vfs9mountedFSE
0000000080201d5a _Z9schedulerv
0000000080200d76 _Z6strchrPKcc
000000008020b088 __TMC_END__
00000000802004c2 __cxa_finalize
0000000080200854 _Z6printfPKcz
0000000080204a8c _Z8tf_mkdirPKci
00000000802036aa _ZN11BufferLayer5writeEP3buf
000000008020388c _Z12write_sectorPcj
0000000080208090 userret
00000000802036d2 _ZN15Fat32FileSystem8truncateEPKcm
00000000802023ae _Z14either_copyoutbmPvi
0000000080204520 _Z13tf_choose_sfnPcS_P13struct_TFFILE
00000000802016fe _ZN5TimerC2Ej
0000000080201670 kernelvec
000000008020b034 edata
00000000802041b2 _Z8tf_freadPciP13struct_TFFILEb
0000000080201780 _ZN5Timer10handleIntrEv
00000000802050f4 _ZN15Fat32FileSystem4openEPKcmP4file
000000008020b078 __dso_handle
0000000080205d60 _ZN3vfs16createFileSystemENS_14FileSystemTypeEPKcS2_
0000000080206d56 _Z4walkPmmi
0000000080200016 _Z10print_logov
0000000080202ce8 _Z8sys_openv
000000008020a000 rodata_start
00000000802054c0 _ZN15Fat32FileSystem5writeEPKcbS1_ii
0000000080206510 _ZN3vfs2rmEPKc
0000000080206630 _ZN3vfs5mountENS_14FileSystemTypeEPKcS2_
0000000080206982 _ZN16DeviceFileSystem2lsEPKcPcb
0000000080200dd0 _ZN8SpinLockC1EPKc
00000000802905a0 temp
0000000080206a66 _ZN7ConsoleC1Ev
0000000080200cd8 _Z7strncpyPcPKci
0000000080203e02 _Z20tf_free_clusterchainj
00000000802002e8 _ZdlPv
00000000802034f4 _ZN11BufferLayer4initEv
0000000080223000 stack
000000008020283a _Z12syscall_initv
00000000802063c2 _ZN3vfs5closeEP4file
0000000080206c60 _ZN7Console12console_intrEc
00000000802070e2 _Z12user_vm_initPmPhj
0000000080200b5c _Z6memsetPvij
0000000080202580 _ZN9SleepLock4initEPKc
00000000802018d0 _Z9allocTaskv
0000000080204cb8 _Z9tf_parentPKcS0_i
0000000080209000 _init
00000000802029b8 _Z8sys_forkv
0000000080202372 _Z5yieldv
0000000080203928 _Z8tf_fetchj
0000000080200f24 _ZN3Cpu4initEv
00000000802070ac _Z10userCreatev
0000000080207590 _ZN12MemAllocator4freeEPv
0000000080203e60 _Z27tf_compare_filename_segmentP19struct_FatFileEntryPc
0000000080201862 _Z13taskPagetableP4Task
0000000080214000 console
0000000080222c50 __atexit_func_count
0000000080200000 BASE_ADDRESS
0000000080206738 _ZN3vfs11direct_readEPKcPcmm
00000000802036c4 _ZN15Fat32FileSystem5clearEPKcmmRm
0000000080205d48 _Z9disk_intrv
0000000080206eee _Z13kernel_vm_mapmmmi
0000000080203836 _Z11read_sectorPcj
0000000080200a52 _Z9backtracev
00000000802140a0 memAllocator
000000008020a9c8 _ZTV15Fat32FileSystem
0000000080203cbe _Z19tf_create_lfn_entryPcP19struct_FatFileEntry
0000000080202c00 _Z11sys_getppidv
0000000080203438 _ZN4Intr8push_offEv
0000000080201caa _Z9sleepTimem
0000000080298000 end
0000000080206bde _ZN7Console5writeEmbi
0000000080203aa6 _Z5upperc
0000000080206d32 _Z10initHartVmv
0000000080207656 _ZN12MemAllocator4initEv
0000000080202906 _Z7syscallv
000000008020496e _Z9tf_fflushP13struct_TFFILE
00000000802069ec _ZN16DeviceFileSystem4readEPKcbPcii
0000000080207358 _Z12user_vm_copyPmS_i
000000008020a000 srodata
0000000080222948 plic
0000000080206958 _ZN16DeviceFileSystem8get_fileEPKcP4file
0000000080209000 etext
0000000080289000 taskTable
0000000080202ef4 _Z8sys_readv
0000000080205162 _ZN15Fat32FileSystem4readEPKcbPcii
000000008020ac50 _ZTV16DeviceFileSystem
0000000080202610 _ZN9SleepLock6unlockEv
0000000080206536 _ZN3vfs2lsEiPcb
0000000080204f42 _ZN15Fat32FileSystem2lsEPKcPcb
0000000080205e48 _ZN3vfs15allocFileHandleEv
0000000080204442 _Z7tf_walkPcP13struct_TFFILE
0000000080201f24 _Z4waitm
0000000080201d20 _Z6wakeupPv
0000000080214000 boot_stack_top
00000000802000a6 __cxa_pure_virtual
00000000802005d6 _Z15OutputLogHeaderPKciS0_i
0000000080200dc4 _ZN8SpinLockC1Ev
0000000080203a48 _Z18tf_get_free_handlev
0000000080290600 _ZN3vfs9fileTableE
00000000802025ba _ZN9SleepLock4lockEv
0000000080203678 _ZN11BufferLayer4readEii
0000000080200bb6 _Z7memmovePvPKvj
00000000802027a0 _Z7argaddriPm
00000000802905c0 _ZN3vfs13fileTableLockE
0000000080201148 _Z8usertrapv
0000000080206a82 _ZN7Console4putcEi
00000000802016fe _ZN5TimerC1Ej
0000000080205ca0 _Z21tf_print_open_handlesv
000000008020aea0 erodata
0000000080206a34 _ZN7Console4initEv
00000000802067f4 _ZN3vfs5chdirEPc
0000000080201728 _ZN5Timer10setTimeoutEv
0000000080200410 __cxa_atexit
000000008020c000 bss_start
0000000080205d30 _Z10disk_writeP3buf
00000000802039cc _Z16tf_set_fat_entryjj
0000000080204188 _Z8tf_fseekP13struct_TFFILEml
0000000080202218 _Z4exiti
000000008020678e _ZN3vfs3dupEP4file
0000000080222840 cpus
000000008020198c _Z13initFirstTaskv
0000000080200000 _entry
00000000802038f4 _Z8tf_storev
0000000080200ec8 _ZN8SpinLock6unlockEv
0000000080206a66 _ZN7ConsoleC2Ev
0000000080203dd4 _Z15tf_lfn_checksumPKc
0000000080214000 sbss_clear
0000000080200f9c _Z12trapinithartv
0000000080204e9c _ZN15Fat32FileSystem5touchEPKc
00000000802036e0 _Z7copysfnPcS_b
0000000080202c1c _Z10sys_getcwdv
00000000802007a4 _Z8printstrPKc
0000000080200c6e _Z11strncasecmpPKcS0_m
000000008020b000 initcode
0000000080200b7c _Z6memcmpPKvS0_j
0000000080200102 main
00000000802071e8 _Z9copyinstrPmPcmi
0000000080203548 _ZN11BufferLayer11allocBufferEii
0000000080206f28 _Z12initKernelVmv
0000000080200e1c _ZN8SpinLock7holdingEv
000000008020280a _Z6argstriPci
0000000080208000 uservec
00000000802140e8 bufferLayer
0000000080205d00 _Z9disk_initv
00000000802003ae _ZdaPv
000000008020163a _ZN4Plic8completeEi
000000008020525a _Z7tf_initv
00000000802015b6 _ZN4Plic4initEv
0000000080294000 virtioDisk
000000008020694a _ZN16DeviceFileSystem8truncateEPKcm
0000000080204c9c _ZN15Fat32FileSystem5mkdirEPKc
0000000080207474 _Z7vmprintPmi
0000000080200000 text_start
00000000802062fe _ZN3vfs5writeEibPKcmm
000000008020562c _Z18tf_initializeMediaj
0000000080222950 __atexit_funcs
0000000080200abe _Z7cpudumpi
0000000080200e4c _ZN8SpinLock4lockEv
000000008020272a _Z9fetchaddrmPm
0000000080201a0c _Z6myTaskv
000000008020652a _ZN3vfs8truncateEim
000000008020b000 data_start
000000008020691a _ZN16DeviceFileSystem4initEv
0000000080200dd0 _ZN8SpinLockC2EPKc
0000000080209034 _fini
0000000080207d20 _Z12virtio_writeP3buf
0000000080201c2c _Z5sleepPvP8SpinLock
000000008020693c _ZN16DeviceFileSystem5clearEPKcmmRm
0000000080206e0e _Z8mappagesPmmmmi
00000000802027c2 _Z8fetchstrmPci
0000000080205cac _Z19tf_get_open_handlesv
0000000080206780 _ZN3vfs12direct_writeEPKcS1_mm
0000000080206926 _ZN16DeviceFileSystem4openEPKcmP4file
00000000802029d0 _Z8sys_execv
0000000080205d18 _Z9disk_readP3buf
0000000080206974 _ZN16DeviceFileSystem2rmEPKc
0000000080200f68 _ZN3Cpu5mycpuEv
000000008020034a _Znam
0000000080202f5c _Z7sys_dupv
0000000080203626 _ZN11BufferLayer10freeBufferEP3buf
0000000080205eae _ZN3vfs14freeFileHandleEP4file
0000000080204d50 _Z9tf_createPKc
0000000080204a64 _Z9tf_fcloseP13struct_TFFILE
000000008020651c _ZN3vfs5clearEimm
0000000080207d06 _Z11virtio_readP3buf
0000000080206eac _Z8walkAddrPmm
0000000080201358 _Z13trapframedumpP9trapframe
0000000080297000 buf0
00000000802015ce _ZN4Plic8initHartEv
0000000080297040 ebss_clear
000000008020602a _ZN3vfs4openEPKcm
0000000080203486 _ZN4Intr7pop_offEv
00000000802079ac _Z14virtio_disk_rwP3bufi
00000000802030ca _Z9sys_chdirv
000000008020785e _Z9free_desci
0000000080201a3c _Z7forkretv
0000000080205908 _Z25tf_initializeMediaNoBlockji
0000000080201e2a _Z4forkv
0000000080205218 _ZN15Fat32FileSystem8get_fileEPKcP4file
00000000802017c2 _Z13initTaskTablev
0000000080202654 pswitch
000000008028d650 initTask
0000000080200f58 _ZN3Cpu5cpuidEv
0000000080204076 _Z15tf_unsafe_fseekP13struct_TFFILEil
0000000080205cb4 _Z8printHexPcj
00000000802007e2 _Z5panicPKc
0000000080205522 _Z9tf_removePc
0000000080207904 _Z10free_chaini
0000000080206438 _ZN3vfs7mkdiratEiPKc
00000000802931c0 kernel_pagetable
000000008020545e _ZN15Fat32FileSystem4initEv
0000000080200d18 _Z10safestrcpyPcPKci
000000008020174e _ZN5Timer4initEv
0000000080200f84 _Z8trapinitv
0000000080200df6 _ZN8SpinLock4initEPKc
0000000080201610 _ZN4Plic5claimEv
0000000080205ecc _ZN3vfs5getFsEPKc
0000000080204eb8 _Z8tf_fopenPKcS0_
000000008020398e _Z16tf_get_fat_entryj
000000008020245c _Z18registerFileHandleP4filei
00000000802072c0 _Z7copyoutPmmPci
0000000080206ac2 _ZN7Console4readEmbi
0000000080202e8c _Z9sys_writev
000000008020c000 boot_stack
0000000080290000 tf_file_handles
0000000080200d4c _Z6strlenPKc
0000000080200b08 _Z10printfinitv
00000000802024fe _Z11getFileByfdi
0000000080200000 kernel_start
0000000080206990 _ZN16DeviceFileSystem5mkdirEPKc
0000000080204770 _Z9tf_fwritePKciP13struct_TFFILE
0000000080200d9a _Z7strrchrPKcc
000000008020493c _Z8tf_fputsPcP13struct_TFFILE
0000000080202404 _Z13either_copyinbPvmm
0000000080205610 _ZN15Fat32FileSystem2rmEPKc
0000000080202d80 _Z9sys_closev
000000008020128a kerneltrap
0000000080207820 _Z10alloc_descv
00000000802061f0 _ZN3vfs4readEibPcmm
00000000802045e4 _Z9tf_fnopenPKcS0_i
